ARM GAS  C:\cygwin\tmp\ccqrKjDR.s 			page 1


   1              		.syntax unified
   2              		.cpu cortex-m4
   3              		.fpu softvfp
   4              		.eabi_attribute 20, 1	@ Tag_ABI_FP_denormal
   5              		.eabi_attribute 21, 1	@ Tag_ABI_FP_exceptions
   6              		.eabi_attribute 23, 3	@ Tag_ABI_FP_number_model
   7              		.eabi_attribute 24, 1	@ Tag_ABI_align8_needed
   8              		.eabi_attribute 25, 1	@ Tag_ABI_align8_preserved
   9              		.eabi_attribute 26, 1	@ Tag_ABI_enum_size
  10              		.eabi_attribute 30, 4	@ Tag_ABI_optimization_goals
  11              		.eabi_attribute 34, 1	@ Tag_CPU_unaligned_access
  12              		.eabi_attribute 18, 4	@ Tag_ABI_PCS_wchar_t
  13              		.file	"GUIDRV_stm32f407_discovery.c"
  14              	@ GNU C (GNU Tools for ARM Embedded Processors) version 4.9.3 20141119 (release) [ARM/embedded-4_9-
  15              	@	compiled by GNU C version 4.7.4, GMP version 4.3.2, MPFR version 2.4.2, MPC version 0.8.1
  16              	@ GGC heuristics: --param ggc-min-expand=100 --param ggc-min-heapsize=131072
  17              	@ options passed:  -I . -I Inc -I gui -I emWin -I emWin/config
  18              	@ -I ../STM32Cube_FW_F4_V1.4.0/Drivers/CMSIS/Include
  19              	@ -I ../STM32Cube_FW_F4_V1.4.0/Drivers/CMSIS/Device/ST/STM32F4xx/Include
  20              	@ -I ../STM32Cube_FW_F4_V1.4.0/Drivers/STM32F4xx_HAL_Driver/Inc
  21              	@ -I ../STM32Cube_FW_F4_V1.4.0/Drivers/CMSIS/Include
  22              	@ -I ../STM32Cube_FW_F4_V1.4.0/Middlewares/ST/STemWin/inc
  23              	@ -I .drivers/modbus -I ./drivers/display -imultilib armv7e-m
  24              	@ -iprefix c:\program files\gnu tools arm embedded\4.9 2014q4\bin\../lib/gcc/arm-none-eabi/4.9.3/
  25              	@ -isysroot c:\program files\gnu tools arm embedded\4.9 2014q4\bin\../arm-none-eabi
  26              	@ -MD out/GUIDRV_stm32f407_discovery.d -MF out/GUIDRV_stm32f407_discovery.d
  27              	@ -MP -MQ out/GUIDRV_stm32f407_discovery.o -D__USES_INITFINI__
  28              	@ -D USE_HAL_DRIVER -D STM32F4XX -D HSE_VALUE=8000000
  29              	@ -D __STARTUP_CLEAR_BSS -D STM32F407VG -D USE_FULL_ASSERT -D __FPU_USED
  30              	@ emWin/config/GUIDRV_stm32f407_discovery.c -mcpu=cortex-m4 -mthumb
  31              	@ -auxbase-strip out/GUIDRV_stm32f407_discovery.o -g -ggdb3 -Os -Os -Wall
  32              	@ -Wstrict-prototypes -Wextra -std=gnu90 -ffunction-sections
  33              	@ -fdata-sections -fverbose-asm
  34              	@ options enabled:  -faggressive-loop-optimizations -fauto-inc-dec
  35              	@ -fbranch-count-reg -fcaller-saves -fcombine-stack-adjustments -fcommon
  36              	@ -fcompare-elim -fcprop-registers -fcrossjumping -fcse-follow-jumps
  37              	@ -fdata-sections -fdefer-pop -fdelete-null-pointer-checks -fdevirtualize
  38              	@ -fdevirtualize-speculatively -fdwarf2-cfi-asm -fearly-inlining
  39              	@ -feliminate-unused-debug-types -fexpensive-optimizations
  40              	@ -fforward-propagate -ffunction-cse -ffunction-sections -fgcse -fgcse-lm
  41              	@ -fgnu-runtime -fgnu-unique -fguess-branch-probability
  42              	@ -fhoist-adjacent-loads -fident -fif-conversion -fif-conversion2
  43              	@ -findirect-inlining -finline -finline-atomics -finline-functions
  44              	@ -finline-functions-called-once -finline-small-functions -fipa-cp
  45              	@ -fipa-profile -fipa-pure-const -fipa-reference -fipa-sra
  46              	@ -fira-hoist-pressure -fira-share-save-slots -fira-share-spill-slots
  47              	@ -fisolate-erroneous-paths-dereference -fivopts -fkeep-static-consts
  48              	@ -fleading-underscore -fmath-errno -fmerge-constants -fmerge-debug-strings
  49              	@ -fomit-frame-pointer -foptimize-sibling-calls -fpartial-inlining
  50              	@ -fpeephole -fpeephole2 -fprefetch-loop-arrays -freg-struct-return
  51              	@ -freorder-blocks -freorder-functions -frerun-cse-after-loop
  52              	@ -fsched-critical-path-heuristic -fsched-dep-count-heuristic
  53              	@ -fsched-group-heuristic -fsched-interblock -fsched-last-insn-heuristic
  54              	@ -fsched-pressure -fsched-rank-heuristic -fsched-spec
  55              	@ -fsched-spec-insn-heuristic -fsched-stalled-insns-dep -fschedule-insns2
  56              	@ -fsection-anchors -fshow-column -fsigned-zeros -fsplit-ivs-in-unroller
  57              	@ -fsplit-wide-types -fstrict-aliasing -fstrict-overflow
ARM GAS  C:\cygwin\tmp\ccqrKjDR.s 			page 2


  58              	@ -fstrict-volatile-bitfields -fsync-libcalls -fthread-jumps
  59              	@ -ftoplevel-reorder -ftrapping-math -ftree-bit-ccp -ftree-builtin-call-dce
  60              	@ -ftree-ccp -ftree-ch -ftree-coalesce-vars -ftree-copy-prop
  61              	@ -ftree-copyrename -ftree-cselim -ftree-dce -ftree-dominator-opts
  62              	@ -ftree-dse -ftree-forwprop -ftree-fre -ftree-loop-if-convert
  63              	@ -ftree-loop-im -ftree-loop-ivcanon -ftree-loop-optimize
  64              	@ -ftree-parallelize-loops= -ftree-phiprop -ftree-pre -ftree-pta
  65              	@ -ftree-reassoc -ftree-scev-cprop -ftree-sink -ftree-slsr -ftree-sra
  66              	@ -ftree-switch-conversion -ftree-tail-merge -ftree-ter -ftree-vrp
  67              	@ -funit-at-a-time -fvar-tracking -fvar-tracking-assignments -fverbose-asm
  68              	@ -fzero-initialized-in-bss -mlittle-endian -mlra
  69              	@ -mpic-data-is-text-relative -msched-prolog -mthumb -munaligned-access
  70              	@ -mvectorize-with-neon-quad
  71              	
  72              		.text
  73              	.Ltext0:
  74              		.cfi_sections	.debug_frame
  75              		.section	.text.LcdWriteReg,"ax",%progbits
  76              		.align	1
  77              		.thumb
  78              		.thumb_func
  79              		.type	LcdWriteReg, %function
  80              	LcdWriteReg:
  81              	.LFB123:
  82              		.file 1 "emWin/config/GUIDRV_stm32f407_discovery.c"
   1:emWin/config/GUIDRV_stm32f407_discovery.c **** /*********************************************************************
   2:emWin/config/GUIDRV_stm32f407_discovery.c **** *          Portions COPYRIGHT 2013 STMicroelectronics                *
   3:emWin/config/GUIDRV_stm32f407_discovery.c **** *          Portions SEGGER Microcontroller GmbH & Co. KG             *
   4:emWin/config/GUIDRV_stm32f407_discovery.c **** *        Solutions for real time microcontroller applications        *
   5:emWin/config/GUIDRV_stm32f407_discovery.c **** **********************************************************************
   6:emWin/config/GUIDRV_stm32f407_discovery.c **** *                                                                    *
   7:emWin/config/GUIDRV_stm32f407_discovery.c **** *        (c) 1996 - 2013  SEGGER Microcontroller GmbH & Co. KG       *
   8:emWin/config/GUIDRV_stm32f407_discovery.c **** *                                                                    *
   9:emWin/config/GUIDRV_stm32f407_discovery.c **** *        Internet: www.segger.com    Support:  support@segger.com    *
  10:emWin/config/GUIDRV_stm32f407_discovery.c **** *                                                                    *
  11:emWin/config/GUIDRV_stm32f407_discovery.c **** **********************************************************************
  12:emWin/config/GUIDRV_stm32f407_discovery.c **** 
  13:emWin/config/GUIDRV_stm32f407_discovery.c **** ** emWin V5.22 - Graphical user interface for embedded applications **
  14:emWin/config/GUIDRV_stm32f407_discovery.c **** All  Intellectual Property rights  in the Software belongs to  SEGGER.
  15:emWin/config/GUIDRV_stm32f407_discovery.c **** emWin is protected by  international copyright laws.  Knowledge of the
  16:emWin/config/GUIDRV_stm32f407_discovery.c **** source code may not be used to write a similar product.  This file may
  17:emWin/config/GUIDRV_stm32f407_discovery.c **** only be used in accordance with the following terms:
  18:emWin/config/GUIDRV_stm32f407_discovery.c **** 
  19:emWin/config/GUIDRV_stm32f407_discovery.c **** The  software has  been licensed  to STMicroelectronics International
  20:emWin/config/GUIDRV_stm32f407_discovery.c **** N.V. a Dutch company with a Swiss branch and its headquarters in Plan-
  21:emWin/config/GUIDRV_stm32f407_discovery.c **** les-Ouates, Geneva, 39 Chemin du Champ des Filles, Switzerland for the
  22:emWin/config/GUIDRV_stm32f407_discovery.c **** purposes of creating libraries for ARM Cortex-M-based 32-bit microcon_
  23:emWin/config/GUIDRV_stm32f407_discovery.c **** troller products commercialized by Licensee only, sublicensed and dis_
  24:emWin/config/GUIDRV_stm32f407_discovery.c **** tributed under the terms and conditions of the End User License Agree_
  25:emWin/config/GUIDRV_stm32f407_discovery.c **** ment supplied by STMicroelectronics International N.V.
  26:emWin/config/GUIDRV_stm32f407_discovery.c **** Full source code is available at: www.segger.com
  27:emWin/config/GUIDRV_stm32f407_discovery.c **** 
  28:emWin/config/GUIDRV_stm32f407_discovery.c **** We appreciate your understanding and fairness.
  29:emWin/config/GUIDRV_stm32f407_discovery.c **** ----------------------------------------------------------------------
  30:emWin/config/GUIDRV_stm32f407_discovery.c **** File        : LCDConf.c
  31:emWin/config/GUIDRV_stm32f407_discovery.c **** Purpose     : Display controller configuration (single layer)
  32:emWin/config/GUIDRV_stm32f407_discovery.c **** ---------------------------END-OF-HEADER------------------------------
ARM GAS  C:\cygwin\tmp\ccqrKjDR.s 			page 3


  33:emWin/config/GUIDRV_stm32f407_discovery.c **** */
  34:emWin/config/GUIDRV_stm32f407_discovery.c **** 
  35:emWin/config/GUIDRV_stm32f407_discovery.c **** /**
  36:emWin/config/GUIDRV_stm32f407_discovery.c ****   ******************************************************************************
  37:emWin/config/GUIDRV_stm32f407_discovery.c ****   * @file    LCDConf_stm3240g_eval.c
  38:emWin/config/GUIDRV_stm32f407_discovery.c ****   * @author  MCD Application Team
  39:emWin/config/GUIDRV_stm32f407_discovery.c ****   * @version V1.1.0
  40:emWin/config/GUIDRV_stm32f407_discovery.c ****   * @date    11-October-2013
  41:emWin/config/GUIDRV_stm32f407_discovery.c ****   * @brief   Driver for STM3240G-EVAL board LCD
  42:emWin/config/GUIDRV_stm32f407_discovery.c ****   ******************************************************************************
  43:emWin/config/GUIDRV_stm32f407_discovery.c ****   * @attention
  44:emWin/config/GUIDRV_stm32f407_discovery.c ****   *
  45:emWin/config/GUIDRV_stm32f407_discovery.c ****   * Licensed under MCD-ST Liberty SW License Agreement V2, (the "License");
  46:emWin/config/GUIDRV_stm32f407_discovery.c ****   * You may not use this file except in compliance with the License.
  47:emWin/config/GUIDRV_stm32f407_discovery.c ****   * You may obtain a copy of the License at:
  48:emWin/config/GUIDRV_stm32f407_discovery.c ****   *
  49:emWin/config/GUIDRV_stm32f407_discovery.c ****   *        http://www.st.com/software_license_agreement_liberty_v2
  50:emWin/config/GUIDRV_stm32f407_discovery.c ****   *
  51:emWin/config/GUIDRV_stm32f407_discovery.c ****   * Unless required by applicable law or agreed to in writing, software 
  52:emWin/config/GUIDRV_stm32f407_discovery.c ****   * distributed under the License is distributed on an "AS IS" BASIS, 
  53:emWin/config/GUIDRV_stm32f407_discovery.c ****   * WITHOUT WARRANTIES OR CONDITIONS OF ANY KIND, either express or implied.
  54:emWin/config/GUIDRV_stm32f407_discovery.c ****   * See the License for the specific language governing permissions and
  55:emWin/config/GUIDRV_stm32f407_discovery.c ****   * limitations under the License.
  56:emWin/config/GUIDRV_stm32f407_discovery.c ****   *
  57:emWin/config/GUIDRV_stm32f407_discovery.c ****   ******************************************************************************
  58:emWin/config/GUIDRV_stm32f407_discovery.c ****   */
  59:emWin/config/GUIDRV_stm32f407_discovery.c **** /* Includes ------------------------------------------------------------------*/
  60:emWin/config/GUIDRV_stm32f407_discovery.c **** #include "GUI.h"
  61:emWin/config/GUIDRV_stm32f407_discovery.c **** #include "GUIDRV_FlexColor.h"
  62:emWin/config/GUIDRV_stm32f407_discovery.c **** #include "global_includes.h"
  63:emWin/config/GUIDRV_stm32f407_discovery.c **** 
  64:emWin/config/GUIDRV_stm32f407_discovery.c **** /* defines ------------------------------------------------------------*/
  65:emWin/config/GUIDRV_stm32f407_discovery.c **** // Physical display size
  66:emWin/config/GUIDRV_stm32f407_discovery.c **** #define XSIZE_PHYS  240
  67:emWin/config/GUIDRV_stm32f407_discovery.c **** #define YSIZE_PHYS  320
  68:emWin/config/GUIDRV_stm32f407_discovery.c **** 
  69:emWin/config/GUIDRV_stm32f407_discovery.c **** /*********************************************************************
  70:emWin/config/GUIDRV_stm32f407_discovery.c **** *       Configuration checking
  71:emWin/config/GUIDRV_stm32f407_discovery.c **** *
  72:emWin/config/GUIDRV_stm32f407_discovery.c **** **********************************************************************
  73:emWin/config/GUIDRV_stm32f407_discovery.c **** */
  74:emWin/config/GUIDRV_stm32f407_discovery.c **** #ifndef   VXSIZE_PHYS
  75:emWin/config/GUIDRV_stm32f407_discovery.c ****   #define VXSIZE_PHYS XSIZE_PHYS
  76:emWin/config/GUIDRV_stm32f407_discovery.c **** #endif
  77:emWin/config/GUIDRV_stm32f407_discovery.c **** #ifndef   VYSIZE_PHYS
  78:emWin/config/GUIDRV_stm32f407_discovery.c ****   #define VYSIZE_PHYS YSIZE_PHYS
  79:emWin/config/GUIDRV_stm32f407_discovery.c **** #endif
  80:emWin/config/GUIDRV_stm32f407_discovery.c **** #ifndef   XSIZE_PHYS
  81:emWin/config/GUIDRV_stm32f407_discovery.c ****   #error Physical X size of display is not defined!
  82:emWin/config/GUIDRV_stm32f407_discovery.c **** #endif
  83:emWin/config/GUIDRV_stm32f407_discovery.c **** #ifndef   YSIZE_PHYS
  84:emWin/config/GUIDRV_stm32f407_discovery.c ****   #error Physical Y size of display is not defined!
  85:emWin/config/GUIDRV_stm32f407_discovery.c **** #endif
  86:emWin/config/GUIDRV_stm32f407_discovery.c **** #ifndef   GUICC_565
  87:emWin/config/GUIDRV_stm32f407_discovery.c ****   #error Color conversion not defined!
  88:emWin/config/GUIDRV_stm32f407_discovery.c **** #endif
  89:emWin/config/GUIDRV_stm32f407_discovery.c **** #ifndef   GUIDRV_FLEXCOLOR
ARM GAS  C:\cygwin\tmp\ccqrKjDR.s 			page 4


  90:emWin/config/GUIDRV_stm32f407_discovery.c ****   #error No display driver defined!
  91:emWin/config/GUIDRV_stm32f407_discovery.c **** #endif
  92:emWin/config/GUIDRV_stm32f407_discovery.c **** 
  93:emWin/config/GUIDRV_stm32f407_discovery.c **** /*********************************************************************
  94:emWin/config/GUIDRV_stm32f407_discovery.c **** *       FSCM 16 bit data - address pointer
  95:emWin/config/GUIDRV_stm32f407_discovery.c **** *
  96:emWin/config/GUIDRV_stm32f407_discovery.c **** **********************************************************************
  97:emWin/config/GUIDRV_stm32f407_discovery.c **** */
  98:emWin/config/GUIDRV_stm32f407_discovery.c **** #define LCD_BASE           ((uint32_t)(0x60000000)
  99:emWin/config/GUIDRV_stm32f407_discovery.c **** #define LCD_REG_ADDRESS   (*(volatile U16*)(0x60000000))
 100:emWin/config/GUIDRV_stm32f407_discovery.c **** #define LCD_DATA_ADDRESS  (*(volatile U16*)(0x60020000))
 101:emWin/config/GUIDRV_stm32f407_discovery.c **** 
 102:emWin/config/GUIDRV_stm32f407_discovery.c **** /* Private Functions -----------------------------------------------------*/
 103:emWin/config/GUIDRV_stm32f407_discovery.c **** /********************************************************************
 104:emWin/config/GUIDRV_stm32f407_discovery.c **** *
 105:emWin/config/GUIDRV_stm32f407_discovery.c **** *       LcdWriteReg
 106:emWin/config/GUIDRV_stm32f407_discovery.c **** *
 107:emWin/config/GUIDRV_stm32f407_discovery.c **** * Function description:
 108:emWin/config/GUIDRV_stm32f407_discovery.c **** *   Sets display register
 109:emWin/config/GUIDRV_stm32f407_discovery.c **** */
 110:emWin/config/GUIDRV_stm32f407_discovery.c **** static void LcdWriteReg(U16 Data) {
  83              		.loc 1 110 0
  84              		.cfi_startproc
  85              		@ args = 0, pretend = 0, frame = 0
  86              		@ frame_needed = 0, uses_anonymous_args = 0
  87              		@ link register save eliminated.
  88              	.LVL0:
 111:emWin/config/GUIDRV_stm32f407_discovery.c ****   LCD_REG_ADDRESS = Data;
  89              		.loc 1 111 0
  90 0000 4FF0C043 		mov	r3, #1610612736	@ tmp111,
  91 0004 1880     		strh	r0, [r3]	@ movhi	@ Data, MEM[(volatile short unsigned int *)1610612736B]
  92 0006 7047     		bx	lr	@
  93              		.cfi_endproc
  94              	.LFE123:
  95              		.size	LcdWriteReg, .-LcdWriteReg
  96              		.section	.text.LcdWriteData,"ax",%progbits
  97              		.align	1
  98              		.thumb
  99              		.thumb_func
 100              		.type	LcdWriteData, %function
 101              	LcdWriteData:
 102              	.LFB124:
 112:emWin/config/GUIDRV_stm32f407_discovery.c **** }
 113:emWin/config/GUIDRV_stm32f407_discovery.c **** 
 114:emWin/config/GUIDRV_stm32f407_discovery.c **** /********************************************************************
 115:emWin/config/GUIDRV_stm32f407_discovery.c **** *
 116:emWin/config/GUIDRV_stm32f407_discovery.c **** *       LcdWriteData
 117:emWin/config/GUIDRV_stm32f407_discovery.c **** *
 118:emWin/config/GUIDRV_stm32f407_discovery.c **** * Function description:
 119:emWin/config/GUIDRV_stm32f407_discovery.c **** *   Writes a value to a display register
 120:emWin/config/GUIDRV_stm32f407_discovery.c **** */
 121:emWin/config/GUIDRV_stm32f407_discovery.c **** static void LcdWriteData(U16 Data) {
 103              		.loc 1 121 0
 104              		.cfi_startproc
 105              		@ args = 0, pretend = 0, frame = 0
 106              		@ frame_needed = 0, uses_anonymous_args = 0
 107              		@ link register save eliminated.
ARM GAS  C:\cygwin\tmp\ccqrKjDR.s 			page 5


 108              	.LVL1:
 122:emWin/config/GUIDRV_stm32f407_discovery.c ****   LCD_DATA_ADDRESS = Data;
 109              		.loc 1 122 0
 110 0000 014B     		ldr	r3, .L3	@ tmp111,
 111 0002 1880     		strh	r0, [r3]	@ movhi	@ Data, MEM[(volatile short unsigned int *)1610743808B]
 112 0004 7047     		bx	lr	@
 113              	.L4:
 114 0006 00BF     		.align	2
 115              	.L3:
 116 0008 00000260 		.word	1610743808
 117              		.cfi_endproc
 118              	.LFE124:
 119              		.size	LcdWriteData, .-LcdWriteData
 120              		.section	.text.LcdWriteDataMultiple,"ax",%progbits
 121              		.align	1
 122              		.thumb
 123              		.thumb_func
 124              		.type	LcdWriteDataMultiple, %function
 125              	LcdWriteDataMultiple:
 126              	.LFB125:
 123:emWin/config/GUIDRV_stm32f407_discovery.c **** }
 124:emWin/config/GUIDRV_stm32f407_discovery.c **** 
 125:emWin/config/GUIDRV_stm32f407_discovery.c **** /********************************************************************
 126:emWin/config/GUIDRV_stm32f407_discovery.c **** *
 127:emWin/config/GUIDRV_stm32f407_discovery.c **** *       LcdWriteDataMultiple
 128:emWin/config/GUIDRV_stm32f407_discovery.c **** *
 129:emWin/config/GUIDRV_stm32f407_discovery.c **** * Function description:
 130:emWin/config/GUIDRV_stm32f407_discovery.c **** *   Writes multiple values to a display register.
 131:emWin/config/GUIDRV_stm32f407_discovery.c **** */
 132:emWin/config/GUIDRV_stm32f407_discovery.c **** static void LcdWriteDataMultiple(U16 * pData, int NumItems) {
 127              		.loc 1 132 0
 128              		.cfi_startproc
 129              		@ args = 0, pretend = 0, frame = 0
 130              		@ frame_needed = 0, uses_anonymous_args = 0
 131              		@ link register save eliminated.
 132              	.LVL2:
 133 0000 00EB4101 		add	r1, r0, r1, lsl #1	@, D.10979, pData, NumItems,
 134              	.LVL3:
 135              	.L6:
 133:emWin/config/GUIDRV_stm32f407_discovery.c ****   while (NumItems--) {
 136              		.loc 1 133 0
 137 0004 8842     		cmp	r0, r1	@ pData, D.10979
 138 0006 04D0     		beq	.L9	@,
 134:emWin/config/GUIDRV_stm32f407_discovery.c ****     LCD_DATA_ADDRESS = *pData++;
 139              		.loc 1 134 0
 140 0008 024B     		ldr	r3, .L10	@ tmp147,
 141 000a 30F8022B 		ldrh	r2, [r0], #2	@ D.10977, MEM[base: pData_8, offset: 4294967294B]
 142              	.LVL4:
 143 000e 1A80     		strh	r2, [r3]	@ movhi	@ D.10977, MEM[(volatile short unsigned int *)1610743808B]
 144 0010 F8E7     		b	.L6	@
 145              	.LVL5:
 146              	.L9:
 135:emWin/config/GUIDRV_stm32f407_discovery.c ****   }
 136:emWin/config/GUIDRV_stm32f407_discovery.c **** }
 147              		.loc 1 136 0
 148 0012 7047     		bx	lr	@
 149              	.L11:
ARM GAS  C:\cygwin\tmp\ccqrKjDR.s 			page 6


 150              		.align	2
 151              	.L10:
 152 0014 00000260 		.word	1610743808
 153              		.cfi_endproc
 154              	.LFE125:
 155              		.size	LcdWriteDataMultiple, .-LcdWriteDataMultiple
 156              		.section	.text.LcdReadDataMultiple,"ax",%progbits
 157              		.align	1
 158              		.thumb
 159              		.thumb_func
 160              		.type	LcdReadDataMultiple, %function
 161              	LcdReadDataMultiple:
 162              	.LFB126:
 137:emWin/config/GUIDRV_stm32f407_discovery.c **** 
 138:emWin/config/GUIDRV_stm32f407_discovery.c **** /********************************************************************
 139:emWin/config/GUIDRV_stm32f407_discovery.c **** *
 140:emWin/config/GUIDRV_stm32f407_discovery.c **** *       LcdReadDataMultiple
 141:emWin/config/GUIDRV_stm32f407_discovery.c **** *
 142:emWin/config/GUIDRV_stm32f407_discovery.c **** * Function description:
 143:emWin/config/GUIDRV_stm32f407_discovery.c **** *   Reads multiple values from a display register.
 144:emWin/config/GUIDRV_stm32f407_discovery.c **** */
 145:emWin/config/GUIDRV_stm32f407_discovery.c **** static void LcdReadDataMultiple(U16 * pData, int NumItems) {
 163              		.loc 1 145 0
 164              		.cfi_startproc
 165              		@ args = 0, pretend = 0, frame = 0
 166              		@ frame_needed = 0, uses_anonymous_args = 0
 167              		@ link register save eliminated.
 168              	.LVL6:
 169 0000 00EB4101 		add	r1, r0, r1, lsl #1	@, D.11002, pData, NumItems,
 170              	.LVL7:
 171              	.L13:
 146:emWin/config/GUIDRV_stm32f407_discovery.c ****   while (NumItems--) {
 172              		.loc 1 146 0
 173 0004 8842     		cmp	r0, r1	@ pData, D.11002
 174 0006 04D0     		beq	.L15	@,
 147:emWin/config/GUIDRV_stm32f407_discovery.c ****     *pData++ = LCD_DATA_ADDRESS;
 175              		.loc 1 147 0
 176 0008 024B     		ldr	r3, .L16	@ tmp117,
 177 000a 1B88     		ldrh	r3, [r3]	@, MEM[(volatile short unsigned int *)1610743808B]
 178 000c 20F8023B 		strh	r3, [r0], #2	@ movhi	@ MEM[(volatile short unsigned int *)1610743808B], MEM[base: pData_8, of
 179              	.LVL8:
 180 0010 F8E7     		b	.L13	@
 181              	.LVL9:
 182              	.L15:
 148:emWin/config/GUIDRV_stm32f407_discovery.c ****   }
 149:emWin/config/GUIDRV_stm32f407_discovery.c **** }
 183              		.loc 1 149 0
 184 0012 7047     		bx	lr	@
 185              	.L17:
 186              		.align	2
 187              	.L16:
 188 0014 00000260 		.word	1610743808
 189              		.cfi_endproc
 190              	.LFE126:
 191              		.size	LcdReadDataMultiple, .-LcdReadDataMultiple
 192              		.section	.text.LCD_X_Config,"ax",%progbits
 193              		.align	1
ARM GAS  C:\cygwin\tmp\ccqrKjDR.s 			page 7


 194              		.global	LCD_X_Config
 195              		.thumb
 196              		.thumb_func
 197              		.type	LCD_X_Config, %function
 198              	LCD_X_Config:
 199              	.LFB127:
 150:emWin/config/GUIDRV_stm32f407_discovery.c **** 
 151:emWin/config/GUIDRV_stm32f407_discovery.c **** /*********************************************************************
 152:emWin/config/GUIDRV_stm32f407_discovery.c **** *
 153:emWin/config/GUIDRV_stm32f407_discovery.c **** *       Public functions
 154:emWin/config/GUIDRV_stm32f407_discovery.c **** *
 155:emWin/config/GUIDRV_stm32f407_discovery.c **** **********************************************************************
 156:emWin/config/GUIDRV_stm32f407_discovery.c **** */
 157:emWin/config/GUIDRV_stm32f407_discovery.c **** /*********************************************************************
 158:emWin/config/GUIDRV_stm32f407_discovery.c **** *
 159:emWin/config/GUIDRV_stm32f407_discovery.c **** *       LCD_X_Config
 160:emWin/config/GUIDRV_stm32f407_discovery.c **** *
 161:emWin/config/GUIDRV_stm32f407_discovery.c **** * Function description:
 162:emWin/config/GUIDRV_stm32f407_discovery.c **** *   Called during the initialization process in order to set up the
 163:emWin/config/GUIDRV_stm32f407_discovery.c **** *   display driver configuration.
 164:emWin/config/GUIDRV_stm32f407_discovery.c **** *
 165:emWin/config/GUIDRV_stm32f407_discovery.c **** */
 166:emWin/config/GUIDRV_stm32f407_discovery.c **** 
 167:emWin/config/GUIDRV_stm32f407_discovery.c **** void LCD_X_Config(void) {
 200              		.loc 1 167 0
 201              		.cfi_startproc
 202              		@ args = 0, pretend = 0, frame = 128
 203              		@ frame_needed = 0, uses_anonymous_args = 0
 204 0000 10B5     		push	{r4, lr}	@
 205              		.cfi_def_cfa_offset 8
 206              		.cfi_offset 4, -8
 207              		.cfi_offset 14, -4
 208 0002 A0B0     		sub	sp, sp, #128	@,,
 209              		.cfi_def_cfa_offset 136
 168:emWin/config/GUIDRV_stm32f407_discovery.c ****   GUI_DEVICE * pDevice;
 169:emWin/config/GUIDRV_stm32f407_discovery.c ****   CONFIG_FLEXCOLOR Config = {0};
 210              		.loc 1 169 0
 211 0004 01A8     		add	r0, sp, #4	@ tmp128,,
 212 0006 0021     		movs	r1, #0	@,
 213 0008 1422     		movs	r2, #20	@,
 214 000a FFF7FEFF 		bl	memset	@
 215              	.LVL10:
 170:emWin/config/GUIDRV_stm32f407_discovery.c ****   GUI_PORT_API PortAPI = {0};
 216              		.loc 1 170 0
 217 000e 06A8     		add	r0, sp, #24	@ tmp129,,
 218 0010 0021     		movs	r1, #0	@,
 219 0012 6822     		movs	r2, #104	@,
 220 0014 FFF7FEFF 		bl	memset	@
 221              	.LVL11:
 171:emWin/config/GUIDRV_stm32f407_discovery.c ****   //
 172:emWin/config/GUIDRV_stm32f407_discovery.c ****   // Set display driver and color conversion
 173:emWin/config/GUIDRV_stm32f407_discovery.c ****   //
 174:emWin/config/GUIDRV_stm32f407_discovery.c ****   pDevice = GUI_DEVICE_CreateAndLink(GUIDRV_FLEXCOLOR, GUICC_565, 0, 0);
 222              		.loc 1 174 0
 223 0018 0022     		movs	r2, #0	@,
 224 001a 1346     		mov	r3, r2	@,
 225 001c 1349     		ldr	r1, .L19	@,
ARM GAS  C:\cygwin\tmp\ccqrKjDR.s 			page 8


 226 001e 1448     		ldr	r0, .L19+4	@,
 227 0020 FFF7FEFF 		bl	GUI_DEVICE_CreateAndLink	@
 228              	.LVL12:
 175:emWin/config/GUIDRV_stm32f407_discovery.c ****   //
 176:emWin/config/GUIDRV_stm32f407_discovery.c ****   // Display driver configuration, required for Lin-driver
 177:emWin/config/GUIDRV_stm32f407_discovery.c ****   //
 178:emWin/config/GUIDRV_stm32f407_discovery.c ****   LCD_SetSizeEx (0, XSIZE_PHYS , YSIZE_PHYS);
 229              		.loc 1 178 0
 230 0024 F021     		movs	r1, #240	@,
 174:emWin/config/GUIDRV_stm32f407_discovery.c ****   //
 231              		.loc 1 174 0
 232 0026 0446     		mov	r4, r0	@ pDevice,
 233              	.LVL13:
 234              		.loc 1 178 0
 235 0028 4FF4A072 		mov	r2, #320	@,
 236 002c 0020     		movs	r0, #0	@,
 237              	.LVL14:
 238 002e FFF7FEFF 		bl	LCD_SetSizeEx	@
 239              	.LVL15:
 179:emWin/config/GUIDRV_stm32f407_discovery.c ****   LCD_SetVSizeEx(0, VXSIZE_PHYS, VYSIZE_PHYS);
 240              		.loc 1 179 0
 241 0032 4FF4A072 		mov	r2, #320	@,
 242 0036 F021     		movs	r1, #240	@,
 243 0038 0020     		movs	r0, #0	@,
 244 003a FFF7FEFF 		bl	LCD_SetVSizeEx	@
 245              	.LVL16:
 180:emWin/config/GUIDRV_stm32f407_discovery.c **** 
 181:emWin/config/GUIDRV_stm32f407_discovery.c ****   //
 182:emWin/config/GUIDRV_stm32f407_discovery.c ****   // Orientation
 183:emWin/config/GUIDRV_stm32f407_discovery.c ****   //
 184:emWin/config/GUIDRV_stm32f407_discovery.c ****   Config.Orientation = GUI_SWAP_XY | GUI_MIRROR_Y; // Landscape
 246              		.loc 1 184 0
 247 003e 0623     		movs	r3, #6	@ tmp119,
 185:emWin/config/GUIDRV_stm32f407_discovery.c **** 
 186:emWin/config/GUIDRV_stm32f407_discovery.c ****   GUIDRV_FlexColor_Config(pDevice, &Config);
 248              		.loc 1 186 0
 249 0040 2046     		mov	r0, r4	@, pDevice
 250 0042 01A9     		add	r1, sp, #4	@ tmp130,,
 184:emWin/config/GUIDRV_stm32f407_discovery.c **** 
 251              		.loc 1 184 0
 252 0044 0393     		str	r3, [sp, #12]	@ tmp119, Config.Orientation
 253              		.loc 1 186 0
 254 0046 FFF7FEFF 		bl	GUIDRV_FlexColor_Config	@
 255              	.LVL17:
 187:emWin/config/GUIDRV_stm32f407_discovery.c ****   //
 188:emWin/config/GUIDRV_stm32f407_discovery.c ****   // Set controller and operation mode
 189:emWin/config/GUIDRV_stm32f407_discovery.c ****   //
 190:emWin/config/GUIDRV_stm32f407_discovery.c ****   PortAPI.pfWrite16_A0  = LcdWriteReg;
 256              		.loc 1 190 0
 257 004a 0A4B     		ldr	r3, .L19+8	@ tmp121,
 258 004c 0E93     		str	r3, [sp, #56]	@ tmp121, PortAPI.pfWrite16_A0
 191:emWin/config/GUIDRV_stm32f407_discovery.c ****   PortAPI.pfWrite16_A1  = LcdWriteData;
 259              		.loc 1 191 0
 260 004e 0A4B     		ldr	r3, .L19+12	@ tmp122,
 261 0050 0F93     		str	r3, [sp, #60]	@ tmp122, PortAPI.pfWrite16_A1
 192:emWin/config/GUIDRV_stm32f407_discovery.c ****   PortAPI.pfWriteM16_A1 = LcdWriteDataMultiple;
 262              		.loc 1 192 0
ARM GAS  C:\cygwin\tmp\ccqrKjDR.s 			page 9


 263 0052 0A4B     		ldr	r3, .L19+16	@ tmp123,
 264 0054 1193     		str	r3, [sp, #68]	@ tmp123, PortAPI.pfWriteM16_A1
 193:emWin/config/GUIDRV_stm32f407_discovery.c ****   PortAPI.pfReadM16_A1  = LcdReadDataMultiple;
 265              		.loc 1 193 0
 266 0056 0A4B     		ldr	r3, .L19+20	@ tmp124,
 267 0058 1593     		str	r3, [sp, #84]	@ tmp124, PortAPI.pfReadM16_A1
 194:emWin/config/GUIDRV_stm32f407_discovery.c ****   GUIDRV_FlexColor_SetFunc(pDevice, &PortAPI, GUIDRV_FLEXCOLOR_F66709, GUIDRV_FLEXCOLOR_M16C0B16);
 268              		.loc 1 194 0
 269 005a 2046     		mov	r0, r4	@, pDevice
 270 005c 06A9     		add	r1, sp, #24	@ tmp131,,
 271 005e 094A     		ldr	r2, .L19+24	@,
 272 0060 094B     		ldr	r3, .L19+28	@,
 273 0062 FFF7FEFF 		bl	GUIDRV_FlexColor_SetFunc	@
 274              	.LVL18:
 195:emWin/config/GUIDRV_stm32f407_discovery.c **** }
 275              		.loc 1 195 0
 276 0066 20B0     		add	sp, sp, #128	@,,
 277              		.cfi_def_cfa_offset 8
 278              		@ sp needed	@
 279 0068 10BD     		pop	{r4, pc}	@
 280              	.LVL19:
 281              	.L20:
 282 006a 00BF     		.align	2
 283              	.L19:
 284 006c 00000000 		.word	LCD_API_ColorConv_565
 285 0070 00000000 		.word	GUIDRV_FlexColor_API
 286 0074 00000000 		.word	LcdWriteReg
 287 0078 00000000 		.word	LcdWriteData
 288 007c 00000000 		.word	LcdWriteDataMultiple
 289 0080 00000000 		.word	LcdReadDataMultiple
 290 0084 00000000 		.word	GUIDRV_FlexColor_SetFunc66709
 291 0088 00000000 		.word	GUIDRV_FlexColor_SetMode16bppC0B16
 292              		.cfi_endproc
 293              	.LFE127:
 294              		.size	LCD_X_Config, .-LCD_X_Config
 295              		.section	.text.LCD_X_DisplayDriver,"ax",%progbits
 296              		.align	1
 297              		.global	LCD_X_DisplayDriver
 298              		.thumb
 299              		.thumb_func
 300              		.type	LCD_X_DisplayDriver, %function
 301              	LCD_X_DisplayDriver:
 302              	.LFB128:
 196:emWin/config/GUIDRV_stm32f407_discovery.c **** 
 197:emWin/config/GUIDRV_stm32f407_discovery.c **** 
 198:emWin/config/GUIDRV_stm32f407_discovery.c **** 
 199:emWin/config/GUIDRV_stm32f407_discovery.c **** /*********************************************************************
 200:emWin/config/GUIDRV_stm32f407_discovery.c **** *
 201:emWin/config/GUIDRV_stm32f407_discovery.c **** *       LCD_X_DisplayDriver
 202:emWin/config/GUIDRV_stm32f407_discovery.c **** *
 203:emWin/config/GUIDRV_stm32f407_discovery.c **** * Function description:
 204:emWin/config/GUIDRV_stm32f407_discovery.c **** *   This function is called by the display driver for several purposes.
 205:emWin/config/GUIDRV_stm32f407_discovery.c **** *   To support the according task the routine needs to be adapted to
 206:emWin/config/GUIDRV_stm32f407_discovery.c **** *   the display controller. Please note that the commands marked with
 207:emWin/config/GUIDRV_stm32f407_discovery.c **** *   'optional' are not cogently required and should only be adapted if
 208:emWin/config/GUIDRV_stm32f407_discovery.c **** *   the display controller supports these features.
 209:emWin/config/GUIDRV_stm32f407_discovery.c **** *
ARM GAS  C:\cygwin\tmp\ccqrKjDR.s 			page 10


 210:emWin/config/GUIDRV_stm32f407_discovery.c **** * Parameter:
 211:emWin/config/GUIDRV_stm32f407_discovery.c **** *   LayerIndex - Index of layer to be configured
 212:emWin/config/GUIDRV_stm32f407_discovery.c **** *   Cmd        - Please refer to the details in the switch statement below
 213:emWin/config/GUIDRV_stm32f407_discovery.c **** *   pData      - Pointer to a LCD_X_DATA structure
 214:emWin/config/GUIDRV_stm32f407_discovery.c **** *
 215:emWin/config/GUIDRV_stm32f407_discovery.c **** * Return Value:
 216:emWin/config/GUIDRV_stm32f407_discovery.c **** *   < -1 - Error
 217:emWin/config/GUIDRV_stm32f407_discovery.c **** *     -1 - Command not handled
 218:emWin/config/GUIDRV_stm32f407_discovery.c **** *      0 - Ok
 219:emWin/config/GUIDRV_stm32f407_discovery.c **** */
 220:emWin/config/GUIDRV_stm32f407_discovery.c **** int LCD_X_DisplayDriver(unsigned LayerIndex, unsigned Cmd, void * pData) {
 303              		.loc 1 220 0
 304              		.cfi_startproc
 305              		@ args = 0, pretend = 0, frame = 0
 306              		@ frame_needed = 0, uses_anonymous_args = 0
 307              		@ link register save eliminated.
 308              	.LVL20:
 221:emWin/config/GUIDRV_stm32f407_discovery.c ****   int r;
 222:emWin/config/GUIDRV_stm32f407_discovery.c ****   (void) LayerIndex;
 223:emWin/config/GUIDRV_stm32f407_discovery.c ****   (void) pData;
 224:emWin/config/GUIDRV_stm32f407_discovery.c **** 
 225:emWin/config/GUIDRV_stm32f407_discovery.c ****   switch (Cmd) {
 309              		.loc 1 225 0
 310 0000 0129     		cmp	r1, #1	@ Cmd,
 226:emWin/config/GUIDRV_stm32f407_discovery.c ****   case LCD_X_INITCONTROLLER: {
 227:emWin/config/GUIDRV_stm32f407_discovery.c ****     return 0;
 228:emWin/config/GUIDRV_stm32f407_discovery.c ****   }
 229:emWin/config/GUIDRV_stm32f407_discovery.c ****   default:
 230:emWin/config/GUIDRV_stm32f407_discovery.c ****     r = -1;
 231:emWin/config/GUIDRV_stm32f407_discovery.c ****   }
 232:emWin/config/GUIDRV_stm32f407_discovery.c ****   return r;
 233:emWin/config/GUIDRV_stm32f407_discovery.c **** }
 311              		.loc 1 233 0
 312 0002 14BF     		ite	ne
 313 0004 4FF0FF30 		movne	r0, #-1	@,
 314              	.LVL21:
 315 0008 0020     		moveq	r0, #0	@,
 316 000a 7047     		bx	lr	@
 317              		.cfi_endproc
 318              	.LFE128:
 319              		.size	LCD_X_DisplayDriver, .-LCD_X_DisplayDriver
 320              		.text
 321              	.Letext0:
 322              		.file 2 "../STM32Cube_FW_F4_V1.4.0/Middlewares/ST/STemWin/inc/LCD.h"
 323              		.file 3 "../STM32Cube_FW_F4_V1.4.0/Middlewares/ST/STemWin/inc/GUI.h"
 324              		.file 4 "../STM32Cube_FW_F4_V1.4.0/Middlewares/ST/STemWin/inc/GUI_Type.h"
 325              		.file 5 "../STM32Cube_FW_F4_V1.4.0/Middlewares/ST/STemWin/inc/GUIDRV_FlexColor.h"
 326              		.file 6 "c:\\program files\\gnu tools arm embedded\\4.9 2014q4\\arm-none-eabi\\include\\machine\\_
 327              		.file 7 "c:\\program files\\gnu tools arm embedded\\4.9 2014q4\\arm-none-eabi\\include\\stdint.h"
 328              		.file 8 "../STM32Cube_FW_F4_V1.4.0/Drivers/CMSIS/Include/core_cm4.h"