ARM GAS  C:\cygwin\tmp\cc1sO8qW.s 			page 1


   1              		.syntax unified
   2              		.cpu cortex-m4
   3              		.fpu softvfp
   4              		.eabi_attribute 20, 1	@ Tag_ABI_FP_denormal
   5              		.eabi_attribute 21, 1	@ Tag_ABI_FP_exceptions
   6              		.eabi_attribute 23, 3	@ Tag_ABI_FP_number_model
   7              		.eabi_attribute 24, 1	@ Tag_ABI_align8_needed
   8              		.eabi_attribute 25, 1	@ Tag_ABI_align8_preserved
   9              		.eabi_attribute 26, 1	@ Tag_ABI_enum_size
  10              		.eabi_attribute 30, 4	@ Tag_ABI_optimization_goals
  11              		.eabi_attribute 34, 1	@ Tag_CPU_unaligned_access
  12              		.eabi_attribute 18, 4	@ Tag_ABI_PCS_wchar_t
  13              		.file	"ili_9341.c"
  14              	@ GNU C (GNU Tools for ARM Embedded Processors) version 4.9.3 20141119 (release) [ARM/embedded-4_9-
  15              	@	compiled by GNU C version 4.7.4, GMP version 4.3.2, MPFR version 2.4.2, MPC version 0.8.1
  16              	@ GGC heuristics: --param ggc-min-expand=100 --param ggc-min-heapsize=131072
  17              	@ options passed:  -I . -I Inc -I gui -I emWin -I emWin/config
  18              	@ -I ../STM32Cube_FW_F4_V1.4.0/Drivers/CMSIS/Include
  19              	@ -I ../STM32Cube_FW_F4_V1.4.0/Drivers/CMSIS/Device/ST/STM32F4xx/Include
  20              	@ -I ../STM32Cube_FW_F4_V1.4.0/Drivers/STM32F4xx_HAL_Driver/Inc
  21              	@ -I ../STM32Cube_FW_F4_V1.4.0/Drivers/CMSIS/Include
  22              	@ -I ../STM32Cube_FW_F4_V1.4.0/Middlewares/ST/STemWin/inc
  23              	@ -I .drivers/modbus -I ./drivers/display -imultilib armv7e-m
  24              	@ -iprefix c:\program files\gnu tools arm embedded\4.9 2014q4\bin\../lib/gcc/arm-none-eabi/4.9.3/
  25              	@ -isysroot c:\program files\gnu tools arm embedded\4.9 2014q4\bin\../arm-none-eabi
  26              	@ -MD out/ili_9341.d -MF out/ili_9341.d -MP -MQ out/ili_9341.o
  27              	@ -D__USES_INITFINI__ -D USE_HAL_DRIVER -D STM32F4XX -D HSE_VALUE=8000000
  28              	@ -D __STARTUP_CLEAR_BSS -D STM32F407VG -D USE_FULL_ASSERT -D __FPU_USED
  29              	@ ./drivers/display/ili_9341.c -mcpu=cortex-m4 -mthumb
  30              	@ -auxbase-strip out/ili_9341.o -g -ggdb3 -Os -Os -Wall -Wstrict-prototypes
  31              	@ -Wextra -std=gnu90 -ffunction-sections -fdata-sections -fverbose-asm
  32              	@ options enabled:  -faggressive-loop-optimizations -fauto-inc-dec
  33              	@ -fbranch-count-reg -fcaller-saves -fcombine-stack-adjustments -fcommon
  34              	@ -fcompare-elim -fcprop-registers -fcrossjumping -fcse-follow-jumps
  35              	@ -fdata-sections -fdefer-pop -fdelete-null-pointer-checks -fdevirtualize
  36              	@ -fdevirtualize-speculatively -fdwarf2-cfi-asm -fearly-inlining
  37              	@ -feliminate-unused-debug-types -fexpensive-optimizations
  38              	@ -fforward-propagate -ffunction-cse -ffunction-sections -fgcse -fgcse-lm
  39              	@ -fgnu-runtime -fgnu-unique -fguess-branch-probability
  40              	@ -fhoist-adjacent-loads -fident -fif-conversion -fif-conversion2
  41              	@ -findirect-inlining -finline -finline-atomics -finline-functions
  42              	@ -finline-functions-called-once -finline-small-functions -fipa-cp
  43              	@ -fipa-profile -fipa-pure-const -fipa-reference -fipa-sra
  44              	@ -fira-hoist-pressure -fira-share-save-slots -fira-share-spill-slots
  45              	@ -fisolate-erroneous-paths-dereference -fivopts -fkeep-static-consts
  46              	@ -fleading-underscore -fmath-errno -fmerge-constants -fmerge-debug-strings
  47              	@ -fomit-frame-pointer -foptimize-sibling-calls -fpartial-inlining
  48              	@ -fpeephole -fpeephole2 -fprefetch-loop-arrays -freg-struct-return
  49              	@ -freorder-blocks -freorder-functions -frerun-cse-after-loop
  50              	@ -fsched-critical-path-heuristic -fsched-dep-count-heuristic
  51              	@ -fsched-group-heuristic -fsched-interblock -fsched-last-insn-heuristic
  52              	@ -fsched-pressure -fsched-rank-heuristic -fsched-spec
  53              	@ -fsched-spec-insn-heuristic -fsched-stalled-insns-dep -fschedule-insns2
  54              	@ -fsection-anchors -fshow-column -fsigned-zeros -fsplit-ivs-in-unroller
  55              	@ -fsplit-wide-types -fstrict-aliasing -fstrict-overflow
  56              	@ -fstrict-volatile-bitfields -fsync-libcalls -fthread-jumps
  57              	@ -ftoplevel-reorder -ftrapping-math -ftree-bit-ccp -ftree-builtin-call-dce
ARM GAS  C:\cygwin\tmp\cc1sO8qW.s 			page 2


  58              	@ -ftree-ccp -ftree-ch -ftree-coalesce-vars -ftree-copy-prop
  59              	@ -ftree-copyrename -ftree-cselim -ftree-dce -ftree-dominator-opts
  60              	@ -ftree-dse -ftree-forwprop -ftree-fre -ftree-loop-if-convert
  61              	@ -ftree-loop-im -ftree-loop-ivcanon -ftree-loop-optimize
  62              	@ -ftree-parallelize-loops= -ftree-phiprop -ftree-pre -ftree-pta
  63              	@ -ftree-reassoc -ftree-scev-cprop -ftree-sink -ftree-slsr -ftree-sra
  64              	@ -ftree-switch-conversion -ftree-tail-merge -ftree-ter -ftree-vrp
  65              	@ -funit-at-a-time -fvar-tracking -fvar-tracking-assignments -fverbose-asm
  66              	@ -fzero-initialized-in-bss -mlittle-endian -mlra
  67              	@ -mpic-data-is-text-relative -msched-prolog -mthumb -munaligned-access
  68              	@ -mvectorize-with-neon-quad
  69              	
  70              		.text
  71              	.Ltext0:
  72              		.cfi_sections	.debug_frame
  73              		.section	.text.set_tft_window,"ax",%progbits
  74              		.align	1
  75              		.global	set_tft_window
  76              		.thumb
  77              		.thumb_func
  78              		.type	set_tft_window, %function
  79              	set_tft_window:
  80              	.LFB123:
  81              		.file 1 "./drivers/display/ili_9341.c"
   1:./drivers/display/ili_9341.c **** /**
   2:./drivers/display/ili_9341.c ****   ******************************************************************************
   3:./drivers/display/ili_9341.c ****   * @file    ili_9341.c 
   4:./drivers/display/ili_9341.c ****   * @author  Multicalor NV
   5:./drivers/display/ili_9341.c ****   * @version V1.0.0
   6:./drivers/display/ili_9341.c ****   * @date    23-01-2015
   7:./drivers/display/ili_9341.c ****   * @brief   Display Driver
   8:./drivers/display/ili_9341.c **** 	@brief	Verventa 1.0.0
   9:./drivers/display/ili_9341.c ****   ******************************************************************************
  10:./drivers/display/ili_9341.c ****   * @attention
  11:./drivers/display/ili_9341.c ****   *
  12:./drivers/display/ili_9341.c ****   * <h2><center>&copy; COPYRIGHT(c) 2014 STMicroelectronics</center></h2>
  13:./drivers/display/ili_9341.c ****   *
  14:./drivers/display/ili_9341.c ****   * Redistribution and use in source and binary forms, with or without modification,
  15:./drivers/display/ili_9341.c ****   * are permitted provided that the following conditions are met:
  16:./drivers/display/ili_9341.c ****   *   1. Redistributions of source code must retain the above copyright notice,
  17:./drivers/display/ili_9341.c ****   *      this list of conditions and the following disclaimer.
  18:./drivers/display/ili_9341.c ****   *   2. Redistributions in binary form must reproduce the above copyright notice,
  19:./drivers/display/ili_9341.c ****   *      this list of conditions and the following disclaimer in the documentation
  20:./drivers/display/ili_9341.c ****   *      and/or other materials provided with the distribution.
  21:./drivers/display/ili_9341.c ****   *   3. Neither the name of STMicroelectronics nor the names of its contributors
  22:./drivers/display/ili_9341.c ****   *      may be used to endorse or promote products derived from this software
  23:./drivers/display/ili_9341.c ****   *      without specific prior written permission.
  24:./drivers/display/ili_9341.c ****   *
  25:./drivers/display/ili_9341.c ****   * THIS SOFTWARE IS PROVIDED BY THE COPYRIGHT HOLDERS AND CONTRIBUTORS "AS IS"
  26:./drivers/display/ili_9341.c ****   * AND ANY EXPRESS OR IMPLIED WARRANTIES, INCLUDING, BUT NOT LIMITED TO, THE
  27:./drivers/display/ili_9341.c ****   * IMPLIED WARRANTIES OF MERCHANTABILITY AND FITNESS FOR A PARTICULAR PURPOSE ARE
  28:./drivers/display/ili_9341.c ****   * DISCLAIMED. IN NO EVENT SHALL THE COPYRIGHT HOLDER OR CONTRIBUTORS BE LIABLE
  29:./drivers/display/ili_9341.c ****   * FOR ANY DIRECT, INDIRECT, INCIDENTAL, SPECIAL, EXEMPLARY, OR CONSEQUENTIAL
  30:./drivers/display/ili_9341.c ****   * DAMAGES (INCLUDING, BUT NOT LIMITED TO, PROCUREMENT OF SUBSTITUTE GOODS OR
  31:./drivers/display/ili_9341.c ****   * SERVICES; LOSS OF USE, DATA, OR PROFITS; OR BUSINESS INTERRUPTION) HOWEVER
  32:./drivers/display/ili_9341.c ****   * CAUSED AND ON ANY THEORY OF LIABILITY, WHETHER IN CONTRACT, STRICT LIABILITY,
  33:./drivers/display/ili_9341.c ****   * OR TORT (INCLUDING NEGLIGENCE OR OTHERWISE) ARISING IN ANY WAY OUT OF THE USE
ARM GAS  C:\cygwin\tmp\cc1sO8qW.s 			page 3


  34:./drivers/display/ili_9341.c ****   * OF THIS SOFTWARE, EVEN IF ADVISED OF THE POSSIBILITY OF SUCH DAMAGE.
  35:./drivers/display/ili_9341.c ****   *
  36:./drivers/display/ili_9341.c ****   ******************************************************************************
  37:./drivers/display/ili_9341.c ****   */
  38:./drivers/display/ili_9341.c **** /* Includes ------------------------------------------------------------------*/
  39:./drivers/display/ili_9341.c **** #include "ili_9341.h"
  40:./drivers/display/ili_9341.c **** 
  41:./drivers/display/ili_9341.c **** 
  42:./drivers/display/ili_9341.c **** void set_tft_window(int16_t x1, int16_t y1, int16_t x2, int16_t y2) {
  82              		.loc 1 42 0
  83              		.cfi_startproc
  84              		@ args = 0, pretend = 0, frame = 0
  85              		@ frame_needed = 0, uses_anonymous_args = 0
  86              	.LVL0:
  87 0000 70B5     		push	{r4, r5, r6, lr}	@
  88              		.cfi_def_cfa_offset 16
  89              		.cfi_offset 4, -16
  90              		.cfi_offset 5, -12
  91              		.cfi_offset 6, -8
  92              		.cfi_offset 14, -4
  43:./drivers/display/ili_9341.c **** 
  44:./drivers/display/ili_9341.c **** 	LCD_REG  = COLUMN_ADDRESS_SET;
  93              		.loc 1 44 0
  94 0002 4FF0C045 		mov	r5, #1610612736	@ tmp124,
  95 0006 2A24     		movs	r4, #42	@ tmp126,
  96 0008 2C80     		strh	r4, [r5]	@ movhi	@ tmp126, MEM[(volatile short unsigned int *)1610612736B]
  45:./drivers/display/ili_9341.c **** 	LCD_DATA = 0;
  97              		.loc 1 45 0
  98 000a 0A4C     		ldr	r4, .L2	@ tmp127,
  99 000c 0026     		movs	r6, #0	@ tmp129,
  46:./drivers/display/ili_9341.c **** 	LCD_DATA = x1;
  47:./drivers/display/ili_9341.c **** 	LCD_DATA = 0;
  48:./drivers/display/ili_9341.c **** 	LCD_DATA = x2;
 100              		.loc 1 48 0
 101 000e 92B2     		uxth	r2, r2	@ D.7478, x2
  46:./drivers/display/ili_9341.c **** 	LCD_DATA = x1;
 102              		.loc 1 46 0
 103 0010 80B2     		uxth	r0, r0	@ D.7478, x1
  45:./drivers/display/ili_9341.c **** 	LCD_DATA = 0;
 104              		.loc 1 45 0
 105 0012 2680     		strh	r6, [r4]	@ movhi	@ tmp129, MEM[(volatile short unsigned int *)1610743808B]
  46:./drivers/display/ili_9341.c **** 	LCD_DATA = x1;
 106              		.loc 1 46 0
 107 0014 2080     		strh	r0, [r4]	@ movhi	@ D.7478, MEM[(volatile short unsigned int *)1610743808B]
  47:./drivers/display/ili_9341.c **** 	LCD_DATA = x2;
 108              		.loc 1 47 0
 109 0016 2680     		strh	r6, [r4]	@ movhi	@ tmp129, MEM[(volatile short unsigned int *)1610743808B]
 110              		.loc 1 48 0
 111 0018 2280     		strh	r2, [r4]	@ movhi	@ D.7478, MEM[(volatile short unsigned int *)1610743808B]
  49:./drivers/display/ili_9341.c **** 
  50:./drivers/display/ili_9341.c **** 	LCD_REG  = PAGE_ADDRESS_SET;
 112              		.loc 1 50 0
 113 001a 2B22     		movs	r2, #43	@ tmp139,
 114              	.LVL1:
 115 001c 2A80     		strh	r2, [r5]	@ movhi	@ tmp139, MEM[(volatile short unsigned int *)1610612736B]
  51:./drivers/display/ili_9341.c **** 	LCD_DATA = (y1 >> 8);
 116              		.loc 1 51 0
ARM GAS  C:\cygwin\tmp\cc1sO8qW.s 			page 4


 117 001e C1F30F22 		ubfx	r2, r1, #8, #16	@ D.7478, y1,,
 118 0022 2280     		strh	r2, [r4]	@ movhi	@ D.7478, MEM[(volatile short unsigned int *)1610743808B]
  52:./drivers/display/ili_9341.c **** 	LCD_DATA = (y1 & 0xFF);
 119              		.loc 1 52 0
 120 0024 C9B2     		uxtb	r1, r1	@ D.7478, y1
 121              	.LVL2:
  53:./drivers/display/ili_9341.c **** 	LCD_DATA = (y2 >> 8);
 122              		.loc 1 53 0
 123 0026 C3F30F22 		ubfx	r2, r3, #8, #16	@ D.7478, y2,,
  54:./drivers/display/ili_9341.c **** 	LCD_DATA = (y2 & 0xFF);
 124              		.loc 1 54 0
 125 002a DBB2     		uxtb	r3, r3	@ D.7478, y2
 126              	.LVL3:
  52:./drivers/display/ili_9341.c **** 	LCD_DATA = (y1 & 0xFF);
 127              		.loc 1 52 0
 128 002c 2180     		strh	r1, [r4]	@ movhi	@ D.7478, MEM[(volatile short unsigned int *)1610743808B]
  53:./drivers/display/ili_9341.c **** 	LCD_DATA = (y2 >> 8);
 129              		.loc 1 53 0
 130 002e 2280     		strh	r2, [r4]	@ movhi	@ D.7478, MEM[(volatile short unsigned int *)1610743808B]
 131              		.loc 1 54 0
 132 0030 2380     		strh	r3, [r4]	@ movhi	@ D.7478, MEM[(volatile short unsigned int *)1610743808B]
 133 0032 70BD     		pop	{r4, r5, r6, pc}	@
 134              	.L3:
 135              		.align	2
 136              	.L2:
 137 0034 00000260 		.word	1610743808
 138              		.cfi_endproc
 139              	.LFE123:
 140              		.size	set_tft_window, .-set_tft_window
 141              		.section	.text.tft_fill_rect,"ax",%progbits
 142              		.align	1
 143              		.global	tft_fill_rect
 144              		.thumb
 145              		.thumb_func
 146              		.type	tft_fill_rect, %function
 147              	tft_fill_rect:
 148              	.LFB124:
  55:./drivers/display/ili_9341.c **** 
  56:./drivers/display/ili_9341.c **** }
  57:./drivers/display/ili_9341.c **** 
  58:./drivers/display/ili_9341.c **** void tft_fill_rect(uint16_t x, uint16_t y, uint16_t w, uint16_t h, uint16_t color) {
 149              		.loc 1 58 0
 150              		.cfi_startproc
 151              		@ args = 4, pretend = 0, frame = 0
 152              		@ frame_needed = 0, uses_anonymous_args = 0
 153              	.LVL4:
 154 0000 70B5     		push	{r4, r5, r6, lr}	@
 155              		.cfi_def_cfa_offset 16
 156              		.cfi_offset 4, -16
 157              		.cfi_offset 5, -12
 158              		.cfi_offset 6, -8
 159              		.cfi_offset 14, -4
 160 0002 451E     		subs	r5, r0, #1	@ tmp129, x,
  59:./drivers/display/ili_9341.c **** 	uint32_t pixels;
  60:./drivers/display/ili_9341.c **** 	pixels = w * h;
 161              		.loc 1 60 0
 162 0004 03FB02F4 		mul	r4, r3, r2	@ pixels, h, w
ARM GAS  C:\cygwin\tmp\cc1sO8qW.s 			page 5


 163              	.LVL5:
  61:./drivers/display/ili_9341.c **** 	set_tft_window(x, y, (x + w - 1), (y + h - 1));
 164              		.loc 1 61 0
 165 0008 2A44     		add	r2, r2, r5	@ tmp131, tmp129
 166              	.LVL6:
 167 000a 4D1E     		subs	r5, r1, #1	@ tmp133, y,
 168 000c 2B44     		add	r3, r3, r5	@ tmp135, tmp133
 169              	.LVL7:
 170 000e 12B2     		sxth	r2, r2	@, tmp131
 171 0010 1BB2     		sxth	r3, r3	@, tmp135
 172 0012 00B2     		sxth	r0, r0	@, x
 173 0014 09B2     		sxth	r1, r1	@, y
  58:./drivers/display/ili_9341.c **** 	uint32_t pixels;
 174              		.loc 1 58 0
 175 0016 BDF81060 		ldrh	r6, [sp, #16]	@ color, color
 176              		.loc 1 61 0
 177 001a FFF7FEFF 		bl	set_tft_window	@
 178              	.LVL8:
  62:./drivers/display/ili_9341.c **** 	LCD_REG = MEMORY_WRITE;
 179              		.loc 1 62 0
 180 001e 4FF0C043 		mov	r3, #1610612736	@ tmp137,
 181 0022 2C22     		movs	r2, #44	@ tmp139,
 182 0024 1A80     		strh	r2, [r3]	@ movhi	@ tmp139, MEM[(volatile short unsigned int *)1610612736B]
 183              	.LVL9:
 184              	.L5:
  63:./drivers/display/ili_9341.c **** 	while (pixels--)
 185              		.loc 1 63 0
 186 0026 14F1FF34 		adds	r4, r4, #-1	@ pixels, pixels,
 187              	.LVL10:
 188 002a 02D3     		bcc	.L8	@,
  64:./drivers/display/ili_9341.c **** 		LCD_DATA = color;
 189              		.loc 1 64 0
 190 002c 014B     		ldr	r3, .L9	@ tmp140,
 191 002e 1E80     		strh	r6, [r3]	@ movhi	@ color, MEM[(volatile short unsigned int *)1610743808B]
 192 0030 F9E7     		b	.L5	@
 193              	.L8:
  65:./drivers/display/ili_9341.c **** }
 194              		.loc 1 65 0
 195 0032 70BD     		pop	{r4, r5, r6, pc}	@
 196              	.LVL11:
 197              	.L10:
 198              		.align	2
 199              	.L9:
 200 0034 00000260 		.word	1610743808
 201              		.cfi_endproc
 202              	.LFE124:
 203              		.size	tft_fill_rect, .-tft_fill_rect
 204              		.section	.text.tft_write_cmd,"ax",%progbits
 205              		.align	1
 206              		.global	tft_write_cmd
 207              		.thumb
 208              		.thumb_func
 209              		.type	tft_write_cmd, %function
 210              	tft_write_cmd:
 211              	.LFB125:
  66:./drivers/display/ili_9341.c **** 
  67:./drivers/display/ili_9341.c **** void tft_write_cmd (uint8_t cmd, uint16_t value) {
ARM GAS  C:\cygwin\tmp\cc1sO8qW.s 			page 6


 212              		.loc 1 67 0
 213              		.cfi_startproc
 214              		@ args = 0, pretend = 0, frame = 0
 215              		@ frame_needed = 0, uses_anonymous_args = 0
 216              		@ link register save eliminated.
 217              	.LVL12:
  68:./drivers/display/ili_9341.c **** 	LCD_REG = cmd;
 218              		.loc 1 68 0
 219 0000 4FF0C043 		mov	r3, #1610612736	@ tmp113,
 220 0004 1880     		strh	r0, [r3]	@ movhi	@ D.7496, MEM[(volatile short unsigned int *)1610612736B]
  69:./drivers/display/ili_9341.c **** 	LCD_DATA = value;
 221              		.loc 1 69 0
 222 0006 03F50033 		add	r3, r3, #131072	@ tmp115, tmp115,
 223 000a 1980     		strh	r1, [r3]	@ movhi	@ value, MEM[(volatile short unsigned int *)1610743808B]
 224 000c 7047     		bx	lr	@
 225              		.cfi_endproc
 226              	.LFE125:
 227              		.size	tft_write_cmd, .-tft_write_cmd
 228              		.section	.text.tft_read_reg,"ax",%progbits
 229              		.align	1
 230              		.global	tft_read_reg
 231              		.thumb
 232              		.thumb_func
 233              		.type	tft_read_reg, %function
 234              	tft_read_reg:
 235              	.LFB126:
  70:./drivers/display/ili_9341.c **** }
  71:./drivers/display/ili_9341.c **** 
  72:./drivers/display/ili_9341.c **** uint16_t tft_read_reg(uint8_t reg){
 236              		.loc 1 72 0
 237              		.cfi_startproc
 238              		@ args = 0, pretend = 0, frame = 0
 239              		@ frame_needed = 0, uses_anonymous_args = 0
 240              		@ link register save eliminated.
 241              	.LVL13:
  73:./drivers/display/ili_9341.c **** 	LCD_REG = reg;
 242              		.loc 1 73 0
 243 0000 4FF0C043 		mov	r3, #1610612736	@ tmp114,
 244 0004 1880     		strh	r0, [r3]	@ movhi	@ D.7499, MEM[(volatile short unsigned int *)1610612736B]
  74:./drivers/display/ili_9341.c **** 	return LCD_DATA;
 245              		.loc 1 74 0
 246 0006 03F50033 		add	r3, r3, #131072	@ tmp116, tmp116,
 247 000a 1888     		ldrh	r0, [r3]	@, MEM[(volatile short unsigned int *)1610743808B]
 248              	.LVL14:
  75:./drivers/display/ili_9341.c **** }
 249              		.loc 1 75 0
 250 000c 80B2     		uxth	r0, r0	@, MEM[(volatile short unsigned int *)1610743808B]
 251 000e 7047     		bx	lr	@
 252              		.cfi_endproc
 253              	.LFE126:
 254              		.size	tft_read_reg, .-tft_read_reg
 255              		.section	.text.tft_draw_pixel,"ax",%progbits
 256              		.align	1
 257              		.global	tft_draw_pixel
 258              		.thumb
 259              		.thumb_func
 260              		.type	tft_draw_pixel, %function
ARM GAS  C:\cygwin\tmp\cc1sO8qW.s 			page 7


 261              	tft_draw_pixel:
 262              	.LFB127:
  76:./drivers/display/ili_9341.c **** 
  77:./drivers/display/ili_9341.c **** void tft_draw_pixel(uint16_t x, uint16_t y, uint16_t color) {
 263              		.loc 1 77 0
 264              		.cfi_startproc
 265              		@ args = 0, pretend = 0, frame = 0
 266              		@ frame_needed = 0, uses_anonymous_args = 0
 267              	.LVL15:
  78:./drivers/display/ili_9341.c **** 	if ((x>TFT_WIDTH) || (y>TFT_HEIGHT)) {
 268              		.loc 1 78 0
 269 0000 EF28     		cmp	r0, #239	@ x,
  77:./drivers/display/ili_9341.c **** 	if ((x>TFT_WIDTH) || (y>TFT_HEIGHT)) {
 270              		.loc 1 77 0
 271 0002 10B5     		push	{r4, lr}	@
 272              		.cfi_def_cfa_offset 8
 273              		.cfi_offset 4, -8
 274              		.cfi_offset 14, -4
  77:./drivers/display/ili_9341.c **** 	if ((x>TFT_WIDTH) || (y>TFT_HEIGHT)) {
 275              		.loc 1 77 0
 276 0004 1446     		mov	r4, r2	@ color, color
 277              		.loc 1 78 0
 278 0006 10D8     		bhi	.L13	@,
 279              		.loc 1 78 0 is_stmt 0 discriminator 1
 280 0008 B1F5A07F 		cmp	r1, #320	@ y,
 281 000c 0DD2     		bcs	.L13	@,
  79:./drivers/display/ili_9341.c **** 		return;
  80:./drivers/display/ili_9341.c **** 	}
  81:./drivers/display/ili_9341.c **** 	set_tft_window(x, y, TFT_WIDTH, TFT_HEIGHT);
 282              		.loc 1 81 0 is_stmt 1
 283 000e EF22     		movs	r2, #239	@,
 284              	.LVL16:
 285 0010 40F23F13 		movw	r3, #319	@,
 286 0014 00B2     		sxth	r0, r0	@, x
 287 0016 09B2     		sxth	r1, r1	@, y
 288 0018 FFF7FEFF 		bl	set_tft_window	@
 289              	.LVL17:
  82:./drivers/display/ili_9341.c **** 	LCD_REG = MEMORY_WRITE;
 290              		.loc 1 82 0
 291 001c 4FF0C043 		mov	r3, #1610612736	@ tmp117,
 292 0020 2C22     		movs	r2, #44	@ tmp119,
 293 0022 1A80     		strh	r2, [r3]	@ movhi	@ tmp119, MEM[(volatile short unsigned int *)1610612736B]
  83:./drivers/display/ili_9341.c **** 	LCD_DATA = color;
 294              		.loc 1 83 0
 295 0024 03F50033 		add	r3, r3, #131072	@ tmp120, tmp120,
 296 0028 1C80     		strh	r4, [r3]	@ movhi	@ color, MEM[(volatile short unsigned int *)1610743808B]
 297              	.L13:
 298 002a 10BD     		pop	{r4, pc}	@
 299              		.cfi_endproc
 300              	.LFE127:
 301              		.size	tft_draw_pixel, .-tft_draw_pixel
 302              		.section	.text.tft_delay,"ax",%progbits
 303              		.align	1
 304              		.global	tft_delay
 305              		.thumb
 306              		.thumb_func
 307              		.type	tft_delay, %function
ARM GAS  C:\cygwin\tmp\cc1sO8qW.s 			page 8


 308              	tft_delay:
 309              	.LFB129:
  84:./drivers/display/ili_9341.c **** }
  85:./drivers/display/ili_9341.c **** 
  86:./drivers/display/ili_9341.c **** 
  87:./drivers/display/ili_9341.c **** void init_ili9341(void) {
  88:./drivers/display/ili_9341.c **** 
  89:./drivers/display/ili_9341.c **** 	LCD_REG = 0x11;
  90:./drivers/display/ili_9341.c **** 	tft_delay(50000);
  91:./drivers/display/ili_9341.c **** 
  92:./drivers/display/ili_9341.c ****  	LCD_REG  = 0xCF;
  93:./drivers/display/ili_9341.c **** 	LCD_DATA = 0x00;
  94:./drivers/display/ili_9341.c **** 	LCD_DATA = 0xc3;
  95:./drivers/display/ili_9341.c **** 	LCD_DATA = 0X30;
  96:./drivers/display/ili_9341.c **** 
  97:./drivers/display/ili_9341.c ****  	LCD_REG  = 0xED;
  98:./drivers/display/ili_9341.c **** 	LCD_DATA = 0x64;
  99:./drivers/display/ili_9341.c **** 	LCD_DATA = 0x03;
 100:./drivers/display/ili_9341.c **** 	LCD_DATA = 0X12;
 101:./drivers/display/ili_9341.c **** 	LCD_DATA = 0X81;
 102:./drivers/display/ili_9341.c **** 
 103:./drivers/display/ili_9341.c ****  	LCD_REG  = 0xE8;
 104:./drivers/display/ili_9341.c **** 	LCD_DATA = 0x85;
 105:./drivers/display/ili_9341.c **** 	LCD_DATA = 0x10;
 106:./drivers/display/ili_9341.c **** 	LCD_DATA = 0x79;
 107:./drivers/display/ili_9341.c **** 
 108:./drivers/display/ili_9341.c ****  	LCD_REG  = 0xCB;
 109:./drivers/display/ili_9341.c **** 	LCD_DATA = 0x39;
 110:./drivers/display/ili_9341.c **** 	LCD_DATA = 0x2C;
 111:./drivers/display/ili_9341.c **** 	LCD_DATA = 0x00;
 112:./drivers/display/ili_9341.c **** 	LCD_DATA = 0x34;
 113:./drivers/display/ili_9341.c **** 	LCD_DATA = 0x02;
 114:./drivers/display/ili_9341.c **** 
 115:./drivers/display/ili_9341.c ****  	LCD_REG  = 0xF7;
 116:./drivers/display/ili_9341.c **** 	LCD_DATA = 0x20;
 117:./drivers/display/ili_9341.c **** 
 118:./drivers/display/ili_9341.c ****  	LCD_REG  = 0xEA;
 119:./drivers/display/ili_9341.c **** 	LCD_DATA = 0x00;
 120:./drivers/display/ili_9341.c **** 	LCD_DATA = 0x00;
 121:./drivers/display/ili_9341.c **** 
 122:./drivers/display/ili_9341.c ****  	LCD_REG  = 0xC0;    //Power control
 123:./drivers/display/ili_9341.c **** 	LCD_DATA = 0x22;   //VRH[5:0]
 124:./drivers/display/ili_9341.c **** 
 125:./drivers/display/ili_9341.c ****  	LCD_REG  = 0xC1;    //Power control
 126:./drivers/display/ili_9341.c **** 	LCD_DATA = 0x11;   //SAP[2:0];BT[3:0]
 127:./drivers/display/ili_9341.c **** 
 128:./drivers/display/ili_9341.c ****  	LCD_REG  = 0xC5;    //VCM control
 129:./drivers/display/ili_9341.c **** 	LCD_DATA = 0x3d;
 130:./drivers/display/ili_9341.c ****     //LCD_DataWrite_ILI9341(0x30);
 131:./drivers/display/ili_9341.c **** 	LCD_DATA = 0x20;
 132:./drivers/display/ili_9341.c **** 
 133:./drivers/display/ili_9341.c ****  	LCD_REG = 0xC7;    //VCM control2
 134:./drivers/display/ili_9341.c ****     //LCD_DataWrite_ILI9341(0xBD);
 135:./drivers/display/ili_9341.c **** 	LCD_DATA = 0xAA; //0xB0
 136:./drivers/display/ili_9341.c **** 
 137:./drivers/display/ili_9341.c ****  	LCD_REG  = 0x36;    // Memory Access Control
 138:./drivers/display/ili_9341.c **** 	LCD_DATA = 0x88;
ARM GAS  C:\cygwin\tmp\cc1sO8qW.s 			page 9


 139:./drivers/display/ili_9341.c **** 
 140:./drivers/display/ili_9341.c ****  	LCD_REG  = 0x3A;
 141:./drivers/display/ili_9341.c **** 	LCD_DATA = 0x55;
 142:./drivers/display/ili_9341.c **** 
 143:./drivers/display/ili_9341.c ****  	LCD_REG  = 0xB1;
 144:./drivers/display/ili_9341.c **** 	LCD_DATA = 0x00;
 145:./drivers/display/ili_9341.c **** 	LCD_DATA = 0x13;
 146:./drivers/display/ili_9341.c **** 
 147:./drivers/display/ili_9341.c ****  	LCD_REG  = 0xB6;    // Display Function Control
 148:./drivers/display/ili_9341.c **** 	LCD_DATA = 0x0A;
 149:./drivers/display/ili_9341.c **** 	LCD_DATA = 0xA2;
 150:./drivers/display/ili_9341.c **** 
 151:./drivers/display/ili_9341.c ****  	LCD_REG  = 0xF6;
 152:./drivers/display/ili_9341.c **** 	LCD_DATA = 0x01;
 153:./drivers/display/ili_9341.c **** 	LCD_DATA = 0x30;
 154:./drivers/display/ili_9341.c **** 
 155:./drivers/display/ili_9341.c ****  	LCD_REG  = 0xF2;    // 3Gamma Function Disable
 156:./drivers/display/ili_9341.c **** 	LCD_DATA = 0x00;
 157:./drivers/display/ili_9341.c **** 
 158:./drivers/display/ili_9341.c ****  	LCD_REG  = 0x26;    //Gamma curve selected
 159:./drivers/display/ili_9341.c **** 	LCD_DATA = 0x01;
 160:./drivers/display/ili_9341.c **** 
 161:./drivers/display/ili_9341.c ****  	LCD_REG  = 0xE0;    //Set Gamma
 162:./drivers/display/ili_9341.c **** 	LCD_DATA = 0x0F;
 163:./drivers/display/ili_9341.c **** 	LCD_DATA = 0x3F;
 164:./drivers/display/ili_9341.c **** 	LCD_DATA = 0x2F;
 165:./drivers/display/ili_9341.c **** 	LCD_DATA = 0x0C;
 166:./drivers/display/ili_9341.c **** 	LCD_DATA = 0x10;
 167:./drivers/display/ili_9341.c **** 	LCD_DATA = 0x0A;
 168:./drivers/display/ili_9341.c **** 	LCD_DATA = 0x53;
 169:./drivers/display/ili_9341.c **** 	LCD_DATA = 0XD5;
 170:./drivers/display/ili_9341.c **** 	LCD_DATA = 0x40;
 171:./drivers/display/ili_9341.c **** 	LCD_DATA = 0x0A;
 172:./drivers/display/ili_9341.c **** 	LCD_DATA = 0x13;
 173:./drivers/display/ili_9341.c **** 	LCD_DATA = 0x03;
 174:./drivers/display/ili_9341.c **** 	LCD_DATA = 0x08;
 175:./drivers/display/ili_9341.c **** 	LCD_DATA = 0x03;
 176:./drivers/display/ili_9341.c **** 	LCD_DATA = 0x00;
 177:./drivers/display/ili_9341.c **** 
 178:./drivers/display/ili_9341.c ****  	LCD_REG  = 0XE1;    //Set Gamma
 179:./drivers/display/ili_9341.c **** 	LCD_DATA = 0x00;
 180:./drivers/display/ili_9341.c **** 	LCD_DATA = 0x00;
 181:./drivers/display/ili_9341.c **** 	LCD_DATA = 0x10;
 182:./drivers/display/ili_9341.c **** 	LCD_DATA = 0x03;
 183:./drivers/display/ili_9341.c **** 	LCD_DATA = 0x0F;
 184:./drivers/display/ili_9341.c **** 	LCD_DATA = 0x05;
 185:./drivers/display/ili_9341.c **** 	LCD_DATA = 0x2C;
 186:./drivers/display/ili_9341.c **** 	LCD_DATA = 0xA2;
 187:./drivers/display/ili_9341.c **** 	LCD_DATA = 0x3F;
 188:./drivers/display/ili_9341.c **** 	LCD_DATA = 0x05;
 189:./drivers/display/ili_9341.c **** 	LCD_DATA = 0x0E;
 190:./drivers/display/ili_9341.c **** 	LCD_DATA = 0x0C;
 191:./drivers/display/ili_9341.c **** 	LCD_DATA = 0x37;
 192:./drivers/display/ili_9341.c **** 	LCD_DATA = 0x3C;
 193:./drivers/display/ili_9341.c **** 	LCD_DATA = 0x0F;
 194:./drivers/display/ili_9341.c **** 
 195:./drivers/display/ili_9341.c **** 	LCD_REG  = 0x11;    //Exit Sleep
ARM GAS  C:\cygwin\tmp\cc1sO8qW.s 			page 10


 196:./drivers/display/ili_9341.c **** 	tft_delay(50000);
 197:./drivers/display/ili_9341.c ****  	LCD_REG  = 0x29;    //Display on
 198:./drivers/display/ili_9341.c **** 	tft_delay(50000);
 199:./drivers/display/ili_9341.c **** 
 200:./drivers/display/ili_9341.c **** 
 201:./drivers/display/ili_9341.c **** 	/* INIT FOR NHD-2.4-240320SF-CTXI-F1
 202:./drivers/display/ili_9341.c **** 	// from NHD-2.4-240320SF-CTXI-F1.pdf
 203:./drivers/display/ili_9341.c **** 	LCD_REG = DISPLAY_OFF;
 204:./drivers/display/ili_9341.c **** 	LCD_REG = EXIT_SLEEP_MODE;
 205:./drivers/display/ili_9341.c **** 	LCD_DATA = 0x00;
 206:./drivers/display/ili_9341.c **** 	tft_delay(50000);
 207:./drivers/display/ili_9341.c **** 
 208:./drivers/display/ili_9341.c **** 	LCD_REG = POWER_CONTROL_A;
 209:./drivers/display/ili_9341.c **** 	LCD_DATA = 0x39; //always 0x39
 210:./drivers/display/ili_9341.c **** 	LCD_DATA = 0x2C; //always 0x2C
 211:./drivers/display/ili_9341.c **** 	LCD_DATA = 0x00; //always 0x00
 212:./drivers/display/ili_9341.c **** 	LCD_DATA = 0x34; //Vcore = 1.6V
 213:./drivers/display/ili_9341.c **** 	LCD_DATA = 0x02; //DDVDH = 5.6V
 214:./drivers/display/ili_9341.c **** 	tft_delay(50000);
 215:./drivers/display/ili_9341.c **** 
 216:./drivers/display/ili_9341.c **** 	LCD_REG = POWER_CONTROL_B;
 217:./drivers/display/ili_9341.c **** 	LCD_DATA = 0x00; //always 0x00
 218:./drivers/display/ili_9341.c **** 	LCD_DATA = 0x81; //PCEQ off
 219:./drivers/display/ili_9341.c **** 	LCD_DATA = 0x30; //ESD protection
 220:./drivers/display/ili_9341.c **** 	tft_delay(50000);
 221:./drivers/display/ili_9341.c **** 
 222:./drivers/display/ili_9341.c **** 	LCD_REG = DRIVER_TIMING_CTRL_A; //Driver timing control A
 223:./drivers/display/ili_9341.c **** 	LCD_DATA = 0x85; //non-overlap
 224:./drivers/display/ili_9341.c **** 	LCD_DATA = 0x01; //EQ timing
 225:./drivers/display/ili_9341.c **** 	LCD_DATA = 0x79; //Pre-charge timing
 226:./drivers/display/ili_9341.c **** 	tft_delay(50000);
 227:./drivers/display/ili_9341.c **** 
 228:./drivers/display/ili_9341.c **** 	LCD_REG = DRIVER_TIMING_CTRL_B; //Driver timing control B
 229:./drivers/display/ili_9341.c **** 	LCD_DATA = 0x00; //Gate driver timing
 230:./drivers/display/ili_9341.c **** 	LCD_DATA = 0x00; //always 0x00
 231:./drivers/display/ili_9341.c **** 	tft_delay(50000);
 232:./drivers/display/ili_9341.c **** 
 233:./drivers/display/ili_9341.c **** 	LCD_REG = POWER_ON_SEQUENCE_CONTROL; //Power-On sequence control
 234:./drivers/display/ili_9341.c **** 	LCD_DATA = 0x64; //soft start
 235:./drivers/display/ili_9341.c **** 	LCD_DATA = 0x03; //power on sequence
 236:./drivers/display/ili_9341.c **** 	LCD_DATA = 0x12; //power on sequence
 237:./drivers/display/ili_9341.c **** 	LCD_DATA = 0x81; //DDVDH enhance on
 238:./drivers/display/ili_9341.c **** 	tft_delay(50000);
 239:./drivers/display/ili_9341.c **** 
 240:./drivers/display/ili_9341.c **** 	LCD_REG = PUMP_RATIO_CONTROL; //Pump ratio control
 241:./drivers/display/ili_9341.c **** 	LCD_DATA = 0x20; //DDVDH=2xVCI
 242:./drivers/display/ili_9341.c **** 	tft_delay(50000);
 243:./drivers/display/ili_9341.c **** 
 244:./drivers/display/ili_9341.c **** 	LCD_REG = POWER_CONTROL_1; //power control 1
 245:./drivers/display/ili_9341.c **** 	LCD_DATA = 0x26;
 246:./drivers/display/ili_9341.c **** 	LCD_DATA = 0x04; //second parameter for ILI9340 (ignored by ILI9341)
 247:./drivers/display/ili_9341.c **** 	tft_delay(50000);
 248:./drivers/display/ili_9341.c **** 
 249:./drivers/display/ili_9341.c **** 	LCD_REG = POWER_CONTROL_2; //power control 2
 250:./drivers/display/ili_9341.c **** 	LCD_DATA = 0x11;
 251:./drivers/display/ili_9341.c **** 	tft_delay(50000);
 252:./drivers/display/ili_9341.c **** 
ARM GAS  C:\cygwin\tmp\cc1sO8qW.s 			page 11


 253:./drivers/display/ili_9341.c **** 	LCD_REG = VCOM_CONTROL_1; //VCOM control 1
 254:./drivers/display/ili_9341.c **** 	LCD_DATA = 0x35;
 255:./drivers/display/ili_9341.c **** 	LCD_DATA = 0x3E;
 256:./drivers/display/ili_9341.c **** 	tft_delay(50000);
 257:./drivers/display/ili_9341.c **** 
 258:./drivers/display/ili_9341.c **** 	LCD_REG = VCOM_CONTROL_2; //VCOM control 2
 259:./drivers/display/ili_9341.c **** 	LCD_DATA = 0xBE;
 260:./drivers/display/ili_9341.c **** 	tft_delay(50000);
 261:./drivers/display/ili_9341.c **** 
 262:./drivers/display/ili_9341.c **** 	// MADCTL
 263:./drivers/display/ili_9341.c **** 	LCD_REG = MEMORY_ACCESS_CONTROL; //memory access control = BGR
 264:./drivers/display/ili_9341.c **** 	*/
 265:./drivers/display/ili_9341.c **** 	/*
 266:./drivers/display/ili_9341.c **** 	 * 36h MADCTL (Memory Access Control)
 267:./drivers/display/ili_9341.c **** 	 * D7 D6 D5 D4  D3 D2 D1 D0 HEX
 268:./drivers/display/ili_9341.c **** 	 *  0  0  1  1   0  1  1  0 36h
 269:./drivers/display/ili_9341.c **** 	 * MY MX MV ML BGR MH  0  0 00
 270:./drivers/display/ili_9341.c **** 	 * MY -> Row address order
 271:./drivers/display/ili_9341.c **** 	 * MX -> Column address order
 272:./drivers/display/ili_9341.c **** 	 * MV -> Row/Column exchange
 273:./drivers/display/ili_9341.c **** 	 *
 274:./drivers/display/ili_9341.c **** 	 * LCD_DATA = 0x88;
 275:./drivers/display/ili_9341.c **** 	 *  +------+
 276:./drivers/display/ili_9341.c **** 	 *  |      |
 277:./drivers/display/ili_9341.c **** 	 *  |      |
 278:./drivers/display/ili_9341.c **** 	 * 0+------+
 279:./drivers/display/ili_9341.c **** 	 *  0|TAIL|
 280:./drivers/display/ili_9341.c **** 	 * Linksonder naar boven
 281:./drivers/display/ili_9341.c **** 	 *
 282:./drivers/display/ili_9341.c **** 	 * LCD_DATA = 0x48;
 283:./drivers/display/ili_9341.c **** 	 *         0
 284:./drivers/display/ili_9341.c **** 	 *  +------+0
 285:./drivers/display/ili_9341.c **** 	 *  |      |
 286:./drivers/display/ili_9341.c **** 	 *  |      |
 287:./drivers/display/ili_9341.c **** 	 *  +------+
 288:./drivers/display/ili_9341.c **** 	 *   |TAIL|
 289:./drivers/display/ili_9341.c **** 	 * Rechts boven naar beneden
 290:./drivers/display/ili_9341.c **** 	 *
 291:./drivers/display/ili_9341.c **** 	 * LCD_DATA = 0x08;
 292:./drivers/display/ili_9341.c **** 	 *  0
 293:./drivers/display/ili_9341.c **** 	 * 0+------+
 294:./drivers/display/ili_9341.c **** 	 *  |      |
 295:./drivers/display/ili_9341.c **** 	 *  |      |
 296:./drivers/display/ili_9341.c **** 	 *  +------+
 297:./drivers/display/ili_9341.c **** 	 *   |TAIL|
 298:./drivers/display/ili_9341.c **** 	 *  Links boven naar beneden
 299:./drivers/display/ili_9341.c **** 	 */
 300:./drivers/display/ili_9341.c **** 	/*
 301:./drivers/display/ili_9341.c **** 	LCD_DATA = ILI9341_MADCTL_BGR | ILI9341_MADCTL_ML; // BGR order
 302:./drivers/display/ili_9341.c **** 
 303:./drivers/display/ili_9341.c **** 	tft_delay(50000);
 304:./drivers/display/ili_9341.c **** 
 305:./drivers/display/ili_9341.c **** 	LCD_REG = FRAME_RATE_CONTROL; //frame rate control
 306:./drivers/display/ili_9341.c **** 	LCD_DATA = 0x00;
 307:./drivers/display/ili_9341.c **** 	LCD_DATA = 0x10;
 308:./drivers/display/ili_9341.c **** 	tft_delay(50000);
 309:./drivers/display/ili_9341.c **** 
ARM GAS  C:\cygwin\tmp\cc1sO8qW.s 			page 12


 310:./drivers/display/ili_9341.c **** 	// adafruit based
 311:./drivers/display/ili_9341.c **** 	LCD_REG = ENTRY_MODE_SET;
 312:./drivers/display/ili_9341.c **** 	LCD_DATA = 0x07;
 313:./drivers/display/ili_9341.c **** 	// end adafruit added
 314:./drivers/display/ili_9341.c **** 	tft_delay(50000);
 315:./drivers/display/ili_9341.c **** 
 316:./drivers/display/ili_9341.c **** 	LCD_REG = DISPLAY_FUNCTION_CONTROL; //display function control
 317:./drivers/display/ili_9341.c **** 	LCD_DATA = 0x0A;
 318:./drivers/display/ili_9341.c **** 	LCD_DATA = 0xA2;
 319:./drivers/display/ili_9341.c **** 	tft_delay(50000);
 320:./drivers/display/ili_9341.c **** 
 321:./drivers/display/ili_9341.c **** 	LCD_REG = PIXEL_FORMAT_SET; //pixel format = 16 bit per pixel
 322:./drivers/display/ili_9341.c **** 	LCD_DATA = 0x55;
 323:./drivers/display/ili_9341.c **** 	tft_delay(50000);
 324:./drivers/display/ili_9341.c **** 
 325:./drivers/display/ili_9341.c **** 	LCD_REG = 0x00F2; //3G Gamma control
 326:./drivers/display/ili_9341.c **** 	LCD_DATA = 0x02; //off
 327:./drivers/display/ili_9341.c **** 	tft_delay(50000);
 328:./drivers/display/ili_9341.c **** 
 329:./drivers/display/ili_9341.c **** 	LCD_REG = GAMMA_SET; //Gamma curve 3
 330:./drivers/display/ili_9341.c **** 	LCD_DATA = 0x01;
 331:./drivers/display/ili_9341.c **** 	tft_delay(50000);
 332:./drivers/display/ili_9341.c **** 
 333:./drivers/display/ili_9341.c **** 	LCD_REG = COLUMN_ADDRESS_SET; //column address set
 334:./drivers/display/ili_9341.c **** 	LCD_DATA = 0x00;
 335:./drivers/display/ili_9341.c **** 	LCD_DATA = 0x00; //start 0x0000
 336:./drivers/display/ili_9341.c **** 	LCD_DATA = 0x00;
 337:./drivers/display/ili_9341.c **** 	LCD_DATA = 0xEF; //end 0x00EF = 239
 338:./drivers/display/ili_9341.c **** 	tft_delay(50000);
 339:./drivers/display/ili_9341.c **** 
 340:./drivers/display/ili_9341.c **** 	LCD_REG = PAGE_ADDRESS_SET; //page address set
 341:./drivers/display/ili_9341.c **** 	LCD_DATA = 0x00;
 342:./drivers/display/ili_9341.c **** 	LCD_DATA = 0x00; //start 0x0000
 343:./drivers/display/ili_9341.c **** 	LCD_DATA = 0x01;
 344:./drivers/display/ili_9341.c **** 	LCD_DATA = 0x3F; //end 0x013F 319
 345:./drivers/display/ili_9341.c **** 	tft_delay(50000);
 346:./drivers/display/ili_9341.c **** 
 347:./drivers/display/ili_9341.c **** 	LCD_REG = DISPLAY_ON;
 348:./drivers/display/ili_9341.c **** 
 349:./drivers/display/ili_9341.c **** 	tft_delay(50000);
 350:./drivers/display/ili_9341.c **** 
 351:./drivers/display/ili_9341.c **** 	LCD_REG = MEMORY_WRITE;
 352:./drivers/display/ili_9341.c **** 	*/
 353:./drivers/display/ili_9341.c **** 
 354:./drivers/display/ili_9341.c **** 
 355:./drivers/display/ili_9341.c **** }
 356:./drivers/display/ili_9341.c **** 
 357:./drivers/display/ili_9341.c **** /*void init_tft_io(void) {
 358:./drivers/display/ili_9341.c **** 	 // TODO -> PUT RESET ON GPIO PIN SO WE CAN RESET DISPLAY
 359:./drivers/display/ili_9341.c **** 	 // now reset is on NRST pin on the STM32F4 discovery 
 360:./drivers/display/ili_9341.c **** 	 GPIO_InitTypeDef GPIO_InitStructure;
 361:./drivers/display/ili_9341.c ****   // Clock Enable Port-D and Port-E
 362:./drivers/display/ili_9341.c **** 	RCC_AHB1PeriphClockCmd(RCC_AHB1Periph_GPIOD | RCC_AHB1Periph_GPIOE, ENABLE);
 363:./drivers/display/ili_9341.c **** 	// PORTD setup -> alternate function
 364:./drivers/display/ili_9341.c ****   GPIO_PinAFConfig(GPIOD, GPIO_PinSource0,  GPIO_AF_FSMC); // PD0=FSMC_D2   -> DB2
 365:./drivers/display/ili_9341.c ****   GPIO_PinAFConfig(GPIOD, GPIO_PinSource1,  GPIO_AF_FSMC); // PD1=FSMC_D3   -> DB3
 366:./drivers/display/ili_9341.c ****   GPIO_PinAFConfig(GPIOD, GPIO_PinSource4,  GPIO_AF_FSMC); // PD4=FSMC_NOE  -> RD
ARM GAS  C:\cygwin\tmp\cc1sO8qW.s 			page 13


 367:./drivers/display/ili_9341.c ****   GPIO_PinAFConfig(GPIOD, GPIO_PinSource5,  GPIO_AF_FSMC); // PD5=FSMC_NWE  -> WR
 368:./drivers/display/ili_9341.c ****   GPIO_PinAFConfig(GPIOD, GPIO_PinSource7,  GPIO_AF_FSMC); // PD7=FSMC_NE1  -> CS
 369:./drivers/display/ili_9341.c ****   GPIO_PinAFConfig(GPIOD, GPIO_PinSource8,  GPIO_AF_FSMC); // PD8=FSMC_D13  -> DB15
 370:./drivers/display/ili_9341.c ****   GPIO_PinAFConfig(GPIOD, GPIO_PinSource9,  GPIO_AF_FSMC); // PD9=FSMC_D14  -> DB16
 371:./drivers/display/ili_9341.c ****   GPIO_PinAFConfig(GPIOD, GPIO_PinSource10, GPIO_AF_FSMC); // PD10=FSMC_D15 -> DB17
 372:./drivers/display/ili_9341.c ****   GPIO_PinAFConfig(GPIOD, GPIO_PinSource11, GPIO_AF_FSMC); // PD11=FSMC_A16 -> RS
 373:./drivers/display/ili_9341.c ****   GPIO_PinAFConfig(GPIOD, GPIO_PinSource14, GPIO_AF_FSMC); // PD14=FSMC_D0  -> DB0
 374:./drivers/display/ili_9341.c ****   GPIO_PinAFConfig(GPIOD, GPIO_PinSource15, GPIO_AF_FSMC); // PD15=FSMC_D1  -> DB1
 375:./drivers/display/ili_9341.c ****   // Set up PORT D
 376:./drivers/display/ili_9341.c ****   GPIO_InitStructure.GPIO_Pin = GPIO_Pin_0	| GPIO_Pin_1 	| GPIO_Pin_4	|
 377:./drivers/display/ili_9341.c ****   															GPIO_Pin_5 	| GPIO_Pin_7	| GPIO_Pin_8 	|
 378:./drivers/display/ili_9341.c ****   															GPIO_Pin_9 	| GPIO_Pin_10 | GPIO_Pin_11 |
 379:./drivers/display/ili_9341.c ****   															GPIO_Pin_14 | GPIO_Pin_15;
 380:./drivers/display/ili_9341.c ****   GPIO_InitStructure.GPIO_Mode = GPIO_Mode_AF;
 381:./drivers/display/ili_9341.c ****   GPIO_InitStructure.GPIO_Speed = GPIO_Speed_100MHz;
 382:./drivers/display/ili_9341.c ****   GPIO_InitStructure.GPIO_OType = GPIO_OType_PP;
 383:./drivers/display/ili_9341.c ****   GPIO_InitStructure.GPIO_PuPd  = GPIO_PuPd_NOPULL;
 384:./drivers/display/ili_9341.c ****   // Write port D
 385:./drivers/display/ili_9341.c ****   GPIO_Init(GPIOD, &GPIO_InitStructure);
 386:./drivers/display/ili_9341.c **** 	// PORTE setup -> alternate function
 387:./drivers/display/ili_9341.c ****   GPIO_PinAFConfig(GPIOE, GPIO_PinSource7,  GPIO_AF_FSMC); // PE7=FSMC_D4   -> DB4
 388:./drivers/display/ili_9341.c ****   GPIO_PinAFConfig(GPIOE, GPIO_PinSource8,  GPIO_AF_FSMC); // PE8=FSMC_D5   -> DB5
 389:./drivers/display/ili_9341.c ****   GPIO_PinAFConfig(GPIOE, GPIO_PinSource9,  GPIO_AF_FSMC); // PE9=FSMC_D6   -> DB6
 390:./drivers/display/ili_9341.c ****   GPIO_PinAFConfig(GPIOE, GPIO_PinSource10, GPIO_AF_FSMC); // PE10=FSMC_D7  -> DB7
 391:./drivers/display/ili_9341.c ****   GPIO_PinAFConfig(GPIOE, GPIO_PinSource11, GPIO_AF_FSMC); // PE11=FSMC_D8  -> DB10
 392:./drivers/display/ili_9341.c ****   GPIO_PinAFConfig(GPIOE, GPIO_PinSource12, GPIO_AF_FSMC); // PE12=FSMC_D9  -> DB11
 393:./drivers/display/ili_9341.c ****   GPIO_PinAFConfig(GPIOE, GPIO_PinSource13, GPIO_AF_FSMC); // PE13=FSMC_D10 -> DB12
 394:./drivers/display/ili_9341.c ****   GPIO_PinAFConfig(GPIOE, GPIO_PinSource14, GPIO_AF_FSMC); // PE14=FSMC_D11 -> DB13
 395:./drivers/display/ili_9341.c ****   GPIO_PinAFConfig(GPIOE, GPIO_PinSource15, GPIO_AF_FSMC); // PE15=FSMC_D12 -> DB14
 396:./drivers/display/ili_9341.c ****   // Set up PORT E
 397:./drivers/display/ili_9341.c ****   GPIO_InitStructure.GPIO_Pin = GPIO_Pin_7 	| GPIO_Pin_8 	| GPIO_Pin_9 	|
 398:./drivers/display/ili_9341.c ****   															GPIO_Pin_10 | GPIO_Pin_11 | GPIO_Pin_12 |
 399:./drivers/display/ili_9341.c ****   															GPIO_Pin_13 | GPIO_Pin_14 | GPIO_Pin_15;
 400:./drivers/display/ili_9341.c **** 	GPIO_InitStructure.GPIO_Mode = GPIO_Mode_AF;
 401:./drivers/display/ili_9341.c **** 	GPIO_InitStructure.GPIO_Speed = GPIO_Speed_100MHz;
 402:./drivers/display/ili_9341.c **** 	GPIO_InitStructure.GPIO_OType = GPIO_OType_PP;
 403:./drivers/display/ili_9341.c **** 	GPIO_InitStructure.GPIO_PuPd  = GPIO_PuPd_NOPULL;
 404:./drivers/display/ili_9341.c **** 	// Write PORT E
 405:./drivers/display/ili_9341.c **** 	GPIO_Init(GPIOE, &GPIO_InitStructure);
 406:./drivers/display/ili_9341.c **** }*/
 407:./drivers/display/ili_9341.c **** 
 408:./drivers/display/ili_9341.c **** /*void init_tft_FSMC(void) {
 409:./drivers/display/ili_9341.c ****   FSMC_NORSRAMInitTypeDef        FSMC_NORSRAMInitStructure;
 410:./drivers/display/ili_9341.c ****   FSMC_NORSRAMTimingInitTypeDef  FSMC_NORSRAMTimingInitStructure;
 411:./drivers/display/ili_9341.c ****   // Clock Enable to FSMC
 412:./drivers/display/ili_9341.c ****   RCC_AHB3PeriphClockCmd(RCC_AHB3Periph_FSMC, ENABLE);
 413:./drivers/display/ili_9341.c ****   // Timing structure
 414:./drivers/display/ili_9341.c ****   FSMC_NORSRAMTimingInitStructure.FSMC_AddressSetupTime 			= LCD_ILI9341_FSMC_AST;
 415:./drivers/display/ili_9341.c ****   FSMC_NORSRAMTimingInitStructure.FSMC_AddressHoldTime 				= 0x0000;
 416:./drivers/display/ili_9341.c ****   FSMC_NORSRAMTimingInitStructure.FSMC_DataSetupTime 					= LCD_ILI9341_FSMC_DST;
 417:./drivers/display/ili_9341.c ****   FSMC_NORSRAMTimingInitStructure.FSMC_BusTurnAroundDuration 	= 0x0000;
 418:./drivers/display/ili_9341.c ****   FSMC_NORSRAMTimingInitStructure.FSMC_CLKDivision 						= 0x0000;
 419:./drivers/display/ili_9341.c ****   FSMC_NORSRAMTimingInitStructure.FSMC_DataLatency 						= 0x0000;
 420:./drivers/display/ili_9341.c ****   FSMC_NORSRAMTimingInitStructure.FSMC_AccessMode 						= FSMC_AccessMode_A;
 421:./drivers/display/ili_9341.c **** 
 422:./drivers/display/ili_9341.c ****   // Bank-1 / PSRAM-1
 423:./drivers/display/ili_9341.c ****   FSMC_NORSRAMInitStructure.FSMC_Bank 												= FSMC_Bank1_NORSRAM1;
ARM GAS  C:\cygwin\tmp\cc1sO8qW.s 			page 14


 424:./drivers/display/ili_9341.c ****   FSMC_NORSRAMInitStructure.FSMC_DataAddressMux 							= FSMC_DataAddressMux_Disable;
 425:./drivers/display/ili_9341.c ****   // FSMC_NORSRAMInitStructure.FSMC_MemoryType = FSMC_MemoryType_NOR;
 426:./drivers/display/ili_9341.c ****   FSMC_NORSRAMInitStructure.FSMC_MemoryType 									= FSMC_MemoryType_SRAM;
 427:./drivers/display/ili_9341.c ****   FSMC_NORSRAMInitStructure.FSMC_MemoryDataWidth 							= FSMC_MemoryDataWidth_16b;
 428:./drivers/display/ili_9341.c ****   FSMC_NORSRAMInitStructure.FSMC_BurstAccessMode 							= FSMC_BurstAccessMode_Disable;
 429:./drivers/display/ili_9341.c ****   FSMC_NORSRAMInitStructure.FSMC_AsynchronousWait 						= FSMC_AsynchronousWait_Disable;
 430:./drivers/display/ili_9341.c ****   FSMC_NORSRAMInitStructure.FSMC_WaitSignalPolarity 					= FSMC_WaitSignalPolarity_Low;
 431:./drivers/display/ili_9341.c ****   FSMC_NORSRAMInitStructure.FSMC_WrapMode 										= FSMC_WrapMode_Disable;
 432:./drivers/display/ili_9341.c ****   FSMC_NORSRAMInitStructure.FSMC_WaitSignalActive 						= FSMC_WaitSignalActive_BeforeWaitState;
 433:./drivers/display/ili_9341.c ****   FSMC_NORSRAMInitStructure.FSMC_WriteOperation 							= FSMC_WriteOperation_Enable;
 434:./drivers/display/ili_9341.c ****   FSMC_NORSRAMInitStructure.FSMC_WaitSignal 									= FSMC_WaitSignal_Disable;
 435:./drivers/display/ili_9341.c ****   FSMC_NORSRAMInitStructure.FSMC_ExtendedMode 								= FSMC_ExtendedMode_Disable;
 436:./drivers/display/ili_9341.c ****   FSMC_NORSRAMInitStructure.FSMC_WriteBurst 									= FSMC_WriteBurst_Disable;
 437:./drivers/display/ili_9341.c ****   FSMC_NORSRAMInitStructure.FSMC_ReadWriteTimingStruct 				= &FSMC_NORSRAMTimingInitStructure;
 438:./drivers/display/ili_9341.c ****   FSMC_NORSRAMInitStructure.FSMC_WriteTimingStruct 						= &FSMC_NORSRAMTimingInitStructure;
 439:./drivers/display/ili_9341.c ****   // FSMC config
 440:./drivers/display/ili_9341.c ****   FSMC_NORSRAMInit(&FSMC_NORSRAMInitStructure);
 441:./drivers/display/ili_9341.c ****   // Enable Bank-1 / PSRAM-1
 442:./drivers/display/ili_9341.c ****   FSMC_NORSRAMCmd(FSMC_Bank1_NORSRAM1, ENABLE);
 443:./drivers/display/ili_9341.c **** }*/
 444:./drivers/display/ili_9341.c **** 
 445:./drivers/display/ili_9341.c **** void tft_delay (volatile uint32_t count){
 310              		.loc 1 445 0
 311              		.cfi_startproc
 312              		@ args = 0, pretend = 0, frame = 8
 313              		@ frame_needed = 0, uses_anonymous_args = 0
 314              		@ link register save eliminated.
 315              	.LVL18:
 316 0000 82B0     		sub	sp, sp, #8	@,,
 317              		.cfi_def_cfa_offset 8
 318 0002 0190     		str	r0, [sp, #4]	@ count, count
 319              	.L16:
 446:./drivers/display/ili_9341.c **** 	while (count--) {
 320              		.loc 1 446 0 discriminator 1
 321 0004 019B     		ldr	r3, [sp, #4]	@ D.7506, count
 322 0006 5A1E     		subs	r2, r3, #1	@ D.7506, D.7506,
 323 0008 0192     		str	r2, [sp, #4]	@ D.7506, count
 324 000a 002B     		cmp	r3, #0	@ D.7506
 325 000c FAD1     		bne	.L16	@
 447:./drivers/display/ili_9341.c **** 	}
 448:./drivers/display/ili_9341.c **** }
 326              		.loc 1 448 0
 327 000e 02B0     		add	sp, sp, #8	@,,
 328              		.cfi_def_cfa_offset 0
 329              		@ sp needed	@
 330 0010 7047     		bx	lr	@
 331              		.cfi_endproc
 332              	.LFE129:
 333              		.size	tft_delay, .-tft_delay
 334              		.section	.text.init_ili9341,"ax",%progbits
 335              		.align	1
 336              		.global	init_ili9341
 337              		.thumb
 338              		.thumb_func
 339              		.type	init_ili9341, %function
 340              	init_ili9341:
 341              	.LFB128:
ARM GAS  C:\cygwin\tmp\cc1sO8qW.s 			page 15


  87:./drivers/display/ili_9341.c **** 
 342              		.loc 1 87 0
 343              		.cfi_startproc
 344              		@ args = 0, pretend = 0, frame = 0
 345              		@ frame_needed = 0, uses_anonymous_args = 0
 346 0000 2DE9F84F 		push	{r3, r4, r5, r6, r7, r8, r9, r10, fp, lr}	@
 347              		.cfi_def_cfa_offset 40
 348              		.cfi_offset 3, -40
 349              		.cfi_offset 4, -36
 350              		.cfi_offset 5, -32
 351              		.cfi_offset 6, -28
 352              		.cfi_offset 7, -24
 353              		.cfi_offset 8, -20
 354              		.cfi_offset 9, -16
 355              		.cfi_offset 10, -12
 356              		.cfi_offset 11, -8
 357              		.cfi_offset 14, -4
  89:./drivers/display/ili_9341.c **** 	tft_delay(50000);
 358              		.loc 1 89 0
 359 0004 4FF0C044 		mov	r4, #1610612736	@ tmp110,
 360 0008 1125     		movs	r5, #17	@ tmp112,
 361 000a 2580     		strh	r5, [r4]	@ movhi	@ tmp112, MEM[(volatile short unsigned int *)1610612736B]
  90:./drivers/display/ili_9341.c **** 
 362              		.loc 1 90 0
 363 000c 4CF25030 		movw	r0, #50000	@,
 364 0010 FFF7FEFF 		bl	tft_delay	@
 365              	.LVL19:
  92:./drivers/display/ili_9341.c **** 	LCD_DATA = 0x00;
 366              		.loc 1 92 0
 367 0014 CF23     		movs	r3, #207	@ tmp115,
 368 0016 2380     		strh	r3, [r4]	@ movhi	@ tmp115, MEM[(volatile short unsigned int *)1610612736B]
  93:./drivers/display/ili_9341.c **** 	LCD_DATA = 0xc3;
 369              		.loc 1 93 0
 370 0018 594B     		ldr	r3, .L19	@ tmp116,
 371 001a 0022     		movs	r2, #0	@ tmp118,
  94:./drivers/display/ili_9341.c **** 	LCD_DATA = 0X30;
 372              		.loc 1 94 0
 373 001c C321     		movs	r1, #195	@ tmp121,
  93:./drivers/display/ili_9341.c **** 	LCD_DATA = 0xc3;
 374              		.loc 1 93 0
 375 001e 1A80     		strh	r2, [r3]	@ movhi	@ tmp118, MEM[(volatile short unsigned int *)1610743808B]
  95:./drivers/display/ili_9341.c **** 
 376              		.loc 1 95 0
 377 0020 4FF0300E 		mov	lr, #48	@ tmp124,
  94:./drivers/display/ili_9341.c **** 	LCD_DATA = 0X30;
 378              		.loc 1 94 0
 379 0024 1980     		strh	r1, [r3]	@ movhi	@ tmp121, MEM[(volatile short unsigned int *)1610743808B]
  97:./drivers/display/ili_9341.c **** 	LCD_DATA = 0x64;
 380              		.loc 1 97 0
 381 0026 ED21     		movs	r1, #237	@ tmp127,
  95:./drivers/display/ili_9341.c **** 
 382              		.loc 1 95 0
 383 0028 A3F800E0 		strh	lr, [r3]	@ movhi	@ tmp124, MEM[(volatile short unsigned int *)1610743808B]
  97:./drivers/display/ili_9341.c **** 	LCD_DATA = 0x64;
 384              		.loc 1 97 0
 385 002c 2180     		strh	r1, [r4]	@ movhi	@ tmp127, MEM[(volatile short unsigned int *)1610612736B]
  98:./drivers/display/ili_9341.c **** 	LCD_DATA = 0x03;
ARM GAS  C:\cygwin\tmp\cc1sO8qW.s 			page 16


 386              		.loc 1 98 0
 387 002e 6421     		movs	r1, #100	@ tmp130,
 388 0030 1980     		strh	r1, [r3]	@ movhi	@ tmp130, MEM[(volatile short unsigned int *)1610743808B]
 100:./drivers/display/ili_9341.c **** 	LCD_DATA = 0X81;
 389              		.loc 1 100 0
 390 0032 1220     		movs	r0, #18	@ tmp136,
  99:./drivers/display/ili_9341.c **** 	LCD_DATA = 0X12;
 391              		.loc 1 99 0
 392 0034 0321     		movs	r1, #3	@ tmp133,
 393 0036 1980     		strh	r1, [r3]	@ movhi	@ tmp133, MEM[(volatile short unsigned int *)1610743808B]
 100:./drivers/display/ili_9341.c **** 	LCD_DATA = 0X81;
 394              		.loc 1 100 0
 395 0038 1880     		strh	r0, [r3]	@ movhi	@ tmp136, MEM[(volatile short unsigned int *)1610743808B]
 101:./drivers/display/ili_9341.c **** 
 396              		.loc 1 101 0
 397 003a 8120     		movs	r0, #129	@ tmp139,
 398 003c 1880     		strh	r0, [r3]	@ movhi	@ tmp139, MEM[(volatile short unsigned int *)1610743808B]
 103:./drivers/display/ili_9341.c **** 	LCD_DATA = 0x85;
 399              		.loc 1 103 0
 400 003e E820     		movs	r0, #232	@ tmp142,
 401 0040 2080     		strh	r0, [r4]	@ movhi	@ tmp142, MEM[(volatile short unsigned int *)1610612736B]
 104:./drivers/display/ili_9341.c **** 	LCD_DATA = 0x10;
 402              		.loc 1 104 0
 403 0042 8520     		movs	r0, #133	@ tmp145,
 404 0044 1880     		strh	r0, [r3]	@ movhi	@ tmp145, MEM[(volatile short unsigned int *)1610743808B]
 105:./drivers/display/ili_9341.c **** 	LCD_DATA = 0x79;
 405              		.loc 1 105 0
 406 0046 1026     		movs	r6, #16	@ tmp148,
 106:./drivers/display/ili_9341.c **** 
 407              		.loc 1 106 0
 408 0048 7920     		movs	r0, #121	@ tmp151,
 105:./drivers/display/ili_9341.c **** 	LCD_DATA = 0x79;
 409              		.loc 1 105 0
 410 004a 1E80     		strh	r6, [r3]	@ movhi	@ tmp148, MEM[(volatile short unsigned int *)1610743808B]
 106:./drivers/display/ili_9341.c **** 
 411              		.loc 1 106 0
 412 004c 1880     		strh	r0, [r3]	@ movhi	@ tmp151, MEM[(volatile short unsigned int *)1610743808B]
 108:./drivers/display/ili_9341.c **** 	LCD_DATA = 0x39;
 413              		.loc 1 108 0
 414 004e CB20     		movs	r0, #203	@ tmp154,
 415 0050 2080     		strh	r0, [r4]	@ movhi	@ tmp154, MEM[(volatile short unsigned int *)1610612736B]
 109:./drivers/display/ili_9341.c **** 	LCD_DATA = 0x2C;
 416              		.loc 1 109 0
 417 0052 3920     		movs	r0, #57	@ tmp157,
 418 0054 1880     		strh	r0, [r3]	@ movhi	@ tmp157, MEM[(volatile short unsigned int *)1610743808B]
 110:./drivers/display/ili_9341.c **** 	LCD_DATA = 0x00;
 419              		.loc 1 110 0
 420 0056 4FF02C09 		mov	r9, #44	@ tmp160,
 112:./drivers/display/ili_9341.c **** 	LCD_DATA = 0x02;
 421              		.loc 1 112 0
 422 005a 3420     		movs	r0, #52	@ tmp166,
 110:./drivers/display/ili_9341.c **** 	LCD_DATA = 0x00;
 423              		.loc 1 110 0
 424 005c A3F80090 		strh	r9, [r3]	@ movhi	@ tmp160, MEM[(volatile short unsigned int *)1610743808B]
 111:./drivers/display/ili_9341.c **** 	LCD_DATA = 0x34;
 425              		.loc 1 111 0
 426 0060 1A80     		strh	r2, [r3]	@ movhi	@ tmp118, MEM[(volatile short unsigned int *)1610743808B]
ARM GAS  C:\cygwin\tmp\cc1sO8qW.s 			page 17


 112:./drivers/display/ili_9341.c **** 	LCD_DATA = 0x02;
 427              		.loc 1 112 0
 428 0062 1880     		strh	r0, [r3]	@ movhi	@ tmp166, MEM[(volatile short unsigned int *)1610743808B]
 113:./drivers/display/ili_9341.c **** 
 429              		.loc 1 113 0
 430 0064 0220     		movs	r0, #2	@ tmp169,
 431 0066 1880     		strh	r0, [r3]	@ movhi	@ tmp169, MEM[(volatile short unsigned int *)1610743808B]
 115:./drivers/display/ili_9341.c **** 	LCD_DATA = 0x20;
 432              		.loc 1 115 0
 433 0068 F720     		movs	r0, #247	@ tmp172,
 434 006a 2080     		strh	r0, [r4]	@ movhi	@ tmp172, MEM[(volatile short unsigned int *)1610612736B]
 118:./drivers/display/ili_9341.c **** 	LCD_DATA = 0x00;
 435              		.loc 1 118 0
 436 006c EA27     		movs	r7, #234	@ tmp178,
 116:./drivers/display/ili_9341.c **** 
 437              		.loc 1 116 0
 438 006e 2020     		movs	r0, #32	@ tmp175,
 439 0070 1880     		strh	r0, [r3]	@ movhi	@ tmp175, MEM[(volatile short unsigned int *)1610743808B]
 118:./drivers/display/ili_9341.c **** 	LCD_DATA = 0x00;
 440              		.loc 1 118 0
 441 0072 2780     		strh	r7, [r4]	@ movhi	@ tmp178, MEM[(volatile short unsigned int *)1610612736B]
 122:./drivers/display/ili_9341.c **** 	LCD_DATA = 0x22;   //VRH[5:0]
 442              		.loc 1 122 0
 443 0074 C027     		movs	r7, #192	@ tmp187,
 119:./drivers/display/ili_9341.c **** 	LCD_DATA = 0x00;
 444              		.loc 1 119 0
 445 0076 1A80     		strh	r2, [r3]	@ movhi	@ tmp118, MEM[(volatile short unsigned int *)1610743808B]
 120:./drivers/display/ili_9341.c **** 
 446              		.loc 1 120 0
 447 0078 1A80     		strh	r2, [r3]	@ movhi	@ tmp118, MEM[(volatile short unsigned int *)1610743808B]
 122:./drivers/display/ili_9341.c **** 	LCD_DATA = 0x22;   //VRH[5:0]
 448              		.loc 1 122 0
 449 007a 2780     		strh	r7, [r4]	@ movhi	@ tmp187, MEM[(volatile short unsigned int *)1610612736B]
 123:./drivers/display/ili_9341.c **** 
 450              		.loc 1 123 0
 451 007c 2227     		movs	r7, #34	@ tmp190,
 452 007e 1F80     		strh	r7, [r3]	@ movhi	@ tmp190, MEM[(volatile short unsigned int *)1610743808B]
 125:./drivers/display/ili_9341.c **** 	LCD_DATA = 0x11;   //SAP[2:0];BT[3:0]
 453              		.loc 1 125 0
 454 0080 C127     		movs	r7, #193	@ tmp193,
 455 0082 2780     		strh	r7, [r4]	@ movhi	@ tmp193, MEM[(volatile short unsigned int *)1610612736B]
 128:./drivers/display/ili_9341.c **** 	LCD_DATA = 0x3d;
 456              		.loc 1 128 0
 457 0084 C527     		movs	r7, #197	@ tmp199,
 126:./drivers/display/ili_9341.c **** 
 458              		.loc 1 126 0
 459 0086 1D80     		strh	r5, [r3]	@ movhi	@ tmp112, MEM[(volatile short unsigned int *)1610743808B]
 128:./drivers/display/ili_9341.c **** 	LCD_DATA = 0x3d;
 460              		.loc 1 128 0
 461 0088 2780     		strh	r7, [r4]	@ movhi	@ tmp199, MEM[(volatile short unsigned int *)1610612736B]
 129:./drivers/display/ili_9341.c ****     //LCD_DataWrite_ILI9341(0x30);
 462              		.loc 1 129 0
 463 008a 3D27     		movs	r7, #61	@ tmp202,
 464 008c 1F80     		strh	r7, [r3]	@ movhi	@ tmp202, MEM[(volatile short unsigned int *)1610743808B]
 131:./drivers/display/ili_9341.c **** 
 465              		.loc 1 131 0
 466 008e 1880     		strh	r0, [r3]	@ movhi	@ tmp175, MEM[(volatile short unsigned int *)1610743808B]
ARM GAS  C:\cygwin\tmp\cc1sO8qW.s 			page 18


 133:./drivers/display/ili_9341.c ****     //LCD_DataWrite_ILI9341(0xBD);
 467              		.loc 1 133 0
 468 0090 C720     		movs	r0, #199	@ tmp208,
 469 0092 2080     		strh	r0, [r4]	@ movhi	@ tmp208, MEM[(volatile short unsigned int *)1610612736B]
 135:./drivers/display/ili_9341.c **** 
 470              		.loc 1 135 0
 471 0094 AA20     		movs	r0, #170	@ tmp211,
 472 0096 1880     		strh	r0, [r3]	@ movhi	@ tmp211, MEM[(volatile short unsigned int *)1610743808B]
 137:./drivers/display/ili_9341.c **** 	LCD_DATA = 0x88;
 473              		.loc 1 137 0
 474 0098 3620     		movs	r0, #54	@ tmp214,
 475 009a 2080     		strh	r0, [r4]	@ movhi	@ tmp214, MEM[(volatile short unsigned int *)1610612736B]
 138:./drivers/display/ili_9341.c **** 
 476              		.loc 1 138 0
 477 009c 8820     		movs	r0, #136	@ tmp217,
 478 009e 1880     		strh	r0, [r3]	@ movhi	@ tmp217, MEM[(volatile short unsigned int *)1610743808B]
 140:./drivers/display/ili_9341.c **** 	LCD_DATA = 0x55;
 479              		.loc 1 140 0
 480 00a0 3A20     		movs	r0, #58	@ tmp220,
 481 00a2 2080     		strh	r0, [r4]	@ movhi	@ tmp220, MEM[(volatile short unsigned int *)1610612736B]
 141:./drivers/display/ili_9341.c **** 
 482              		.loc 1 141 0
 483 00a4 5520     		movs	r0, #85	@ tmp223,
 484 00a6 1880     		strh	r0, [r3]	@ movhi	@ tmp223, MEM[(volatile short unsigned int *)1610743808B]
 143:./drivers/display/ili_9341.c **** 	LCD_DATA = 0x00;
 485              		.loc 1 143 0
 486 00a8 B120     		movs	r0, #177	@ tmp226,
 487 00aa 2080     		strh	r0, [r4]	@ movhi	@ tmp226, MEM[(volatile short unsigned int *)1610612736B]
 145:./drivers/display/ili_9341.c **** 
 488              		.loc 1 145 0
 489 00ac 4FF0130A 		mov	r10, #19	@ tmp232,
 147:./drivers/display/ili_9341.c **** 	LCD_DATA = 0x0A;
 490              		.loc 1 147 0
 491 00b0 B620     		movs	r0, #182	@ tmp235,
 144:./drivers/display/ili_9341.c **** 	LCD_DATA = 0x13;
 492              		.loc 1 144 0
 493 00b2 1A80     		strh	r2, [r3]	@ movhi	@ tmp118, MEM[(volatile short unsigned int *)1610743808B]
 148:./drivers/display/ili_9341.c **** 	LCD_DATA = 0xA2;
 494              		.loc 1 148 0
 495 00b4 0A27     		movs	r7, #10	@ tmp238,
 145:./drivers/display/ili_9341.c **** 
 496              		.loc 1 145 0
 497 00b6 A3F800A0 		strh	r10, [r3]	@ movhi	@ tmp232, MEM[(volatile short unsigned int *)1610743808B]
 149:./drivers/display/ili_9341.c **** 
 498              		.loc 1 149 0
 499 00ba 4FF0A208 		mov	r8, #162	@ tmp241,
 147:./drivers/display/ili_9341.c **** 	LCD_DATA = 0x0A;
 500              		.loc 1 147 0
 501 00be 2080     		strh	r0, [r4]	@ movhi	@ tmp235, MEM[(volatile short unsigned int *)1610612736B]
 151:./drivers/display/ili_9341.c **** 	LCD_DATA = 0x01;
 502              		.loc 1 151 0
 503 00c0 F620     		movs	r0, #246	@ tmp244,
 148:./drivers/display/ili_9341.c **** 	LCD_DATA = 0xA2;
 504              		.loc 1 148 0
 505 00c2 1F80     		strh	r7, [r3]	@ movhi	@ tmp238, MEM[(volatile short unsigned int *)1610743808B]
 149:./drivers/display/ili_9341.c **** 
 506              		.loc 1 149 0
ARM GAS  C:\cygwin\tmp\cc1sO8qW.s 			page 19


 507 00c4 A3F80080 		strh	r8, [r3]	@ movhi	@ tmp241, MEM[(volatile short unsigned int *)1610743808B]
 151:./drivers/display/ili_9341.c **** 	LCD_DATA = 0x01;
 508              		.loc 1 151 0
 509 00c8 2080     		strh	r0, [r4]	@ movhi	@ tmp244, MEM[(volatile short unsigned int *)1610612736B]
 152:./drivers/display/ili_9341.c **** 	LCD_DATA = 0x30;
 510              		.loc 1 152 0
 511 00ca 0120     		movs	r0, #1	@ tmp247,
 512 00cc 1880     		strh	r0, [r3]	@ movhi	@ tmp247, MEM[(volatile short unsigned int *)1610743808B]
 153:./drivers/display/ili_9341.c **** 
 513              		.loc 1 153 0
 514 00ce A3F800E0 		strh	lr, [r3]	@ movhi	@ tmp124, MEM[(volatile short unsigned int *)1610743808B]
 155:./drivers/display/ili_9341.c **** 	LCD_DATA = 0x00;
 515              		.loc 1 155 0
 516 00d2 4FF0F20E 		mov	lr, #242	@ tmp253,
 517 00d6 A4F800E0 		strh	lr, [r4]	@ movhi	@ tmp253, MEM[(volatile short unsigned int *)1610612736B]
 158:./drivers/display/ili_9341.c **** 	LCD_DATA = 0x01;
 518              		.loc 1 158 0
 519 00da 4FF0260E 		mov	lr, #38	@ tmp259,
 156:./drivers/display/ili_9341.c **** 
 520              		.loc 1 156 0
 521 00de 1A80     		strh	r2, [r3]	@ movhi	@ tmp118, MEM[(volatile short unsigned int *)1610743808B]
 158:./drivers/display/ili_9341.c **** 	LCD_DATA = 0x01;
 522              		.loc 1 158 0
 523 00e0 A4F800E0 		strh	lr, [r4]	@ movhi	@ tmp259, MEM[(volatile short unsigned int *)1610612736B]
 159:./drivers/display/ili_9341.c **** 
 524              		.loc 1 159 0
 525 00e4 1880     		strh	r0, [r3]	@ movhi	@ tmp247, MEM[(volatile short unsigned int *)1610743808B]
 161:./drivers/display/ili_9341.c **** 	LCD_DATA = 0x0F;
 526              		.loc 1 161 0
 527 00e6 E020     		movs	r0, #224	@ tmp265,
 528 00e8 2080     		strh	r0, [r4]	@ movhi	@ tmp265, MEM[(volatile short unsigned int *)1610612736B]
 163:./drivers/display/ili_9341.c **** 	LCD_DATA = 0x2F;
 529              		.loc 1 163 0
 530 00ea 4FF03F0C 		mov	ip, #63	@ tmp271,
 162:./drivers/display/ili_9341.c **** 	LCD_DATA = 0x3F;
 531              		.loc 1 162 0
 532 00ee 0F20     		movs	r0, #15	@ tmp268,
 164:./drivers/display/ili_9341.c **** 	LCD_DATA = 0x0C;
 533              		.loc 1 164 0
 534 00f0 4FF02F0E 		mov	lr, #47	@ tmp274,
 162:./drivers/display/ili_9341.c **** 	LCD_DATA = 0x3F;
 535              		.loc 1 162 0
 536 00f4 1880     		strh	r0, [r3]	@ movhi	@ tmp268, MEM[(volatile short unsigned int *)1610743808B]
 168:./drivers/display/ili_9341.c **** 	LCD_DATA = 0XD5;
 537              		.loc 1 168 0
 538 00f6 4FF0530B 		mov	fp, #83	@ tmp286,
 163:./drivers/display/ili_9341.c **** 	LCD_DATA = 0x2F;
 539              		.loc 1 163 0
 540 00fa A3F800C0 		strh	ip, [r3]	@ movhi	@ tmp271, MEM[(volatile short unsigned int *)1610743808B]
 164:./drivers/display/ili_9341.c **** 	LCD_DATA = 0x0C;
 541              		.loc 1 164 0
 542 00fe A3F800E0 		strh	lr, [r3]	@ movhi	@ tmp274, MEM[(volatile short unsigned int *)1610743808B]
 165:./drivers/display/ili_9341.c **** 	LCD_DATA = 0x10;
 543              		.loc 1 165 0
 544 0102 4FF00C0E 		mov	lr, #12	@ tmp277,
 545 0106 A3F800E0 		strh	lr, [r3]	@ movhi	@ tmp277, MEM[(volatile short unsigned int *)1610743808B]
 166:./drivers/display/ili_9341.c **** 	LCD_DATA = 0x0A;
ARM GAS  C:\cygwin\tmp\cc1sO8qW.s 			page 20


 546              		.loc 1 166 0
 547 010a 1E80     		strh	r6, [r3]	@ movhi	@ tmp148, MEM[(volatile short unsigned int *)1610743808B]
 167:./drivers/display/ili_9341.c **** 	LCD_DATA = 0x53;
 548              		.loc 1 167 0
 549 010c 1F80     		strh	r7, [r3]	@ movhi	@ tmp238, MEM[(volatile short unsigned int *)1610743808B]
 168:./drivers/display/ili_9341.c **** 	LCD_DATA = 0XD5;
 550              		.loc 1 168 0
 551 010e A3F800B0 		strh	fp, [r3]	@ movhi	@ tmp286, MEM[(volatile short unsigned int *)1610743808B]
 169:./drivers/display/ili_9341.c **** 	LCD_DATA = 0x40;
 552              		.loc 1 169 0
 553 0112 4FF0D50B 		mov	fp, #213	@ tmp289,
 554 0116 A3F800B0 		strh	fp, [r3]	@ movhi	@ tmp289, MEM[(volatile short unsigned int *)1610743808B]
 170:./drivers/display/ili_9341.c **** 	LCD_DATA = 0x0A;
 555              		.loc 1 170 0
 556 011a 4FF0400B 		mov	fp, #64	@ tmp292,
 557 011e A3F800B0 		strh	fp, [r3]	@ movhi	@ tmp292, MEM[(volatile short unsigned int *)1610743808B]
 171:./drivers/display/ili_9341.c **** 	LCD_DATA = 0x13;
 558              		.loc 1 171 0
 559 0122 1F80     		strh	r7, [r3]	@ movhi	@ tmp238, MEM[(volatile short unsigned int *)1610743808B]
 174:./drivers/display/ili_9341.c **** 	LCD_DATA = 0x03;
 560              		.loc 1 174 0
 561 0124 0827     		movs	r7, #8	@ tmp304,
 172:./drivers/display/ili_9341.c **** 	LCD_DATA = 0x03;
 562              		.loc 1 172 0
 563 0126 A3F800A0 		strh	r10, [r3]	@ movhi	@ tmp232, MEM[(volatile short unsigned int *)1610743808B]
 173:./drivers/display/ili_9341.c **** 	LCD_DATA = 0x08;
 564              		.loc 1 173 0
 565 012a 1980     		strh	r1, [r3]	@ movhi	@ tmp133, MEM[(volatile short unsigned int *)1610743808B]
 174:./drivers/display/ili_9341.c **** 	LCD_DATA = 0x03;
 566              		.loc 1 174 0
 567 012c 1F80     		strh	r7, [r3]	@ movhi	@ tmp304, MEM[(volatile short unsigned int *)1610743808B]
 178:./drivers/display/ili_9341.c **** 	LCD_DATA = 0x00;
 568              		.loc 1 178 0
 569 012e E127     		movs	r7, #225	@ tmp313,
 175:./drivers/display/ili_9341.c **** 	LCD_DATA = 0x00;
 570              		.loc 1 175 0
 571 0130 1980     		strh	r1, [r3]	@ movhi	@ tmp133, MEM[(volatile short unsigned int *)1610743808B]
 176:./drivers/display/ili_9341.c **** 
 572              		.loc 1 176 0
 573 0132 1A80     		strh	r2, [r3]	@ movhi	@ tmp118, MEM[(volatile short unsigned int *)1610743808B]
 178:./drivers/display/ili_9341.c **** 	LCD_DATA = 0x00;
 574              		.loc 1 178 0
 575 0134 2780     		strh	r7, [r4]	@ movhi	@ tmp313, MEM[(volatile short unsigned int *)1610612736B]
 179:./drivers/display/ili_9341.c **** 	LCD_DATA = 0x00;
 576              		.loc 1 179 0
 577 0136 1A80     		strh	r2, [r3]	@ movhi	@ tmp118, MEM[(volatile short unsigned int *)1610743808B]
 180:./drivers/display/ili_9341.c **** 	LCD_DATA = 0x10;
 578              		.loc 1 180 0
 579 0138 1A80     		strh	r2, [r3]	@ movhi	@ tmp118, MEM[(volatile short unsigned int *)1610743808B]
 184:./drivers/display/ili_9341.c **** 	LCD_DATA = 0x2C;
 580              		.loc 1 184 0
 581 013a 0522     		movs	r2, #5	@ tmp331,
 181:./drivers/display/ili_9341.c **** 	LCD_DATA = 0x03;
 582              		.loc 1 181 0
 583 013c 1E80     		strh	r6, [r3]	@ movhi	@ tmp148, MEM[(volatile short unsigned int *)1610743808B]
 182:./drivers/display/ili_9341.c **** 	LCD_DATA = 0x0F;
 584              		.loc 1 182 0
ARM GAS  C:\cygwin\tmp\cc1sO8qW.s 			page 21


 585 013e 1980     		strh	r1, [r3]	@ movhi	@ tmp133, MEM[(volatile short unsigned int *)1610743808B]
 183:./drivers/display/ili_9341.c **** 	LCD_DATA = 0x05;
 586              		.loc 1 183 0
 587 0140 1880     		strh	r0, [r3]	@ movhi	@ tmp268, MEM[(volatile short unsigned int *)1610743808B]
 184:./drivers/display/ili_9341.c **** 	LCD_DATA = 0x2C;
 588              		.loc 1 184 0
 589 0142 1A80     		strh	r2, [r3]	@ movhi	@ tmp331, MEM[(volatile short unsigned int *)1610743808B]
 185:./drivers/display/ili_9341.c **** 	LCD_DATA = 0xA2;
 590              		.loc 1 185 0
 591 0144 A3F80090 		strh	r9, [r3]	@ movhi	@ tmp160, MEM[(volatile short unsigned int *)1610743808B]
 186:./drivers/display/ili_9341.c **** 	LCD_DATA = 0x3F;
 592              		.loc 1 186 0
 593 0148 A3F80080 		strh	r8, [r3]	@ movhi	@ tmp241, MEM[(volatile short unsigned int *)1610743808B]
 187:./drivers/display/ili_9341.c **** 	LCD_DATA = 0x05;
 594              		.loc 1 187 0
 595 014c A3F800C0 		strh	ip, [r3]	@ movhi	@ tmp271, MEM[(volatile short unsigned int *)1610743808B]
 188:./drivers/display/ili_9341.c **** 	LCD_DATA = 0x0E;
 596              		.loc 1 188 0
 597 0150 1A80     		strh	r2, [r3]	@ movhi	@ tmp331, MEM[(volatile short unsigned int *)1610743808B]
 189:./drivers/display/ili_9341.c **** 	LCD_DATA = 0x0C;
 598              		.loc 1 189 0
 599 0152 0E22     		movs	r2, #14	@ tmp346,
 600 0154 1A80     		strh	r2, [r3]	@ movhi	@ tmp346, MEM[(volatile short unsigned int *)1610743808B]
 191:./drivers/display/ili_9341.c **** 	LCD_DATA = 0x3C;
 601              		.loc 1 191 0
 602 0156 3722     		movs	r2, #55	@ tmp352,
 190:./drivers/display/ili_9341.c **** 	LCD_DATA = 0x37;
 603              		.loc 1 190 0
 604 0158 A3F800E0 		strh	lr, [r3]	@ movhi	@ tmp277, MEM[(volatile short unsigned int *)1610743808B]
 191:./drivers/display/ili_9341.c **** 	LCD_DATA = 0x3C;
 605              		.loc 1 191 0
 606 015c 1A80     		strh	r2, [r3]	@ movhi	@ tmp352, MEM[(volatile short unsigned int *)1610743808B]
 192:./drivers/display/ili_9341.c **** 	LCD_DATA = 0x0F;
 607              		.loc 1 192 0
 608 015e 3C22     		movs	r2, #60	@ tmp355,
 609 0160 1A80     		strh	r2, [r3]	@ movhi	@ tmp355, MEM[(volatile short unsigned int *)1610743808B]
 193:./drivers/display/ili_9341.c **** 
 610              		.loc 1 193 0
 611 0162 1880     		strh	r0, [r3]	@ movhi	@ tmp268, MEM[(volatile short unsigned int *)1610743808B]
 195:./drivers/display/ili_9341.c **** 	tft_delay(50000);
 612              		.loc 1 195 0
 613 0164 2580     		strh	r5, [r4]	@ movhi	@ tmp112, MEM[(volatile short unsigned int *)1610612736B]
 196:./drivers/display/ili_9341.c ****  	LCD_REG  = 0x29;    //Display on
 614              		.loc 1 196 0
 615 0166 4CF25030 		movw	r0, #50000	@,
 616 016a FFF7FEFF 		bl	tft_delay	@
 617              	.LVL20:
 197:./drivers/display/ili_9341.c **** 	tft_delay(50000);
 618              		.loc 1 197 0
 619 016e 2923     		movs	r3, #41	@ tmp364,
 620 0170 2380     		strh	r3, [r4]	@ movhi	@ tmp364, MEM[(volatile short unsigned int *)1610612736B]
 198:./drivers/display/ili_9341.c **** 
 621              		.loc 1 198 0
 622 0172 4CF25030 		movw	r0, #50000	@,
 355:./drivers/display/ili_9341.c **** 
 623              		.loc 1 355 0
 624 0176 BDE8F84F 		pop	{r3, r4, r5, r6, r7, r8, r9, r10, fp, lr}	@
ARM GAS  C:\cygwin\tmp\cc1sO8qW.s 			page 22


 625              		.cfi_restore 14
 626              		.cfi_restore 11
 627              		.cfi_restore 10
 628              		.cfi_restore 9
 629              		.cfi_restore 8
 630              		.cfi_restore 7
 631              		.cfi_restore 6
 632              		.cfi_restore 5
 633              		.cfi_restore 4
 634              		.cfi_restore 3
 635              		.cfi_def_cfa_offset 0
 198:./drivers/display/ili_9341.c **** 
 636              		.loc 1 198 0
 637 017a FFF7FEBF 		b	tft_delay	@
 638              	.LVL21:
 639              	.L20:
 640 017e 00BF     		.align	2
 641              	.L19:
 642 0180 00000260 		.word	1610743808
 643              		.cfi_endproc
 644              	.LFE128:
 645              		.size	init_ili9341, .-init_ili9341
 646              		.text
 647              	.Letext0:
 648              		.file 2 "c:\\program files\\gnu tools arm embedded\\4.9 2014q4\\arm-none-eabi\\include\\machine\\_
 649              		.file 3 "c:\\program files\\gnu tools arm embedded\\4.9 2014q4\\arm-none-eabi\\include\\stdint.h"
 650              		.file 4 "../STM32Cube_FW_F4_V1.4.0/Drivers/CMSIS/Include/core_cm4.h"