ARM GAS  C:\cygwin\tmp\ccl55rGX.s 			page 1


   1              		.syntax unified
   2              		.cpu cortex-m4
   3              		.fpu softvfp
   4              		.eabi_attribute 20, 1	@ Tag_ABI_FP_denormal
   5              		.eabi_attribute 21, 1	@ Tag_ABI_FP_exceptions
   6              		.eabi_attribute 23, 3	@ Tag_ABI_FP_number_model
   7              		.eabi_attribute 24, 1	@ Tag_ABI_align8_needed
   8              		.eabi_attribute 25, 1	@ Tag_ABI_align8_preserved
   9              		.eabi_attribute 26, 1	@ Tag_ABI_enum_size
  10              		.eabi_attribute 30, 4	@ Tag_ABI_optimization_goals
  11              		.eabi_attribute 34, 1	@ Tag_CPU_unaligned_access
  12              		.eabi_attribute 18, 4	@ Tag_ABI_PCS_wchar_t
  13              		.file	"modbusConfig.c"
  14              	@ GNU C (GNU Tools for ARM Embedded Processors) version 4.9.3 20141119 (release) [ARM/embedded-4_9-
  15              	@	compiled by GNU C version 4.7.4, GMP version 4.3.2, MPFR version 2.4.2, MPC version 0.8.1
  16              	@ GGC heuristics: --param ggc-min-expand=100 --param ggc-min-heapsize=131072
  17              	@ options passed:  -I . -I Inc -I gui -I emWin -I emWin/config
  18              	@ -I ../STM32Cube_FW_F4_V1.4.0/Drivers/CMSIS/Include
  19              	@ -I ../STM32Cube_FW_F4_V1.4.0/Drivers/CMSIS/Device/ST/STM32F4xx/Include
  20              	@ -I ../STM32Cube_FW_F4_V1.4.0/Drivers/STM32F4xx_HAL_Driver/Inc
  21              	@ -I ../STM32Cube_FW_F4_V1.4.0/Drivers/CMSIS/Include
  22              	@ -I ../STM32Cube_FW_F4_V1.4.0/Middlewares/ST/STemWin/inc
  23              	@ -I .drivers/modbus -I ./drivers/display -imultilib armv7e-m
  24              	@ -iprefix c:\program files\gnu tools arm embedded\4.9 2014q4\bin\../lib/gcc/arm-none-eabi/4.9.3/
  25              	@ -isysroot c:\program files\gnu tools arm embedded\4.9 2014q4\bin\../arm-none-eabi
  26              	@ -MD out/modbusConfig.d -MF out/modbusConfig.d -MP -MQ out/modbusConfig.o
  27              	@ -D__USES_INITFINI__ -D USE_HAL_DRIVER -D STM32F4XX -D HSE_VALUE=8000000
  28              	@ -D __STARTUP_CLEAR_BSS -D STM32F407VG -D USE_FULL_ASSERT -D __FPU_USED
  29              	@ ./drivers/modbus/modbusConfig.c -mcpu=cortex-m4 -mthumb
  30              	@ -auxbase-strip out/modbusConfig.o -g -ggdb3 -Os -Os -Wall
  31              	@ -Wstrict-prototypes -Wextra -std=gnu90 -ffunction-sections
  32              	@ -fdata-sections -fverbose-asm
  33              	@ options enabled:  -faggressive-loop-optimizations -fauto-inc-dec
  34              	@ -fbranch-count-reg -fcaller-saves -fcombine-stack-adjustments -fcommon
  35              	@ -fcompare-elim -fcprop-registers -fcrossjumping -fcse-follow-jumps
  36              	@ -fdata-sections -fdefer-pop -fdelete-null-pointer-checks -fdevirtualize
  37              	@ -fdevirtualize-speculatively -fdwarf2-cfi-asm -fearly-inlining
  38              	@ -feliminate-unused-debug-types -fexpensive-optimizations
  39              	@ -fforward-propagate -ffunction-cse -ffunction-sections -fgcse -fgcse-lm
  40              	@ -fgnu-runtime -fgnu-unique -fguess-branch-probability
  41              	@ -fhoist-adjacent-loads -fident -fif-conversion -fif-conversion2
  42              	@ -findirect-inlining -finline -finline-atomics -finline-functions
  43              	@ -finline-functions-called-once -finline-small-functions -fipa-cp
  44              	@ -fipa-profile -fipa-pure-const -fipa-reference -fipa-sra
  45              	@ -fira-hoist-pressure -fira-share-save-slots -fira-share-spill-slots
  46              	@ -fisolate-erroneous-paths-dereference -fivopts -fkeep-static-consts
  47              	@ -fleading-underscore -fmath-errno -fmerge-constants -fmerge-debug-strings
  48              	@ -fomit-frame-pointer -foptimize-sibling-calls -fpartial-inlining
  49              	@ -fpeephole -fpeephole2 -fprefetch-loop-arrays -freg-struct-return
  50              	@ -freorder-blocks -freorder-functions -frerun-cse-after-loop
  51              	@ -fsched-critical-path-heuristic -fsched-dep-count-heuristic
  52              	@ -fsched-group-heuristic -fsched-interblock -fsched-last-insn-heuristic
  53              	@ -fsched-pressure -fsched-rank-heuristic -fsched-spec
  54              	@ -fsched-spec-insn-heuristic -fsched-stalled-insns-dep -fschedule-insns2
  55              	@ -fsection-anchors -fshow-column -fsigned-zeros -fsplit-ivs-in-unroller
  56              	@ -fsplit-wide-types -fstrict-aliasing -fstrict-overflow
  57              	@ -fstrict-volatile-bitfields -fsync-libcalls -fthread-jumps
ARM GAS  C:\cygwin\tmp\ccl55rGX.s 			page 2


  58              	@ -ftoplevel-reorder -ftrapping-math -ftree-bit-ccp -ftree-builtin-call-dce
  59              	@ -ftree-ccp -ftree-ch -ftree-coalesce-vars -ftree-copy-prop
  60              	@ -ftree-copyrename -ftree-cselim -ftree-dce -ftree-dominator-opts
  61              	@ -ftree-dse -ftree-forwprop -ftree-fre -ftree-loop-if-convert
  62              	@ -ftree-loop-im -ftree-loop-ivcanon -ftree-loop-optimize
  63              	@ -ftree-parallelize-loops= -ftree-phiprop -ftree-pre -ftree-pta
  64              	@ -ftree-reassoc -ftree-scev-cprop -ftree-sink -ftree-slsr -ftree-sra
  65              	@ -ftree-switch-conversion -ftree-tail-merge -ftree-ter -ftree-vrp
  66              	@ -funit-at-a-time -fvar-tracking -fvar-tracking-assignments -fverbose-asm
  67              	@ -fzero-initialized-in-bss -mlittle-endian -mlra
  68              	@ -mpic-data-is-text-relative -msched-prolog -mthumb -munaligned-access
  69              	@ -mvectorize-with-neon-quad
  70              	
  71              		.text
  72              	.Ltext0:
  73              		.cfi_sections	.debug_frame
  74              		.section	.text.modbus_Setup,"ax",%progbits
  75              		.align	1
  76              		.global	modbus_Setup
  77              		.thumb
  78              		.thumb_func
  79              		.type	modbus_Setup, %function
  80              	modbus_Setup:
  81              	.LFB123:
  82              		.file 1 "./drivers/modbus/modbusConfig.c"
   1:./drivers/modbus/modbusConfig.c **** /**
   2:./drivers/modbus/modbusConfig.c ****   ******************************************************************************
   3:./drivers/modbus/modbusConfig.c ****   * @file    modbusConfig.h 
   4:./drivers/modbus/modbusConfig.c ****   * @author  Multicalor
   5:./drivers/modbus/modbusConfig.c ****   * @version V1.0.0
   6:./drivers/modbus/modbusConfig.c ****   * @date    23-01-2015
   7:./drivers/modbus/modbusConfig.c ****   * @brief   Header for modbusConfig.c module
   8:./drivers/modbus/modbusConfig.c **** 	@brief	Verventa 1.0.0
   9:./drivers/modbus/modbusConfig.c ****   ******************************************************************************
  10:./drivers/modbus/modbusConfig.c ****   * @attention
  11:./drivers/modbus/modbusConfig.c ****   *
  12:./drivers/modbus/modbusConfig.c ****   * SimpleModbusMasterV10
  13:./drivers/modbus/modbusConfig.c ****   *
  14:./drivers/modbus/modbusConfig.c ****   * Redistribution and use in source and binary forms, with or without modification,
  15:./drivers/modbus/modbusConfig.c ****   * are permitted provided that the following conditions are met:
  16:./drivers/modbus/modbusConfig.c ****   *   1. Redistributions of source code must retain the above copyright notice,
  17:./drivers/modbus/modbusConfig.c ****   *      this list of conditions and the following disclaimer.
  18:./drivers/modbus/modbusConfig.c ****   *   2. Redistributions in binary form must reproduce the above copyright notice,
  19:./drivers/modbus/modbusConfig.c ****   *      this list of conditions and the following disclaimer in the documentation
  20:./drivers/modbus/modbusConfig.c ****   *      and/or other materials provided with the distribution.
  21:./drivers/modbus/modbusConfig.c ****   *   3. Neither the name of STMicroelectronics nor the names of its contributors
  22:./drivers/modbus/modbusConfig.c ****   *      may be used to endorse or promote products derived from this software
  23:./drivers/modbus/modbusConfig.c ****   *      without specific prior written permission.
  24:./drivers/modbus/modbusConfig.c ****   *
  25:./drivers/modbus/modbusConfig.c ****   * THIS SOFTWARE IS PROVIDED BY THE COPYRIGHT HOLDERS AND CONTRIBUTORS "AS IS"
  26:./drivers/modbus/modbusConfig.c ****   * AND ANY EXPRESS OR IMPLIED WARRANTIES, INCLUDING, BUT NOT LIMITED TO, THE
  27:./drivers/modbus/modbusConfig.c ****   * IMPLIED WARRANTIES OF MERCHANTABILITY AND FITNESS FOR A PARTICULAR PURPOSE ARE
  28:./drivers/modbus/modbusConfig.c ****   * DISCLAIMED. IN NO EVENT SHALL THE COPYRIGHT HOLDER OR CONTRIBUTORS BE LIABLE
  29:./drivers/modbus/modbusConfig.c ****   * FOR ANY DIRECT, INDIRECT, INCIDENTAL, SPECIAL, EXEMPLARY, OR CONSEQUENTIAL
  30:./drivers/modbus/modbusConfig.c ****   * DAMAGES (INCLUDING, BUT NOT LIMITED TO, PROCUREMENT OF SUBSTITUTE GOODS OR
  31:./drivers/modbus/modbusConfig.c ****   * SERVICES; LOSS OF USE, DATA, OR PROFITS; OR BUSINESS INTERRUPTION) HOWEVER
  32:./drivers/modbus/modbusConfig.c ****   * CAUSED AND ON ANY THEORY OF LIABILITY, WHETHER IN CONTRACT, STRICT LIABILITY,
ARM GAS  C:\cygwin\tmp\ccl55rGX.s 			page 3


  33:./drivers/modbus/modbusConfig.c ****   * OR TORT (INCLUDING NEGLIGENCE OR OTHERWISE) ARISING IN ANY WAY OUT OF THE USE
  34:./drivers/modbus/modbusConfig.c ****   * OF THIS SOFTWARE, EVEN IF ADVISED OF THE POSSIBILITY OF SUCH DAMAGE.
  35:./drivers/modbus/modbusConfig.c ****   *
  36:./drivers/modbus/modbusConfig.c ****   * Configure the packets you want to write or read from slave devices.
  37:./drivers/modbus/modbusConfig.c ****   *
  38:./drivers/modbus/modbusConfig.c ****   * uint8_t id; -> slave address
  39:./drivers/modbus/modbusConfig.c ****   * uint8_t function; -> 1/2/3/4/15/16
  40:./drivers/modbus/modbusConfig.c ****   * uint16_t address; -> starting address of register
  41:./drivers/modbus/modbusConfig.c ****   * uint16_t data; -> n° of registers to read/write
  42:./drivers/modbus/modbusConfig.c ****   * uint16_t* register_array; -> holds the values
  43:./drivers/modbus/modbusConfig.c ****   *
  44:./drivers/modbus/modbusConfig.c ****   * Save this packets in an array.
  45:./drivers/modbus/modbusConfig.c ****   *
  46:./drivers/modbus/modbusConfig.c ****   * Run modbus_construct() to instantiate the packets.
  47:./drivers/modbus/modbusConfig.c ****   * Run modbus_configure() to pass the array.
  48:./drivers/modbus/modbusConfig.c ****   *
  49:./drivers/modbus/modbusConfig.c ****   ******************************************************************************
  50:./drivers/modbus/modbusConfig.c ****   */
  51:./drivers/modbus/modbusConfig.c **** /*	Includes----------------------------------------*/
  52:./drivers/modbus/modbusConfig.c **** #include "modbusConfig.h"
  53:./drivers/modbus/modbusConfig.c **** /*	private variables-------------------------------*/
  54:./drivers/modbus/modbusConfig.c **** 
  55:./drivers/modbus/modbusConfig.c **** /*	public functions--------------------------------*/
  56:./drivers/modbus/modbusConfig.c **** // Setup the modbus packets array
  57:./drivers/modbus/modbusConfig.c **** void modbus_Setup(){
  83              		.loc 1 57 0
  84              		.cfi_startproc
  85              		@ args = 0, pretend = 0, frame = 0
  86              		@ frame_needed = 0, uses_anonymous_args = 0
  87              	.LVL0:
  88 0000 37B5     		push	{r0, r1, r2, r4, r5, lr}	@
  89              		.cfi_def_cfa_offset 24
  90              		.cfi_offset 4, -12
  91              		.cfi_offset 5, -8
  92              		.cfi_offset 14, -4
  58:./drivers/modbus/modbusConfig.c **** 	uint32_t baud = 115200;
  59:./drivers/modbus/modbusConfig.c **** 	uint16_t polling = 0;
  60:./drivers/modbus/modbusConfig.c **** 	uint16_t timeout = 800;
  61:./drivers/modbus/modbusConfig.c **** 	uint8_t retry_count = 0;
  62:./drivers/modbus/modbusConfig.c **** 	
  63:./drivers/modbus/modbusConfig.c **** 	// read 2 registers starting at address 0
  64:./drivers/modbus/modbusConfig.c **** 	modbus_construct(packet1, 20, READ_HOLDING_REGISTERS, 0, 2, regs);
  93              		.loc 1 64 0
  94 0002 1C4B     		ldr	r3, .L2	@ tmp114,
  95 0004 1C4C     		ldr	r4, .L2+4	@ tmp116,
  96 0006 0194     		str	r4, [sp, #4]	@ tmp116,
  97 0008 0225     		movs	r5, #2	@ tmp115,
  98 000a 0095     		str	r5, [sp]	@ tmp115,
  99 000c 1868     		ldr	r0, [r3]	@, packet1
 100 000e 1421     		movs	r1, #20	@,
 101 0010 0322     		movs	r2, #3	@,
 102 0012 0023     		movs	r3, #0	@,
 103 0014 FFF7FEFF 		bl	modbus_construct	@
 104              	.LVL1:
  65:./drivers/modbus/modbusConfig.c **** 	// read the 10 registers to the PLC starting at address 2
  66:./drivers/modbus/modbusConfig.c **** 	modbus_construct(packet2, 20, READ_HOLDING_REGISTERS, 0, 2, regs);
 105              		.loc 1 66 0
ARM GAS  C:\cygwin\tmp\ccl55rGX.s 			page 4


 106 0018 184B     		ldr	r3, .L2+8	@ tmp117,
 107 001a 0095     		str	r5, [sp]	@ tmp115,
 108 001c 0194     		str	r4, [sp, #4]	@ tmp116,
 109 001e 1868     		ldr	r0, [r3]	@, packet2
 110 0020 1421     		movs	r1, #20	@,
 111 0022 0322     		movs	r2, #3	@,
 112 0024 0023     		movs	r3, #0	@,
 113 0026 FFF7FEFF 		bl	modbus_construct	@
 114              	.LVL2:
  67:./drivers/modbus/modbusConfig.c **** 	//
  68:./drivers/modbus/modbusConfig.c **** 	modbus_construct(packet3, 20, READ_HOLDING_REGISTERS, 0, 2, regs);
 115              		.loc 1 68 0
 116 002a 154B     		ldr	r3, .L2+12	@ tmp120,
 117 002c 0095     		str	r5, [sp]	@ tmp115,
 118 002e 0194     		str	r4, [sp, #4]	@ tmp116,
 119 0030 1868     		ldr	r0, [r3]	@, packet3
 120 0032 1421     		movs	r1, #20	@,
 121 0034 0322     		movs	r2, #3	@,
 122 0036 0023     		movs	r3, #0	@,
 123 0038 FFF7FEFF 		bl	modbus_construct	@
 124              	.LVL3:
  69:./drivers/modbus/modbusConfig.c **** 	//
  70:./drivers/modbus/modbusConfig.c **** 	modbus_construct(packet4, 20, READ_HOLDING_REGISTERS, 0, 2, regs);
 125              		.loc 1 70 0
 126 003c 114B     		ldr	r3, .L2+16	@ tmp123,
 127 003e 0095     		str	r5, [sp]	@ tmp115,
 128 0040 0194     		str	r4, [sp, #4]	@ tmp116,
 129 0042 1868     		ldr	r0, [r3]	@, packet4
 130 0044 1421     		movs	r1, #20	@,
 131 0046 0322     		movs	r2, #3	@,
 132 0048 0023     		movs	r3, #0	@,
 133 004a FFF7FEFF 		bl	modbus_construct	@
 134              	.LVL4:
  71:./drivers/modbus/modbusConfig.c **** 	
  72:./drivers/modbus/modbusConfig.c **** 	modbus_configure(baud, timeout, polling, retry_count, packets, TOTAL_NO_OF_PACKETS);
 135              		.loc 1 72 0
 136 004e 0E4B     		ldr	r3, .L2+20	@ tmp126,
 137 0050 0093     		str	r3, [sp]	@ tmp126,
 138 0052 0022     		movs	r2, #0	@,
 139 0054 0423     		movs	r3, #4	@ tmp127,
 140 0056 0193     		str	r3, [sp, #4]	@ tmp127,
 141 0058 4FF4E130 		mov	r0, #115200	@,
 142 005c 4FF44871 		mov	r1, #800	@,
 143 0060 1346     		mov	r3, r2	@,
 144 0062 FFF7FEFF 		bl	modbus_configure	@
 145              	.LVL5:
  73:./drivers/modbus/modbusConfig.c **** 	
  74:./drivers/modbus/modbusConfig.c **** 	printf("Modbus Up...\n");
 146              		.loc 1 74 0
 147 0066 0948     		ldr	r0, .L2+24	@,
  75:./drivers/modbus/modbusConfig.c **** }
 148              		.loc 1 75 0
 149 0068 03B0     		add	sp, sp, #12	@,,
 150              		.cfi_def_cfa_offset 12
 151              		@ sp needed	@
 152 006a BDE83040 		pop	{r4, r5, lr}	@
 153              		.cfi_restore 14
ARM GAS  C:\cygwin\tmp\ccl55rGX.s 			page 5


 154              		.cfi_restore 5
 155              		.cfi_restore 4
 156              		.cfi_def_cfa_offset 0
  74:./drivers/modbus/modbusConfig.c **** }
 157              		.loc 1 74 0
 158 006e FFF7FEBF 		b	puts	@
 159              	.LVL6:
 160              	.L3:
 161 0072 00BF     		.align	2
 162              	.L2:
 163 0074 00000000 		.word	.LANCHOR0
 164 0078 00000000 		.word	regs
 165 007c 00000000 		.word	.LANCHOR1
 166 0080 00000000 		.word	.LANCHOR2
 167 0084 00000000 		.word	.LANCHOR3
 168 0088 00000000 		.word	packets
 169 008c 00000000 		.word	.LC0
 170              		.cfi_endproc
 171              	.LFE123:
 172              		.size	modbus_Setup, .-modbus_Setup
 173              		.comm	regs,400,2
 174              		.global	packet4
 175              		.global	packet3
 176              		.global	packet2
 177              		.global	packet1
 178              		.comm	packets,96,4
 179              		.section	.data.packet3,"aw",%progbits
 180              		.align	2
 181              		.set	.LANCHOR2,. + 0
 182              		.type	packet3, %object
 183              		.size	packet3, 4
 184              	packet3:
 185 0000 30000000 		.word	packets+48
 186              		.section	.data.packet4,"aw",%progbits
 187              		.align	2
 188              		.set	.LANCHOR3,. + 0
 189              		.type	packet4, %object
 190              		.size	packet4, 4
 191              	packet4:
 192 0000 48000000 		.word	packets+72
 193              		.section	.rodata.str1.1,"aMS",%progbits,1
 194              	.LC0:
 195 0000 4D6F6462 		.ascii	"Modbus Up...\000"
 195      75732055 
 195      702E2E2E 
 195      00
 196              		.section	.data.packet1,"aw",%progbits
 197              		.align	2
 198              		.set	.LANCHOR0,. + 0
 199              		.type	packet1, %object
 200              		.size	packet1, 4
 201              	packet1:
 202 0000 00000000 		.word	packets
 203              		.section	.data.packet2,"aw",%progbits
 204              		.align	2
 205              		.set	.LANCHOR1,. + 0
 206              		.type	packet2, %object
ARM GAS  C:\cygwin\tmp\ccl55rGX.s 			page 6


 207              		.size	packet2, 4
 208              	packet2:
 209 0000 18000000 		.word	packets+24
 210              		.text
 211              	.Letext0:
 212              		.file 2 "c:\\program files\\gnu tools arm embedded\\4.9 2014q4\\arm-none-eabi\\include\\machine\\_
 213              		.file 3 "c:\\program files\\gnu tools arm embedded\\4.9 2014q4\\arm-none-eabi\\include\\stdint.h"
 214              		.file 4 "./drivers/modbus/SimpleModbusMaster.h"
 215              		.file 5 "../STM32Cube_FW_F4_V1.4.0/Drivers/CMSIS/Include/core_cm4.h"
 216              		.file 6 "./drivers/modbus/modbusConfig.h"
 217              		.file 7 "<built-in>"