ARM GAS  C:\cygwin\tmp\cc0cO0Hy.s 			page 1


   1              		.syntax unified
   2              		.cpu cortex-m4
   3              		.fpu softvfp
   4              		.eabi_attribute 20, 1	@ Tag_ABI_FP_denormal
   5              		.eabi_attribute 21, 1	@ Tag_ABI_FP_exceptions
   6              		.eabi_attribute 23, 3	@ Tag_ABI_FP_number_model
   7              		.eabi_attribute 24, 1	@ Tag_ABI_align8_needed
   8              		.eabi_attribute 25, 1	@ Tag_ABI_align8_preserved
   9              		.eabi_attribute 26, 1	@ Tag_ABI_enum_size
  10              		.eabi_attribute 30, 4	@ Tag_ABI_optimization_goals
  11              		.eabi_attribute 34, 1	@ Tag_CPU_unaligned_access
  12              		.eabi_attribute 18, 4	@ Tag_ABI_PCS_wchar_t
  13              		.file	"newlib_stubs.c"
  14              	@ GNU C (GNU Tools for ARM Embedded Processors) version 4.9.3 20141119 (release) [ARM/embedded-4_9-
  15              	@	compiled by GNU C version 4.7.4, GMP version 4.3.2, MPFR version 2.4.2, MPC version 0.8.1
  16              	@ GGC heuristics: --param ggc-min-expand=100 --param ggc-min-heapsize=131072
  17              	@ options passed:  -I . -I Inc -I gui -I emWin -I emWin/config
  18              	@ -I ../STM32Cube_FW_F4_V1.4.0/Drivers/CMSIS/Include
  19              	@ -I ../STM32Cube_FW_F4_V1.4.0/Drivers/CMSIS/Device/ST/STM32F4xx/Include
  20              	@ -I ../STM32Cube_FW_F4_V1.4.0/Drivers/STM32F4xx_HAL_Driver/Inc
  21              	@ -I ../STM32Cube_FW_F4_V1.4.0/Drivers/CMSIS/Include
  22              	@ -I ../STM32Cube_FW_F4_V1.4.0/Middlewares/ST/STemWin/inc
  23              	@ -I .drivers/modbus -I ./drivers/display -imultilib armv7e-m
  24              	@ -iprefix c:\program files\gnu tools arm embedded\4.9 2014q4\bin\../lib/gcc/arm-none-eabi/4.9.3/
  25              	@ -isysroot c:\program files\gnu tools arm embedded\4.9 2014q4\bin\../arm-none-eabi
  26              	@ -MD out/newlib_stubs.d -MF out/newlib_stubs.d -MP -MQ out/newlib_stubs.o
  27              	@ -D__USES_INITFINI__ -D USE_HAL_DRIVER -D STM32F4XX -D HSE_VALUE=8000000
  28              	@ -D __STARTUP_CLEAR_BSS -D STM32F407VG -D USE_FULL_ASSERT -D __FPU_USED
  29              	@ Src/newlib_stubs.c -mcpu=cortex-m4 -mthumb
  30              	@ -auxbase-strip out/newlib_stubs.o -g -ggdb3 -Os -Os -Wall
  31              	@ -Wstrict-prototypes -Wextra -std=gnu90 -ffunction-sections
  32              	@ -fdata-sections -fverbose-asm
  33              	@ options enabled:  -faggressive-loop-optimizations -fauto-inc-dec
  34              	@ -fbranch-count-reg -fcaller-saves -fcombine-stack-adjustments -fcommon
  35              	@ -fcompare-elim -fcprop-registers -fcrossjumping -fcse-follow-jumps
  36              	@ -fdata-sections -fdefer-pop -fdelete-null-pointer-checks -fdevirtualize
  37              	@ -fdevirtualize-speculatively -fdwarf2-cfi-asm -fearly-inlining
  38              	@ -feliminate-unused-debug-types -fexpensive-optimizations
  39              	@ -fforward-propagate -ffunction-cse -ffunction-sections -fgcse -fgcse-lm
  40              	@ -fgnu-runtime -fgnu-unique -fguess-branch-probability
  41              	@ -fhoist-adjacent-loads -fident -fif-conversion -fif-conversion2
  42              	@ -findirect-inlining -finline -finline-atomics -finline-functions
  43              	@ -finline-functions-called-once -finline-small-functions -fipa-cp
  44              	@ -fipa-profile -fipa-pure-const -fipa-reference -fipa-sra
  45              	@ -fira-hoist-pressure -fira-share-save-slots -fira-share-spill-slots
  46              	@ -fisolate-erroneous-paths-dereference -fivopts -fkeep-static-consts
  47              	@ -fleading-underscore -fmath-errno -fmerge-constants -fmerge-debug-strings
  48              	@ -fomit-frame-pointer -foptimize-sibling-calls -fpartial-inlining
  49              	@ -fpeephole -fpeephole2 -fprefetch-loop-arrays -freg-struct-return
  50              	@ -freorder-blocks -freorder-functions -frerun-cse-after-loop
  51              	@ -fsched-critical-path-heuristic -fsched-dep-count-heuristic
  52              	@ -fsched-group-heuristic -fsched-interblock -fsched-last-insn-heuristic
  53              	@ -fsched-pressure -fsched-rank-heuristic -fsched-spec
  54              	@ -fsched-spec-insn-heuristic -fsched-stalled-insns-dep -fschedule-insns2
  55              	@ -fsection-anchors -fshow-column -fsigned-zeros -fsplit-ivs-in-unroller
  56              	@ -fsplit-wide-types -fstrict-aliasing -fstrict-overflow
  57              	@ -fstrict-volatile-bitfields -fsync-libcalls -fthread-jumps
ARM GAS  C:\cygwin\tmp\cc0cO0Hy.s 			page 2


  58              	@ -ftoplevel-reorder -ftrapping-math -ftree-bit-ccp -ftree-builtin-call-dce
  59              	@ -ftree-ccp -ftree-ch -ftree-coalesce-vars -ftree-copy-prop
  60              	@ -ftree-copyrename -ftree-cselim -ftree-dce -ftree-dominator-opts
  61              	@ -ftree-dse -ftree-forwprop -ftree-fre -ftree-loop-if-convert
  62              	@ -ftree-loop-im -ftree-loop-ivcanon -ftree-loop-optimize
  63              	@ -ftree-parallelize-loops= -ftree-phiprop -ftree-pre -ftree-pta
  64              	@ -ftree-reassoc -ftree-scev-cprop -ftree-sink -ftree-slsr -ftree-sra
  65              	@ -ftree-switch-conversion -ftree-tail-merge -ftree-ter -ftree-vrp
  66              	@ -funit-at-a-time -fvar-tracking -fvar-tracking-assignments -fverbose-asm
  67              	@ -fzero-initialized-in-bss -mlittle-endian -mlra
  68              	@ -mpic-data-is-text-relative -msched-prolog -mthumb -munaligned-access
  69              	@ -mvectorize-with-neon-quad
  70              	
  71              		.text
  72              	.Ltext0:
  73              		.cfi_sections	.debug_frame
  74              		.section	.text._close,"ax",%progbits
  75              		.align	1
  76              		.global	_close
  77              		.thumb
  78              		.thumb_func
  79              		.type	_close, %function
  80              	_close:
  81              	.LFB124:
  82              		.file 1 "Src/newlib_stubs.c"
   1:Src/newlib_stubs.c **** /*
   2:Src/newlib_stubs.c ****  * newlib_stubs.c
   3:Src/newlib_stubs.c ****  *
   4:Src/newlib_stubs.c ****  *  Minimal implementation after nanoage.co.uk
   5:Src/newlib_stubs.c ****  */
   6:Src/newlib_stubs.c **** #include <errno.h>
   7:Src/newlib_stubs.c **** #include <sys/stat.h>
   8:Src/newlib_stubs.c **** #include <sys/times.h>
   9:Src/newlib_stubs.c **** #include <sys/unistd.h>
  10:Src/newlib_stubs.c **** 
  11:Src/newlib_stubs.c **** #include "stm32f4xx.h"
  12:Src/newlib_stubs.c **** //#include "stm32f429i_discovery.h"
  13:Src/newlib_stubs.c **** 
  14:Src/newlib_stubs.c **** extern int __io_putchar(int ch);
  15:Src/newlib_stubs.c **** extern int __io_getchar(void);
  16:Src/newlib_stubs.c **** 
  17:Src/newlib_stubs.c **** #undef errno
  18:Src/newlib_stubs.c **** extern int errno;
  19:Src/newlib_stubs.c **** 
  20:Src/newlib_stubs.c **** /*
  21:Src/newlib_stubs.c ****  environ
  22:Src/newlib_stubs.c ****  A pointer to a list of environment variables and their values.
  23:Src/newlib_stubs.c ****  For a minimal environment, this empty list is adequate:
  24:Src/newlib_stubs.c ****  */
  25:Src/newlib_stubs.c **** char *__env[1] = { 0 };
  26:Src/newlib_stubs.c **** char **environ = __env;
  27:Src/newlib_stubs.c **** 
  28:Src/newlib_stubs.c **** int _write(int file, char *ptr, int len);
  29:Src/newlib_stubs.c **** 
  30:Src/newlib_stubs.c **** void _exit(int status) {
  31:Src/newlib_stubs.c ****     _write(1, "exit", 4);
  32:Src/newlib_stubs.c ****     while (1) {
ARM GAS  C:\cygwin\tmp\cc0cO0Hy.s 			page 3


  33:Src/newlib_stubs.c ****         ;
  34:Src/newlib_stubs.c ****     }
  35:Src/newlib_stubs.c **** }
  36:Src/newlib_stubs.c **** 
  37:Src/newlib_stubs.c **** int _close(int file) {
  83              		.loc 1 37 0
  84              		.cfi_startproc
  85              		@ args = 0, pretend = 0, frame = 0
  86              		@ frame_needed = 0, uses_anonymous_args = 0
  87              		@ link register save eliminated.
  88              	.LVL0:
  38:Src/newlib_stubs.c ****     return -1;
  39:Src/newlib_stubs.c **** }
  89              		.loc 1 39 0
  90 0000 4FF0FF30 		mov	r0, #-1	@,
  91              	.LVL1:
  92 0004 7047     		bx	lr	@
  93              		.cfi_endproc
  94              	.LFE124:
  95              		.size	_close, .-_close
  96              		.section	.text._execve,"ax",%progbits
  97              		.align	1
  98              		.global	_execve
  99              		.thumb
 100              		.thumb_func
 101              		.type	_execve, %function
 102              	_execve:
 103              	.LFB125:
  40:Src/newlib_stubs.c **** /*
  41:Src/newlib_stubs.c ****  execve
  42:Src/newlib_stubs.c ****  Transfer control to a new process. Minimal implementation (for a system without processes):
  43:Src/newlib_stubs.c ****  */
  44:Src/newlib_stubs.c **** int _execve(char *name, char **argv, char **env) {
 104              		.loc 1 44 0
 105              		.cfi_startproc
 106              		@ args = 0, pretend = 0, frame = 0
 107              		@ frame_needed = 0, uses_anonymous_args = 0
 108              		@ link register save eliminated.
 109              	.LVL2:
  45:Src/newlib_stubs.c ****     errno = ENOMEM;
 110              		.loc 1 45 0
 111 0000 024B     		ldr	r3, .L3	@ tmp114,
 112 0002 0C22     		movs	r2, #12	@ tmp115,
 113              	.LVL3:
 114 0004 1A60     		str	r2, [r3]	@ tmp115, errno
  46:Src/newlib_stubs.c ****     return -1;
  47:Src/newlib_stubs.c **** }
 115              		.loc 1 47 0
 116 0006 4FF0FF30 		mov	r0, #-1	@,
 117              	.LVL4:
 118 000a 7047     		bx	lr	@
 119              	.L4:
 120              		.align	2
 121              	.L3:
 122 000c 00000000 		.word	errno
 123              		.cfi_endproc
 124              	.LFE125:
ARM GAS  C:\cygwin\tmp\cc0cO0Hy.s 			page 4


 125              		.size	_execve, .-_execve
 126              		.section	.text._fork,"ax",%progbits
 127              		.align	1
 128              		.global	_fork
 129              		.thumb
 130              		.thumb_func
 131              		.type	_fork, %function
 132              	_fork:
 133              	.LFB126:
  48:Src/newlib_stubs.c **** /*
  49:Src/newlib_stubs.c ****  fork
  50:Src/newlib_stubs.c ****  Create a new process. Minimal implementation (for a system without processes):
  51:Src/newlib_stubs.c ****  */
  52:Src/newlib_stubs.c **** 
  53:Src/newlib_stubs.c **** int _fork() {
 134              		.loc 1 53 0
 135              		.cfi_startproc
 136              		@ args = 0, pretend = 0, frame = 0
 137              		@ frame_needed = 0, uses_anonymous_args = 0
 138              		@ link register save eliminated.
  54:Src/newlib_stubs.c ****     errno = EAGAIN;
 139              		.loc 1 54 0
 140 0000 024B     		ldr	r3, .L6	@ tmp111,
 141 0002 0B22     		movs	r2, #11	@ tmp112,
 142 0004 1A60     		str	r2, [r3]	@ tmp112, errno
  55:Src/newlib_stubs.c ****     return -1;
  56:Src/newlib_stubs.c **** }
 143              		.loc 1 56 0
 144 0006 4FF0FF30 		mov	r0, #-1	@,
 145 000a 7047     		bx	lr	@
 146              	.L7:
 147              		.align	2
 148              	.L6:
 149 000c 00000000 		.word	errno
 150              		.cfi_endproc
 151              	.LFE126:
 152              		.size	_fork, .-_fork
 153              		.section	.text._fstat,"ax",%progbits
 154              		.align	1
 155              		.global	_fstat
 156              		.thumb
 157              		.thumb_func
 158              		.type	_fstat, %function
 159              	_fstat:
 160              	.LFB127:
  57:Src/newlib_stubs.c **** /*
  58:Src/newlib_stubs.c ****  fstat
  59:Src/newlib_stubs.c ****  Status of an open file. For consistency with other minimal implementations in these examples,
  60:Src/newlib_stubs.c ****  all files are regarded as character special devices.
  61:Src/newlib_stubs.c ****  The `sys/stat.h' header file required is distributed in the `include' subdirectory for this C libr
  62:Src/newlib_stubs.c ****  */
  63:Src/newlib_stubs.c **** int _fstat(int file, struct stat *st) {
 161              		.loc 1 63 0
 162              		.cfi_startproc
 163              		@ args = 0, pretend = 0, frame = 0
 164              		@ frame_needed = 0, uses_anonymous_args = 0
 165              		@ link register save eliminated.
ARM GAS  C:\cygwin\tmp\cc0cO0Hy.s 			page 5


 166              	.LVL5:
  64:Src/newlib_stubs.c ****     st->st_mode = S_IFCHR;
 167              		.loc 1 64 0
 168 0000 4FF40053 		mov	r3, #8192	@ tmp113,
 169 0004 4B60     		str	r3, [r1, #4]	@ tmp113, st_2(D)->st_mode
  65:Src/newlib_stubs.c ****     return 0;
  66:Src/newlib_stubs.c **** }
 170              		.loc 1 66 0
 171 0006 0020     		movs	r0, #0	@,
 172              	.LVL6:
 173 0008 7047     		bx	lr	@
 174              		.cfi_endproc
 175              	.LFE127:
 176              		.size	_fstat, .-_fstat
 177              		.section	.text._getpid,"ax",%progbits
 178              		.align	1
 179              		.global	_getpid
 180              		.thumb
 181              		.thumb_func
 182              		.type	_getpid, %function
 183              	_getpid:
 184              	.LFB128:
  67:Src/newlib_stubs.c **** 
  68:Src/newlib_stubs.c **** /*
  69:Src/newlib_stubs.c ****  getpid
  70:Src/newlib_stubs.c ****  Process-ID; this is sometimes used to generate strings unlikely to conflict with other processes. 
  71:Src/newlib_stubs.c ****  */
  72:Src/newlib_stubs.c **** 
  73:Src/newlib_stubs.c **** int _getpid() {
 185              		.loc 1 73 0
 186              		.cfi_startproc
 187              		@ args = 0, pretend = 0, frame = 0
 188              		@ frame_needed = 0, uses_anonymous_args = 0
 189              		@ link register save eliminated.
  74:Src/newlib_stubs.c ****     return 1;
  75:Src/newlib_stubs.c **** }
 190              		.loc 1 75 0
 191 0000 0120     		movs	r0, #1	@,
 192 0002 7047     		bx	lr	@
 193              		.cfi_endproc
 194              	.LFE128:
 195              		.size	_getpid, .-_getpid
 196              		.section	.text._isatty,"ax",%progbits
 197              		.align	1
 198              		.global	_isatty
 199              		.thumb
 200              		.thumb_func
 201              		.type	_isatty, %function
 202              	_isatty:
 203              	.LFB129:
  76:Src/newlib_stubs.c **** 
  77:Src/newlib_stubs.c **** /*
  78:Src/newlib_stubs.c ****  isatty
  79:Src/newlib_stubs.c ****  Query whether output stream is a terminal. For consistency with the other minimal implementations,
  80:Src/newlib_stubs.c ****  */
  81:Src/newlib_stubs.c **** int _isatty(int file) {
 204              		.loc 1 81 0
ARM GAS  C:\cygwin\tmp\cc0cO0Hy.s 			page 6


 205              		.cfi_startproc
 206              		@ args = 0, pretend = 0, frame = 0
 207              		@ frame_needed = 0, uses_anonymous_args = 0
 208              		@ link register save eliminated.
 209              	.LVL7:
  82:Src/newlib_stubs.c ****     switch (file){
 210              		.loc 1 82 0
 211 0000 0228     		cmp	r0, #2	@ file,
  83:Src/newlib_stubs.c ****     case STDOUT_FILENO:
  84:Src/newlib_stubs.c ****     case STDERR_FILENO:
  85:Src/newlib_stubs.c ****     case STDIN_FILENO:
  86:Src/newlib_stubs.c ****         return 1;
  87:Src/newlib_stubs.c ****     default:
  88:Src/newlib_stubs.c ****         //errno = ENOTTY;
  89:Src/newlib_stubs.c ****         errno = EBADF;
 212              		.loc 1 89 0
 213 0002 81BF     		itttt	hi
 214 0004 034B     		ldrhi	r3, .L15	@ tmp114,
 215 0006 0922     		movhi	r2, #9	@ tmp115,
  90:Src/newlib_stubs.c ****         return 0;
 216              		.loc 1 90 0
 217 0008 0020     		movhi	r0, #0	@ D.8085,
 218              	.LVL8:
  89:Src/newlib_stubs.c ****         return 0;
 219              		.loc 1 89 0
 220 000a 1A60     		strhi	r2, [r3]	@ tmp115, errno
  86:Src/newlib_stubs.c ****     default:
 221              		.loc 1 86 0
 222 000c 98BF     		it	ls
 223 000e 0120     		movls	r0, #1	@ D.8085,
  91:Src/newlib_stubs.c ****     }
  92:Src/newlib_stubs.c **** }
 224              		.loc 1 92 0
 225 0010 7047     		bx	lr	@
 226              	.L16:
 227 0012 00BF     		.align	2
 228              	.L15:
 229 0014 00000000 		.word	errno
 230              		.cfi_endproc
 231              	.LFE129:
 232              		.size	_isatty, .-_isatty
 233              		.section	.text._kill,"ax",%progbits
 234              		.align	1
 235              		.global	_kill
 236              		.thumb
 237              		.thumb_func
 238              		.type	_kill, %function
 239              	_kill:
 240              	.LFB130:
  93:Src/newlib_stubs.c **** 
  94:Src/newlib_stubs.c **** 
  95:Src/newlib_stubs.c **** /*
  96:Src/newlib_stubs.c ****  kill
  97:Src/newlib_stubs.c ****  Send a signal. Minimal implementation:
  98:Src/newlib_stubs.c ****  */
  99:Src/newlib_stubs.c **** int _kill(int pid, int sig) {
 241              		.loc 1 99 0
ARM GAS  C:\cygwin\tmp\cc0cO0Hy.s 			page 7


 242              		.cfi_startproc
 243              		@ args = 0, pretend = 0, frame = 0
 244              		@ frame_needed = 0, uses_anonymous_args = 0
 245              		@ link register save eliminated.
 246              	.LVL9:
 100:Src/newlib_stubs.c ****     errno = EINVAL;
 247              		.loc 1 100 0
 248 0000 024B     		ldr	r3, .L18	@ tmp113,
 249 0002 1622     		movs	r2, #22	@ tmp114,
 250 0004 1A60     		str	r2, [r3]	@ tmp114, errno
 101:Src/newlib_stubs.c ****     return (-1);
 102:Src/newlib_stubs.c **** }
 251              		.loc 1 102 0
 252 0006 4FF0FF30 		mov	r0, #-1	@,
 253              	.LVL10:
 254 000a 7047     		bx	lr	@
 255              	.L19:
 256              		.align	2
 257              	.L18:
 258 000c 00000000 		.word	errno
 259              		.cfi_endproc
 260              	.LFE130:
 261              		.size	_kill, .-_kill
 262              		.section	.text._link,"ax",%progbits
 263              		.align	1
 264              		.global	_link
 265              		.thumb
 266              		.thumb_func
 267              		.type	_link, %function
 268              	_link:
 269              	.LFB131:
 103:Src/newlib_stubs.c **** 
 104:Src/newlib_stubs.c **** /*
 105:Src/newlib_stubs.c ****  link
 106:Src/newlib_stubs.c ****  Establish a new name for an existing file. Minimal implementation:
 107:Src/newlib_stubs.c ****  */
 108:Src/newlib_stubs.c **** 
 109:Src/newlib_stubs.c **** int _link(char *old, char *new) {
 270              		.loc 1 109 0
 271              		.cfi_startproc
 272              		@ args = 0, pretend = 0, frame = 0
 273              		@ frame_needed = 0, uses_anonymous_args = 0
 274              		@ link register save eliminated.
 275              	.LVL11:
 110:Src/newlib_stubs.c ****     errno = EMLINK;
 276              		.loc 1 110 0
 277 0000 024B     		ldr	r3, .L21	@ tmp113,
 278 0002 1F22     		movs	r2, #31	@ tmp114,
 279 0004 1A60     		str	r2, [r3]	@ tmp114, errno
 111:Src/newlib_stubs.c ****     return -1;
 112:Src/newlib_stubs.c **** }
 280              		.loc 1 112 0
 281 0006 4FF0FF30 		mov	r0, #-1	@,
 282              	.LVL12:
 283 000a 7047     		bx	lr	@
 284              	.L22:
 285              		.align	2
ARM GAS  C:\cygwin\tmp\cc0cO0Hy.s 			page 8


 286              	.L21:
 287 000c 00000000 		.word	errno
 288              		.cfi_endproc
 289              	.LFE131:
 290              		.size	_link, .-_link
 291              		.section	.text._lseek,"ax",%progbits
 292              		.align	1
 293              		.global	_lseek
 294              		.thumb
 295              		.thumb_func
 296              		.type	_lseek, %function
 297              	_lseek:
 298              	.LFB132:
 113:Src/newlib_stubs.c **** 
 114:Src/newlib_stubs.c **** /*
 115:Src/newlib_stubs.c ****  lseek
 116:Src/newlib_stubs.c ****  Set position in a file. Minimal implementation:
 117:Src/newlib_stubs.c ****  */
 118:Src/newlib_stubs.c **** int _lseek(int file, int ptr, int dir) {
 299              		.loc 1 118 0
 300              		.cfi_startproc
 301              		@ args = 0, pretend = 0, frame = 0
 302              		@ frame_needed = 0, uses_anonymous_args = 0
 303              		@ link register save eliminated.
 304              	.LVL13:
 119:Src/newlib_stubs.c ****     return 0;
 120:Src/newlib_stubs.c **** }
 305              		.loc 1 120 0
 306 0000 0020     		movs	r0, #0	@,
 307              	.LVL14:
 308 0002 7047     		bx	lr	@
 309              		.cfi_endproc
 310              	.LFE132:
 311              		.size	_lseek, .-_lseek
 312              		.section	.text._read,"ax",%progbits
 313              		.align	1
 314              		.global	_read
 315              		.thumb
 316              		.thumb_func
 317              		.type	_read, %function
 318              	_read:
 319              	.LFB134:
 121:Src/newlib_stubs.c **** 
 122:Src/newlib_stubs.c **** /*
 123:Src/newlib_stubs.c ****  sbrk
 124:Src/newlib_stubs.c ****  Increase program data space.
 125:Src/newlib_stubs.c ****  Malloc and related functions depend on this
 126:Src/newlib_stubs.c ****  */
 127:Src/newlib_stubs.c **** caddr_t _sbrk(int incr) {
 128:Src/newlib_stubs.c **** 
 129:Src/newlib_stubs.c ****     extern char _ebss; // Defined by the linker
 130:Src/newlib_stubs.c ****     static char *heap_end;
 131:Src/newlib_stubs.c ****     char *prev_heap_end;
 132:Src/newlib_stubs.c **** 
 133:Src/newlib_stubs.c ****     if (heap_end == 0) {
 134:Src/newlib_stubs.c ****         heap_end = &_ebss;
 135:Src/newlib_stubs.c ****     }
ARM GAS  C:\cygwin\tmp\cc0cO0Hy.s 			page 9


 136:Src/newlib_stubs.c ****     prev_heap_end = heap_end;
 137:Src/newlib_stubs.c **** 
 138:Src/newlib_stubs.c **** char * stack = (char*) __get_MSP();
 139:Src/newlib_stubs.c **** 
 140:Src/newlib_stubs.c ****      if (heap_end + incr >  stack)
 141:Src/newlib_stubs.c ****      {
 142:Src/newlib_stubs.c ****          _write (STDERR_FILENO, "Heap and stack collision\n", 25);
 143:Src/newlib_stubs.c ****          errno = ENOMEM;
 144:Src/newlib_stubs.c ****          return  (caddr_t) -1;
 145:Src/newlib_stubs.c ****          //abort ();
 146:Src/newlib_stubs.c ****      }
 147:Src/newlib_stubs.c **** 
 148:Src/newlib_stubs.c ****     heap_end += incr;
 149:Src/newlib_stubs.c ****     return (caddr_t) prev_heap_end;
 150:Src/newlib_stubs.c **** 
 151:Src/newlib_stubs.c **** }
 152:Src/newlib_stubs.c **** 
 153:Src/newlib_stubs.c **** /*
 154:Src/newlib_stubs.c ****  read
 155:Src/newlib_stubs.c ****  Read a character to a file. `libc' subroutines will use this system routine for input from all fil
 156:Src/newlib_stubs.c ****  Returns -1 on error or blocks until the number of characters have been read.
 157:Src/newlib_stubs.c ****  */
 158:Src/newlib_stubs.c **** 
 159:Src/newlib_stubs.c **** 
 160:Src/newlib_stubs.c **** int _read(int file, char *ptr, int len) {
 320              		.loc 1 160 0
 321              		.cfi_startproc
 322              		@ args = 0, pretend = 0, frame = 0
 323              		@ frame_needed = 0, uses_anonymous_args = 0
 324              	.LVL15:
 325 0000 70B5     		push	{r4, r5, r6, lr}	@
 326              		.cfi_def_cfa_offset 16
 327              		.cfi_offset 4, -16
 328              		.cfi_offset 5, -12
 329              		.cfi_offset 6, -8
 330              		.cfi_offset 14, -4
 331              		.loc 1 160 0
 332 0002 0E46     		mov	r6, r1	@ ptr, ptr
 333 0004 1446     		mov	r4, r2	@ len, len
 161:Src/newlib_stubs.c ****     int n;
 162:Src/newlib_stubs.c ****     int num = 0;
 163:Src/newlib_stubs.c ****     switch (file) {
 334              		.loc 1 163 0
 335 0006 40B9     		cbnz	r0, .L31	@ file,
 336              		.loc 1 163 0 is_stmt 0 discriminator 1
 337 0008 0D46     		mov	r5, r1	@ ptr, ptr
 338              	.LVL16:
 339              	.L27:
 340 000a AB1B     		subs	r3, r5, r6	@ D.8114, ptr, ptr
 341              	.LVL17:
 164:Src/newlib_stubs.c ****     case STDIN_FILENO:
 165:Src/newlib_stubs.c ****         for (n = 0; n < len; n++) {
 342              		.loc 1 165 0 is_stmt 1 discriminator 1
 343 000c A342     		cmp	r3, r4	@ D.8114, len
 344 000e 0ADA     		bge	.L34	@,
 166:Src/newlib_stubs.c ****             *ptr++ = __io_getchar();
 345              		.loc 1 166 0 discriminator 3
ARM GAS  C:\cygwin\tmp\cc0cO0Hy.s 			page 10


 346 0010 FFF7FEFF 		bl	__io_getchar	@
 347              	.LVL18:
 348 0014 05F8010B 		strb	r0, [r5], #1	@, MEM[base: ptr_15, offset: 4294967295B]
 349              	.LVL19:
 350 0018 F7E7     		b	.L27	@
 351              	.LVL20:
 352              	.L31:
 167:Src/newlib_stubs.c ****             num++;
 168:Src/newlib_stubs.c ****         }
 169:Src/newlib_stubs.c ****         break;
 170:Src/newlib_stubs.c ****     default:
 171:Src/newlib_stubs.c ****         errno = EBADF;
 353              		.loc 1 171 0
 354 001a 044B     		ldr	r3, .L35	@ tmp155,
 355 001c 0922     		movs	r2, #9	@ tmp156,
 356              	.LVL21:
 357 001e 1A60     		str	r2, [r3]	@ tmp156, errno
 172:Src/newlib_stubs.c ****         return -1;
 358              		.loc 1 172 0
 359 0020 4FF0FF30 		mov	r0, #-1	@ D.8112,
 360              	.LVL22:
 361 0024 70BD     		pop	{r4, r5, r6, pc}	@
 362              	.LVL23:
 363              	.L34:
 364 0026 24EAE470 		bic	r0, r4, r4, asr #31	@ D.8112, len
 173:Src/newlib_stubs.c ****     }
 174:Src/newlib_stubs.c ****     return num;
 175:Src/newlib_stubs.c **** }
 365              		.loc 1 175 0
 366 002a 70BD     		pop	{r4, r5, r6, pc}	@
 367              	.LVL24:
 368              	.L36:
 369              		.align	2
 370              	.L35:
 371 002c 00000000 		.word	errno
 372              		.cfi_endproc
 373              	.LFE134:
 374              		.size	_read, .-_read
 375              		.section	.text._stat,"ax",%progbits
 376              		.align	1
 377              		.global	_stat
 378              		.thumb
 379              		.thumb_func
 380              		.type	_stat, %function
 381              	_stat:
 382              	.LFB135:
 176:Src/newlib_stubs.c **** 
 177:Src/newlib_stubs.c **** /*
 178:Src/newlib_stubs.c ****  stat
 179:Src/newlib_stubs.c ****  Status of a file (by name). Minimal implementation:
 180:Src/newlib_stubs.c ****  int    _EXFUN(stat,( const char *__path, struct stat *__sbuf ));
 181:Src/newlib_stubs.c ****  */
 182:Src/newlib_stubs.c **** 
 183:Src/newlib_stubs.c **** int _stat(const char *filepath, struct stat *st) {
 383              		.loc 1 183 0
 384              		.cfi_startproc
 385              		@ args = 0, pretend = 0, frame = 0
ARM GAS  C:\cygwin\tmp\cc0cO0Hy.s 			page 11


 386              		@ frame_needed = 0, uses_anonymous_args = 0
 387              		@ link register save eliminated.
 388              	.LVL25:
 184:Src/newlib_stubs.c ****     st->st_mode = S_IFCHR;
 389              		.loc 1 184 0
 390 0000 4FF40053 		mov	r3, #8192	@ tmp113,
 391 0004 4B60     		str	r3, [r1, #4]	@ tmp113, st_2(D)->st_mode
 185:Src/newlib_stubs.c ****     return 0;
 186:Src/newlib_stubs.c **** }
 392              		.loc 1 186 0
 393 0006 0020     		movs	r0, #0	@,
 394              	.LVL26:
 395 0008 7047     		bx	lr	@
 396              		.cfi_endproc
 397              	.LFE135:
 398              		.size	_stat, .-_stat
 399              		.section	.text._times,"ax",%progbits
 400              		.align	1
 401              		.global	_times
 402              		.thumb
 403              		.thumb_func
 404              		.type	_times, %function
 405              	_times:
 406              	.LFB136:
 187:Src/newlib_stubs.c **** 
 188:Src/newlib_stubs.c **** /*
 189:Src/newlib_stubs.c ****  times
 190:Src/newlib_stubs.c ****  Timing information for current process. Minimal implementation:
 191:Src/newlib_stubs.c ****  */
 192:Src/newlib_stubs.c **** 
 193:Src/newlib_stubs.c **** clock_t _times(struct tms *buf) {
 407              		.loc 1 193 0
 408              		.cfi_startproc
 409              		@ args = 0, pretend = 0, frame = 0
 410              		@ frame_needed = 0, uses_anonymous_args = 0
 411              		@ link register save eliminated.
 412              	.LVL27:
 194:Src/newlib_stubs.c ****     return -1;
 195:Src/newlib_stubs.c **** }
 413              		.loc 1 195 0
 414 0000 4FF0FF30 		mov	r0, #-1	@,
 415              	.LVL28:
 416 0004 7047     		bx	lr	@
 417              		.cfi_endproc
 418              	.LFE136:
 419              		.size	_times, .-_times
 420              		.section	.text._unlink,"ax",%progbits
 421              		.align	1
 422              		.global	_unlink
 423              		.thumb
 424              		.thumb_func
 425              		.type	_unlink, %function
 426              	_unlink:
 427              	.LFB137:
 196:Src/newlib_stubs.c **** 
 197:Src/newlib_stubs.c **** /*
 198:Src/newlib_stubs.c ****  unlink
ARM GAS  C:\cygwin\tmp\cc0cO0Hy.s 			page 12


 199:Src/newlib_stubs.c ****  Remove a file's directory entry. Minimal implementation:
 200:Src/newlib_stubs.c ****  */
 201:Src/newlib_stubs.c **** int _unlink(char *name) {
 428              		.loc 1 201 0
 429              		.cfi_startproc
 430              		@ args = 0, pretend = 0, frame = 0
 431              		@ frame_needed = 0, uses_anonymous_args = 0
 432              		@ link register save eliminated.
 433              	.LVL29:
 202:Src/newlib_stubs.c ****     errno = ENOENT;
 434              		.loc 1 202 0
 435 0000 024B     		ldr	r3, .L40	@ tmp112,
 436 0002 0222     		movs	r2, #2	@ tmp113,
 437 0004 1A60     		str	r2, [r3]	@ tmp113, errno
 203:Src/newlib_stubs.c ****     return -1;
 204:Src/newlib_stubs.c **** }
 438              		.loc 1 204 0
 439 0006 4FF0FF30 		mov	r0, #-1	@,
 440              	.LVL30:
 441 000a 7047     		bx	lr	@
 442              	.L41:
 443              		.align	2
 444              	.L40:
 445 000c 00000000 		.word	errno
 446              		.cfi_endproc
 447              	.LFE137:
 448              		.size	_unlink, .-_unlink
 449              		.section	.text._wait,"ax",%progbits
 450              		.align	1
 451              		.global	_wait
 452              		.thumb
 453              		.thumb_func
 454              		.type	_wait, %function
 455              	_wait:
 456              	.LFB138:
 205:Src/newlib_stubs.c **** 
 206:Src/newlib_stubs.c **** /*
 207:Src/newlib_stubs.c ****  wait
 208:Src/newlib_stubs.c ****  Wait for a child process. Minimal implementation:
 209:Src/newlib_stubs.c ****  */
 210:Src/newlib_stubs.c **** int _wait(int *status) {
 457              		.loc 1 210 0
 458              		.cfi_startproc
 459              		@ args = 0, pretend = 0, frame = 0
 460              		@ frame_needed = 0, uses_anonymous_args = 0
 461              		@ link register save eliminated.
 462              	.LVL31:
 211:Src/newlib_stubs.c ****     errno = ECHILD;
 463              		.loc 1 211 0
 464 0000 024B     		ldr	r3, .L43	@ tmp112,
 465 0002 0A22     		movs	r2, #10	@ tmp113,
 466 0004 1A60     		str	r2, [r3]	@ tmp113, errno
 212:Src/newlib_stubs.c ****     return -1;
 213:Src/newlib_stubs.c **** }
 467              		.loc 1 213 0
 468 0006 4FF0FF30 		mov	r0, #-1	@,
 469              	.LVL32:
ARM GAS  C:\cygwin\tmp\cc0cO0Hy.s 			page 13


 470 000a 7047     		bx	lr	@
 471              	.L44:
 472              		.align	2
 473              	.L43:
 474 000c 00000000 		.word	errno
 475              		.cfi_endproc
 476              	.LFE138:
 477              		.size	_wait, .-_wait
 478              		.section	.text._write,"ax",%progbits
 479              		.align	1
 480              		.global	_write
 481              		.thumb
 482              		.thumb_func
 483              		.type	_write, %function
 484              	_write:
 485              	.LFB139:
 214:Src/newlib_stubs.c **** 
 215:Src/newlib_stubs.c **** /*
 216:Src/newlib_stubs.c ****  write
 217:Src/newlib_stubs.c ****  Write a character to a file. `libc' subroutines will use this system routine for output to all fil
 218:Src/newlib_stubs.c ****  Returns -1 on error or number of bytes sent
 219:Src/newlib_stubs.c ****  */
 220:Src/newlib_stubs.c **** int _write(int file, char *ptr, int len) {
 486              		.loc 1 220 0
 487              		.cfi_startproc
 488              		@ args = 0, pretend = 0, frame = 0
 489              		@ frame_needed = 0, uses_anonymous_args = 0
 490              	.LVL33:
 221:Src/newlib_stubs.c ****     int n;
 222:Src/newlib_stubs.c ****     switch (file) {
 491              		.loc 1 222 0
 492 0000 0138     		subs	r0, r0, #1	@ tmp122, file,
 493              	.LVL34:
 494 0002 0128     		cmp	r0, #1	@ tmp122,
 220:Src/newlib_stubs.c ****     int n;
 495              		.loc 1 220 0
 496 0004 70B5     		push	{r4, r5, r6, lr}	@
 497              		.cfi_def_cfa_offset 16
 498              		.cfi_offset 4, -16
 499              		.cfi_offset 5, -12
 500              		.cfi_offset 6, -8
 501              		.cfi_offset 14, -4
 220:Src/newlib_stubs.c ****     int n;
 502              		.loc 1 220 0
 503 0006 0E46     		mov	r6, r1	@ ptr, ptr
 504 0008 1446     		mov	r4, r2	@ len, len
 505              		.loc 1 222 0
 506 000a 0AD8     		bhi	.L46	@,
 507 000c 0D46     		mov	r5, r1	@ ptr, ptr
 508              	.LVL35:
 509              	.L48:
 510 000e AB1B     		subs	r3, r5, r6	@ D.8146, ptr, ptr
 511              	.LVL36:
 223:Src/newlib_stubs.c ****     case STDOUT_FILENO: /*stdout*/
 224:Src/newlib_stubs.c ****     case STDERR_FILENO: /* stderr */
 225:Src/newlib_stubs.c ****         for (n = 0; n < len; n++) {
 512              		.loc 1 225 0 discriminator 1
ARM GAS  C:\cygwin\tmp\cc0cO0Hy.s 			page 14


 513 0010 A342     		cmp	r3, r4	@ D.8146, len
 514 0012 04DA     		bge	.L51	@,
 226:Src/newlib_stubs.c **** 					__io_putchar(*ptr++);
 515              		.loc 1 226 0 discriminator 3
 516 0014 15F8010B 		ldrb	r0, [r5], #1	@ zero_extendqisi2	@, MEM[base: ptr_13, offset: 4294967295B]
 517              	.LVL37:
 518 0018 FFF7FEFF 		bl	__io_putchar	@
 519              	.LVL38:
 520 001c F7E7     		b	.L48	@
 521              	.LVL39:
 522              	.L51:
 523 001e 2046     		mov	r0, r4	@ D.8143, len
 524 0020 70BD     		pop	{r4, r5, r6, pc}	@
 525              	.LVL40:
 526              	.L46:
 227:Src/newlib_stubs.c ****         }
 228:Src/newlib_stubs.c ****         break;
 229:Src/newlib_stubs.c ****     default:
 230:Src/newlib_stubs.c ****         errno = EBADF;
 527              		.loc 1 230 0
 528 0022 034B     		ldr	r3, .L52	@ tmp125,
 529 0024 0922     		movs	r2, #9	@ tmp126,
 530              	.LVL41:
 531 0026 1A60     		str	r2, [r3]	@ tmp126, errno
 231:Src/newlib_stubs.c ****         return -1;
 532              		.loc 1 231 0
 533 0028 4FF0FF30 		mov	r0, #-1	@ D.8143,
 232:Src/newlib_stubs.c ****     }
 233:Src/newlib_stubs.c ****     return len;
 234:Src/newlib_stubs.c **** }
 534              		.loc 1 234 0
 535 002c 70BD     		pop	{r4, r5, r6, pc}	@
 536              	.LVL42:
 537              	.L53:
 538 002e 00BF     		.align	2
 539              	.L52:
 540 0030 00000000 		.word	errno
 541              		.cfi_endproc
 542              	.LFE139:
 543              		.size	_write, .-_write
 544              		.section	.text._exit,"ax",%progbits
 545              		.align	1
 546              		.global	_exit
 547              		.thumb
 548              		.thumb_func
 549              		.type	_exit, %function
 550              	_exit:
 551              	.LFB123:
  30:Src/newlib_stubs.c ****     _write(1, "exit", 4);
 552              		.loc 1 30 0
 553              		.cfi_startproc
 554              		@ Volatile: function does not return.
 555              		@ args = 0, pretend = 0, frame = 0
 556              		@ frame_needed = 0, uses_anonymous_args = 0
 557              	.LVL43:
 558 0000 08B5     		push	{r3, lr}	@
 559              		.cfi_def_cfa_offset 8
ARM GAS  C:\cygwin\tmp\cc0cO0Hy.s 			page 15


 560              		.cfi_offset 3, -8
 561              		.cfi_offset 14, -4
  31:Src/newlib_stubs.c ****     while (1) {
 562              		.loc 1 31 0
 563 0002 0120     		movs	r0, #1	@,
 564              	.LVL44:
 565 0004 0249     		ldr	r1, .L56	@,
 566 0006 0422     		movs	r2, #4	@,
 567 0008 FFF7FEFF 		bl	_write	@
 568              	.LVL45:
 569              	.L55:
  34:Src/newlib_stubs.c **** }
 570              		.loc 1 34 0 discriminator 1
 571 000c FEE7     		b	.L55	@
 572              	.L57:
 573 000e 00BF     		.align	2
 574              	.L56:
 575 0010 00000000 		.word	.LC0
 576              		.cfi_endproc
 577              	.LFE123:
 578              		.size	_exit, .-_exit
 579              		.section	.text._sbrk,"ax",%progbits
 580              		.align	1
 581              		.global	_sbrk
 582              		.thumb
 583              		.thumb_func
 584              		.type	_sbrk, %function
 585              	_sbrk:
 586              	.LFB133:
 127:Src/newlib_stubs.c **** 
 587              		.loc 1 127 0
 588              		.cfi_startproc
 589              		@ args = 0, pretend = 0, frame = 0
 590              		@ frame_needed = 0, uses_anonymous_args = 0
 591              	.LVL46:
 592 0000 08B5     		push	{r3, lr}	@
 593              		.cfi_def_cfa_offset 8
 594              		.cfi_offset 3, -8
 595              		.cfi_offset 14, -4
 133:Src/newlib_stubs.c ****         heap_end = &_ebss;
 596              		.loc 1 133 0
 597 0002 0D4B     		ldr	r3, .L62	@ tmp119,
 598 0004 1A68     		ldr	r2, [r3]	@ heap_end, heap_end
 599 0006 0AB9     		cbnz	r2, .L59	@ heap_end,
 134:Src/newlib_stubs.c ****     }
 600              		.loc 1 134 0
 601 0008 0C4A     		ldr	r2, .L62+4	@ tmp122,
 602 000a 1A60     		str	r2, [r3]	@ tmp122, heap_end
 603              	.L59:
 136:Src/newlib_stubs.c **** 
 604              		.loc 1 136 0
 605 000c 1B68     		ldr	r3, [r3]	@ prev_heap_end, heap_end
 606              	.LVL47:
 607              	.LBB4:
 608              	.LBB5:
 609              		.file 2 "../STM32Cube_FW_F4_V1.4.0/Drivers/CMSIS/Include/core_cmFunc.h"
   1:../STM32Cube_FW_F4_V1.4.0/Drivers/CMSIS/Include/core_cmFunc.h **** /**************************************************************************//**
ARM GAS  C:\cygwin\tmp\cc0cO0Hy.s 			page 16


   2:../STM32Cube_FW_F4_V1.4.0/Drivers/CMSIS/Include/core_cmFunc.h ****  * @file     core_cmFunc.h
   3:../STM32Cube_FW_F4_V1.4.0/Drivers/CMSIS/Include/core_cmFunc.h ****  * @brief    CMSIS Cortex-M Core Function Access Header File
   4:../STM32Cube_FW_F4_V1.4.0/Drivers/CMSIS/Include/core_cmFunc.h ****  * @version  V4.00
   5:../STM32Cube_FW_F4_V1.4.0/Drivers/CMSIS/Include/core_cmFunc.h ****  * @date     28. August 2014
   6:../STM32Cube_FW_F4_V1.4.0/Drivers/CMSIS/Include/core_cmFunc.h ****  *
   7:../STM32Cube_FW_F4_V1.4.0/Drivers/CMSIS/Include/core_cmFunc.h ****  * @note
   8:../STM32Cube_FW_F4_V1.4.0/Drivers/CMSIS/Include/core_cmFunc.h ****  *
   9:../STM32Cube_FW_F4_V1.4.0/Drivers/CMSIS/Include/core_cmFunc.h ****  ******************************************************************************/
  10:../STM32Cube_FW_F4_V1.4.0/Drivers/CMSIS/Include/core_cmFunc.h **** /* Copyright (c) 2009 - 2014 ARM LIMITED
  11:../STM32Cube_FW_F4_V1.4.0/Drivers/CMSIS/Include/core_cmFunc.h **** 
  12:../STM32Cube_FW_F4_V1.4.0/Drivers/CMSIS/Include/core_cmFunc.h ****    All rights reserved.
  13:../STM32Cube_FW_F4_V1.4.0/Drivers/CMSIS/Include/core_cmFunc.h ****    Redistribution and use in source and binary forms, with or without
  14:../STM32Cube_FW_F4_V1.4.0/Drivers/CMSIS/Include/core_cmFunc.h ****    modification, are permitted provided that the following conditions are met:
  15:../STM32Cube_FW_F4_V1.4.0/Drivers/CMSIS/Include/core_cmFunc.h ****    - Redistributions of source code must retain the above copyright
  16:../STM32Cube_FW_F4_V1.4.0/Drivers/CMSIS/Include/core_cmFunc.h ****      notice, this list of conditions and the following disclaimer.
  17:../STM32Cube_FW_F4_V1.4.0/Drivers/CMSIS/Include/core_cmFunc.h ****    - Redistributions in binary form must reproduce the above copyright
  18:../STM32Cube_FW_F4_V1.4.0/Drivers/CMSIS/Include/core_cmFunc.h ****      notice, this list of conditions and the following disclaimer in the
  19:../STM32Cube_FW_F4_V1.4.0/Drivers/CMSIS/Include/core_cmFunc.h ****      documentation and/or other materials provided with the distribution.
  20:../STM32Cube_FW_F4_V1.4.0/Drivers/CMSIS/Include/core_cmFunc.h ****    - Neither the name of ARM nor the names of its contributors may be used
  21:../STM32Cube_FW_F4_V1.4.0/Drivers/CMSIS/Include/core_cmFunc.h ****      to endorse or promote products derived from this software without
  22:../STM32Cube_FW_F4_V1.4.0/Drivers/CMSIS/Include/core_cmFunc.h ****      specific prior written permission.
  23:../STM32Cube_FW_F4_V1.4.0/Drivers/CMSIS/Include/core_cmFunc.h ****    *
  24:../STM32Cube_FW_F4_V1.4.0/Drivers/CMSIS/Include/core_cmFunc.h ****    THIS SOFTWARE IS PROVIDED BY THE COPYRIGHT HOLDERS AND CONTRIBUTORS "AS IS"
  25:../STM32Cube_FW_F4_V1.4.0/Drivers/CMSIS/Include/core_cmFunc.h ****    AND ANY EXPRESS OR IMPLIED WARRANTIES, INCLUDING, BUT NOT LIMITED TO, THE
  26:../STM32Cube_FW_F4_V1.4.0/Drivers/CMSIS/Include/core_cmFunc.h ****    IMPLIED WARRANTIES OF MERCHANTABILITY AND FITNESS FOR A PARTICULAR PURPOSE
  27:../STM32Cube_FW_F4_V1.4.0/Drivers/CMSIS/Include/core_cmFunc.h ****    ARE DISCLAIMED. IN NO EVENT SHALL COPYRIGHT HOLDERS AND CONTRIBUTORS BE
  28:../STM32Cube_FW_F4_V1.4.0/Drivers/CMSIS/Include/core_cmFunc.h ****    LIABLE FOR ANY DIRECT, INDIRECT, INCIDENTAL, SPECIAL, EXEMPLARY, OR
  29:../STM32Cube_FW_F4_V1.4.0/Drivers/CMSIS/Include/core_cmFunc.h ****    CONSEQUENTIAL DAMAGES (INCLUDING, BUT NOT LIMITED TO, PROCUREMENT OF
  30:../STM32Cube_FW_F4_V1.4.0/Drivers/CMSIS/Include/core_cmFunc.h ****    SUBSTITUTE GOODS OR SERVICES; LOSS OF USE, DATA, OR PROFITS; OR BUSINESS
  31:../STM32Cube_FW_F4_V1.4.0/Drivers/CMSIS/Include/core_cmFunc.h ****    INTERRUPTION) HOWEVER CAUSED AND ON ANY THEORY OF LIABILITY, WHETHER IN
  32:../STM32Cube_FW_F4_V1.4.0/Drivers/CMSIS/Include/core_cmFunc.h ****    CONTRACT, STRICT LIABILITY, OR TORT (INCLUDING NEGLIGENCE OR OTHERWISE)
  33:../STM32Cube_FW_F4_V1.4.0/Drivers/CMSIS/Include/core_cmFunc.h ****    ARISING IN ANY WAY OUT OF THE USE OF THIS SOFTWARE, EVEN IF ADVISED OF THE
  34:../STM32Cube_FW_F4_V1.4.0/Drivers/CMSIS/Include/core_cmFunc.h ****    POSSIBILITY OF SUCH DAMAGE.
  35:../STM32Cube_FW_F4_V1.4.0/Drivers/CMSIS/Include/core_cmFunc.h ****    ---------------------------------------------------------------------------*/
  36:../STM32Cube_FW_F4_V1.4.0/Drivers/CMSIS/Include/core_cmFunc.h **** 
  37:../STM32Cube_FW_F4_V1.4.0/Drivers/CMSIS/Include/core_cmFunc.h **** 
  38:../STM32Cube_FW_F4_V1.4.0/Drivers/CMSIS/Include/core_cmFunc.h **** #ifndef __CORE_CMFUNC_H
  39:../STM32Cube_FW_F4_V1.4.0/Drivers/CMSIS/Include/core_cmFunc.h **** #define __CORE_CMFUNC_H
  40:../STM32Cube_FW_F4_V1.4.0/Drivers/CMSIS/Include/core_cmFunc.h **** 
  41:../STM32Cube_FW_F4_V1.4.0/Drivers/CMSIS/Include/core_cmFunc.h **** 
  42:../STM32Cube_FW_F4_V1.4.0/Drivers/CMSIS/Include/core_cmFunc.h **** /* ###########################  Core Function Access  ########################### */
  43:../STM32Cube_FW_F4_V1.4.0/Drivers/CMSIS/Include/core_cmFunc.h **** /** \ingroup  CMSIS_Core_FunctionInterface
  44:../STM32Cube_FW_F4_V1.4.0/Drivers/CMSIS/Include/core_cmFunc.h ****     \defgroup CMSIS_Core_RegAccFunctions CMSIS Core Register Access Functions
  45:../STM32Cube_FW_F4_V1.4.0/Drivers/CMSIS/Include/core_cmFunc.h ****   @{
  46:../STM32Cube_FW_F4_V1.4.0/Drivers/CMSIS/Include/core_cmFunc.h ****  */
  47:../STM32Cube_FW_F4_V1.4.0/Drivers/CMSIS/Include/core_cmFunc.h **** 
  48:../STM32Cube_FW_F4_V1.4.0/Drivers/CMSIS/Include/core_cmFunc.h **** #if   defined ( __CC_ARM ) /*------------------RealView Compiler -----------------*/
  49:../STM32Cube_FW_F4_V1.4.0/Drivers/CMSIS/Include/core_cmFunc.h **** /* ARM armcc specific functions */
  50:../STM32Cube_FW_F4_V1.4.0/Drivers/CMSIS/Include/core_cmFunc.h **** 
  51:../STM32Cube_FW_F4_V1.4.0/Drivers/CMSIS/Include/core_cmFunc.h **** #if (__ARMCC_VERSION < 400677)
  52:../STM32Cube_FW_F4_V1.4.0/Drivers/CMSIS/Include/core_cmFunc.h ****   #error "Please use ARM Compiler Toolchain V4.0.677 or later!"
  53:../STM32Cube_FW_F4_V1.4.0/Drivers/CMSIS/Include/core_cmFunc.h **** #endif
  54:../STM32Cube_FW_F4_V1.4.0/Drivers/CMSIS/Include/core_cmFunc.h **** 
  55:../STM32Cube_FW_F4_V1.4.0/Drivers/CMSIS/Include/core_cmFunc.h **** /* intrinsic void __enable_irq();     */
  56:../STM32Cube_FW_F4_V1.4.0/Drivers/CMSIS/Include/core_cmFunc.h **** /* intrinsic void __disable_irq();    */
  57:../STM32Cube_FW_F4_V1.4.0/Drivers/CMSIS/Include/core_cmFunc.h **** 
  58:../STM32Cube_FW_F4_V1.4.0/Drivers/CMSIS/Include/core_cmFunc.h **** /** \brief  Get Control Register
ARM GAS  C:\cygwin\tmp\cc0cO0Hy.s 			page 17


  59:../STM32Cube_FW_F4_V1.4.0/Drivers/CMSIS/Include/core_cmFunc.h **** 
  60:../STM32Cube_FW_F4_V1.4.0/Drivers/CMSIS/Include/core_cmFunc.h ****     This function returns the content of the Control Register.
  61:../STM32Cube_FW_F4_V1.4.0/Drivers/CMSIS/Include/core_cmFunc.h **** 
  62:../STM32Cube_FW_F4_V1.4.0/Drivers/CMSIS/Include/core_cmFunc.h ****     \return               Control Register value
  63:../STM32Cube_FW_F4_V1.4.0/Drivers/CMSIS/Include/core_cmFunc.h ****  */
  64:../STM32Cube_FW_F4_V1.4.0/Drivers/CMSIS/Include/core_cmFunc.h **** __STATIC_INLINE uint32_t __get_CONTROL(void)
  65:../STM32Cube_FW_F4_V1.4.0/Drivers/CMSIS/Include/core_cmFunc.h **** {
  66:../STM32Cube_FW_F4_V1.4.0/Drivers/CMSIS/Include/core_cmFunc.h ****   register uint32_t __regControl         __ASM("control");
  67:../STM32Cube_FW_F4_V1.4.0/Drivers/CMSIS/Include/core_cmFunc.h ****   return(__regControl);
  68:../STM32Cube_FW_F4_V1.4.0/Drivers/CMSIS/Include/core_cmFunc.h **** }
  69:../STM32Cube_FW_F4_V1.4.0/Drivers/CMSIS/Include/core_cmFunc.h **** 
  70:../STM32Cube_FW_F4_V1.4.0/Drivers/CMSIS/Include/core_cmFunc.h **** 
  71:../STM32Cube_FW_F4_V1.4.0/Drivers/CMSIS/Include/core_cmFunc.h **** /** \brief  Set Control Register
  72:../STM32Cube_FW_F4_V1.4.0/Drivers/CMSIS/Include/core_cmFunc.h **** 
  73:../STM32Cube_FW_F4_V1.4.0/Drivers/CMSIS/Include/core_cmFunc.h ****     This function writes the given value to the Control Register.
  74:../STM32Cube_FW_F4_V1.4.0/Drivers/CMSIS/Include/core_cmFunc.h **** 
  75:../STM32Cube_FW_F4_V1.4.0/Drivers/CMSIS/Include/core_cmFunc.h ****     \param [in]    control  Control Register value to set
  76:../STM32Cube_FW_F4_V1.4.0/Drivers/CMSIS/Include/core_cmFunc.h ****  */
  77:../STM32Cube_FW_F4_V1.4.0/Drivers/CMSIS/Include/core_cmFunc.h **** __STATIC_INLINE void __set_CONTROL(uint32_t control)
  78:../STM32Cube_FW_F4_V1.4.0/Drivers/CMSIS/Include/core_cmFunc.h **** {
  79:../STM32Cube_FW_F4_V1.4.0/Drivers/CMSIS/Include/core_cmFunc.h ****   register uint32_t __regControl         __ASM("control");
  80:../STM32Cube_FW_F4_V1.4.0/Drivers/CMSIS/Include/core_cmFunc.h ****   __regControl = control;
  81:../STM32Cube_FW_F4_V1.4.0/Drivers/CMSIS/Include/core_cmFunc.h **** }
  82:../STM32Cube_FW_F4_V1.4.0/Drivers/CMSIS/Include/core_cmFunc.h **** 
  83:../STM32Cube_FW_F4_V1.4.0/Drivers/CMSIS/Include/core_cmFunc.h **** 
  84:../STM32Cube_FW_F4_V1.4.0/Drivers/CMSIS/Include/core_cmFunc.h **** /** \brief  Get IPSR Register
  85:../STM32Cube_FW_F4_V1.4.0/Drivers/CMSIS/Include/core_cmFunc.h **** 
  86:../STM32Cube_FW_F4_V1.4.0/Drivers/CMSIS/Include/core_cmFunc.h ****     This function returns the content of the IPSR Register.
  87:../STM32Cube_FW_F4_V1.4.0/Drivers/CMSIS/Include/core_cmFunc.h **** 
  88:../STM32Cube_FW_F4_V1.4.0/Drivers/CMSIS/Include/core_cmFunc.h ****     \return               IPSR Register value
  89:../STM32Cube_FW_F4_V1.4.0/Drivers/CMSIS/Include/core_cmFunc.h ****  */
  90:../STM32Cube_FW_F4_V1.4.0/Drivers/CMSIS/Include/core_cmFunc.h **** __STATIC_INLINE uint32_t __get_IPSR(void)
  91:../STM32Cube_FW_F4_V1.4.0/Drivers/CMSIS/Include/core_cmFunc.h **** {
  92:../STM32Cube_FW_F4_V1.4.0/Drivers/CMSIS/Include/core_cmFunc.h ****   register uint32_t __regIPSR          __ASM("ipsr");
  93:../STM32Cube_FW_F4_V1.4.0/Drivers/CMSIS/Include/core_cmFunc.h ****   return(__regIPSR);
  94:../STM32Cube_FW_F4_V1.4.0/Drivers/CMSIS/Include/core_cmFunc.h **** }
  95:../STM32Cube_FW_F4_V1.4.0/Drivers/CMSIS/Include/core_cmFunc.h **** 
  96:../STM32Cube_FW_F4_V1.4.0/Drivers/CMSIS/Include/core_cmFunc.h **** 
  97:../STM32Cube_FW_F4_V1.4.0/Drivers/CMSIS/Include/core_cmFunc.h **** /** \brief  Get APSR Register
  98:../STM32Cube_FW_F4_V1.4.0/Drivers/CMSIS/Include/core_cmFunc.h **** 
  99:../STM32Cube_FW_F4_V1.4.0/Drivers/CMSIS/Include/core_cmFunc.h ****     This function returns the content of the APSR Register.
 100:../STM32Cube_FW_F4_V1.4.0/Drivers/CMSIS/Include/core_cmFunc.h **** 
 101:../STM32Cube_FW_F4_V1.4.0/Drivers/CMSIS/Include/core_cmFunc.h ****     \return               APSR Register value
 102:../STM32Cube_FW_F4_V1.4.0/Drivers/CMSIS/Include/core_cmFunc.h ****  */
 103:../STM32Cube_FW_F4_V1.4.0/Drivers/CMSIS/Include/core_cmFunc.h **** __STATIC_INLINE uint32_t __get_APSR(void)
 104:../STM32Cube_FW_F4_V1.4.0/Drivers/CMSIS/Include/core_cmFunc.h **** {
 105:../STM32Cube_FW_F4_V1.4.0/Drivers/CMSIS/Include/core_cmFunc.h ****   register uint32_t __regAPSR          __ASM("apsr");
 106:../STM32Cube_FW_F4_V1.4.0/Drivers/CMSIS/Include/core_cmFunc.h ****   return(__regAPSR);
 107:../STM32Cube_FW_F4_V1.4.0/Drivers/CMSIS/Include/core_cmFunc.h **** }
 108:../STM32Cube_FW_F4_V1.4.0/Drivers/CMSIS/Include/core_cmFunc.h **** 
 109:../STM32Cube_FW_F4_V1.4.0/Drivers/CMSIS/Include/core_cmFunc.h **** 
 110:../STM32Cube_FW_F4_V1.4.0/Drivers/CMSIS/Include/core_cmFunc.h **** /** \brief  Get xPSR Register
 111:../STM32Cube_FW_F4_V1.4.0/Drivers/CMSIS/Include/core_cmFunc.h **** 
 112:../STM32Cube_FW_F4_V1.4.0/Drivers/CMSIS/Include/core_cmFunc.h ****     This function returns the content of the xPSR Register.
 113:../STM32Cube_FW_F4_V1.4.0/Drivers/CMSIS/Include/core_cmFunc.h **** 
 114:../STM32Cube_FW_F4_V1.4.0/Drivers/CMSIS/Include/core_cmFunc.h ****     \return               xPSR Register value
 115:../STM32Cube_FW_F4_V1.4.0/Drivers/CMSIS/Include/core_cmFunc.h ****  */
ARM GAS  C:\cygwin\tmp\cc0cO0Hy.s 			page 18


 116:../STM32Cube_FW_F4_V1.4.0/Drivers/CMSIS/Include/core_cmFunc.h **** __STATIC_INLINE uint32_t __get_xPSR(void)
 117:../STM32Cube_FW_F4_V1.4.0/Drivers/CMSIS/Include/core_cmFunc.h **** {
 118:../STM32Cube_FW_F4_V1.4.0/Drivers/CMSIS/Include/core_cmFunc.h ****   register uint32_t __regXPSR          __ASM("xpsr");
 119:../STM32Cube_FW_F4_V1.4.0/Drivers/CMSIS/Include/core_cmFunc.h ****   return(__regXPSR);
 120:../STM32Cube_FW_F4_V1.4.0/Drivers/CMSIS/Include/core_cmFunc.h **** }
 121:../STM32Cube_FW_F4_V1.4.0/Drivers/CMSIS/Include/core_cmFunc.h **** 
 122:../STM32Cube_FW_F4_V1.4.0/Drivers/CMSIS/Include/core_cmFunc.h **** 
 123:../STM32Cube_FW_F4_V1.4.0/Drivers/CMSIS/Include/core_cmFunc.h **** /** \brief  Get Process Stack Pointer
 124:../STM32Cube_FW_F4_V1.4.0/Drivers/CMSIS/Include/core_cmFunc.h **** 
 125:../STM32Cube_FW_F4_V1.4.0/Drivers/CMSIS/Include/core_cmFunc.h ****     This function returns the current value of the Process Stack Pointer (PSP).
 126:../STM32Cube_FW_F4_V1.4.0/Drivers/CMSIS/Include/core_cmFunc.h **** 
 127:../STM32Cube_FW_F4_V1.4.0/Drivers/CMSIS/Include/core_cmFunc.h ****     \return               PSP Register value
 128:../STM32Cube_FW_F4_V1.4.0/Drivers/CMSIS/Include/core_cmFunc.h ****  */
 129:../STM32Cube_FW_F4_V1.4.0/Drivers/CMSIS/Include/core_cmFunc.h **** __STATIC_INLINE uint32_t __get_PSP(void)
 130:../STM32Cube_FW_F4_V1.4.0/Drivers/CMSIS/Include/core_cmFunc.h **** {
 131:../STM32Cube_FW_F4_V1.4.0/Drivers/CMSIS/Include/core_cmFunc.h ****   register uint32_t __regProcessStackPointer  __ASM("psp");
 132:../STM32Cube_FW_F4_V1.4.0/Drivers/CMSIS/Include/core_cmFunc.h ****   return(__regProcessStackPointer);
 133:../STM32Cube_FW_F4_V1.4.0/Drivers/CMSIS/Include/core_cmFunc.h **** }
 134:../STM32Cube_FW_F4_V1.4.0/Drivers/CMSIS/Include/core_cmFunc.h **** 
 135:../STM32Cube_FW_F4_V1.4.0/Drivers/CMSIS/Include/core_cmFunc.h **** 
 136:../STM32Cube_FW_F4_V1.4.0/Drivers/CMSIS/Include/core_cmFunc.h **** /** \brief  Set Process Stack Pointer
 137:../STM32Cube_FW_F4_V1.4.0/Drivers/CMSIS/Include/core_cmFunc.h **** 
 138:../STM32Cube_FW_F4_V1.4.0/Drivers/CMSIS/Include/core_cmFunc.h ****     This function assigns the given value to the Process Stack Pointer (PSP).
 139:../STM32Cube_FW_F4_V1.4.0/Drivers/CMSIS/Include/core_cmFunc.h **** 
 140:../STM32Cube_FW_F4_V1.4.0/Drivers/CMSIS/Include/core_cmFunc.h ****     \param [in]    topOfProcStack  Process Stack Pointer value to set
 141:../STM32Cube_FW_F4_V1.4.0/Drivers/CMSIS/Include/core_cmFunc.h ****  */
 142:../STM32Cube_FW_F4_V1.4.0/Drivers/CMSIS/Include/core_cmFunc.h **** __STATIC_INLINE void __set_PSP(uint32_t topOfProcStack)
 143:../STM32Cube_FW_F4_V1.4.0/Drivers/CMSIS/Include/core_cmFunc.h **** {
 144:../STM32Cube_FW_F4_V1.4.0/Drivers/CMSIS/Include/core_cmFunc.h ****   register uint32_t __regProcessStackPointer  __ASM("psp");
 145:../STM32Cube_FW_F4_V1.4.0/Drivers/CMSIS/Include/core_cmFunc.h ****   __regProcessStackPointer = topOfProcStack;
 146:../STM32Cube_FW_F4_V1.4.0/Drivers/CMSIS/Include/core_cmFunc.h **** }
 147:../STM32Cube_FW_F4_V1.4.0/Drivers/CMSIS/Include/core_cmFunc.h **** 
 148:../STM32Cube_FW_F4_V1.4.0/Drivers/CMSIS/Include/core_cmFunc.h **** 
 149:../STM32Cube_FW_F4_V1.4.0/Drivers/CMSIS/Include/core_cmFunc.h **** /** \brief  Get Main Stack Pointer
 150:../STM32Cube_FW_F4_V1.4.0/Drivers/CMSIS/Include/core_cmFunc.h **** 
 151:../STM32Cube_FW_F4_V1.4.0/Drivers/CMSIS/Include/core_cmFunc.h ****     This function returns the current value of the Main Stack Pointer (MSP).
 152:../STM32Cube_FW_F4_V1.4.0/Drivers/CMSIS/Include/core_cmFunc.h **** 
 153:../STM32Cube_FW_F4_V1.4.0/Drivers/CMSIS/Include/core_cmFunc.h ****     \return               MSP Register value
 154:../STM32Cube_FW_F4_V1.4.0/Drivers/CMSIS/Include/core_cmFunc.h ****  */
 155:../STM32Cube_FW_F4_V1.4.0/Drivers/CMSIS/Include/core_cmFunc.h **** __STATIC_INLINE uint32_t __get_MSP(void)
 156:../STM32Cube_FW_F4_V1.4.0/Drivers/CMSIS/Include/core_cmFunc.h **** {
 157:../STM32Cube_FW_F4_V1.4.0/Drivers/CMSIS/Include/core_cmFunc.h ****   register uint32_t __regMainStackPointer     __ASM("msp");
 158:../STM32Cube_FW_F4_V1.4.0/Drivers/CMSIS/Include/core_cmFunc.h ****   return(__regMainStackPointer);
 159:../STM32Cube_FW_F4_V1.4.0/Drivers/CMSIS/Include/core_cmFunc.h **** }
 160:../STM32Cube_FW_F4_V1.4.0/Drivers/CMSIS/Include/core_cmFunc.h **** 
 161:../STM32Cube_FW_F4_V1.4.0/Drivers/CMSIS/Include/core_cmFunc.h **** 
 162:../STM32Cube_FW_F4_V1.4.0/Drivers/CMSIS/Include/core_cmFunc.h **** /** \brief  Set Main Stack Pointer
 163:../STM32Cube_FW_F4_V1.4.0/Drivers/CMSIS/Include/core_cmFunc.h **** 
 164:../STM32Cube_FW_F4_V1.4.0/Drivers/CMSIS/Include/core_cmFunc.h ****     This function assigns the given value to the Main Stack Pointer (MSP).
 165:../STM32Cube_FW_F4_V1.4.0/Drivers/CMSIS/Include/core_cmFunc.h **** 
 166:../STM32Cube_FW_F4_V1.4.0/Drivers/CMSIS/Include/core_cmFunc.h ****     \param [in]    topOfMainStack  Main Stack Pointer value to set
 167:../STM32Cube_FW_F4_V1.4.0/Drivers/CMSIS/Include/core_cmFunc.h ****  */
 168:../STM32Cube_FW_F4_V1.4.0/Drivers/CMSIS/Include/core_cmFunc.h **** __STATIC_INLINE void __set_MSP(uint32_t topOfMainStack)
 169:../STM32Cube_FW_F4_V1.4.0/Drivers/CMSIS/Include/core_cmFunc.h **** {
 170:../STM32Cube_FW_F4_V1.4.0/Drivers/CMSIS/Include/core_cmFunc.h ****   register uint32_t __regMainStackPointer     __ASM("msp");
 171:../STM32Cube_FW_F4_V1.4.0/Drivers/CMSIS/Include/core_cmFunc.h ****   __regMainStackPointer = topOfMainStack;
 172:../STM32Cube_FW_F4_V1.4.0/Drivers/CMSIS/Include/core_cmFunc.h **** }
ARM GAS  C:\cygwin\tmp\cc0cO0Hy.s 			page 19


 173:../STM32Cube_FW_F4_V1.4.0/Drivers/CMSIS/Include/core_cmFunc.h **** 
 174:../STM32Cube_FW_F4_V1.4.0/Drivers/CMSIS/Include/core_cmFunc.h **** 
 175:../STM32Cube_FW_F4_V1.4.0/Drivers/CMSIS/Include/core_cmFunc.h **** /** \brief  Get Priority Mask
 176:../STM32Cube_FW_F4_V1.4.0/Drivers/CMSIS/Include/core_cmFunc.h **** 
 177:../STM32Cube_FW_F4_V1.4.0/Drivers/CMSIS/Include/core_cmFunc.h ****     This function returns the current state of the priority mask bit from the Priority Mask Registe
 178:../STM32Cube_FW_F4_V1.4.0/Drivers/CMSIS/Include/core_cmFunc.h **** 
 179:../STM32Cube_FW_F4_V1.4.0/Drivers/CMSIS/Include/core_cmFunc.h ****     \return               Priority Mask value
 180:../STM32Cube_FW_F4_V1.4.0/Drivers/CMSIS/Include/core_cmFunc.h ****  */
 181:../STM32Cube_FW_F4_V1.4.0/Drivers/CMSIS/Include/core_cmFunc.h **** __STATIC_INLINE uint32_t __get_PRIMASK(void)
 182:../STM32Cube_FW_F4_V1.4.0/Drivers/CMSIS/Include/core_cmFunc.h **** {
 183:../STM32Cube_FW_F4_V1.4.0/Drivers/CMSIS/Include/core_cmFunc.h ****   register uint32_t __regPriMask         __ASM("primask");
 184:../STM32Cube_FW_F4_V1.4.0/Drivers/CMSIS/Include/core_cmFunc.h ****   return(__regPriMask);
 185:../STM32Cube_FW_F4_V1.4.0/Drivers/CMSIS/Include/core_cmFunc.h **** }
 186:../STM32Cube_FW_F4_V1.4.0/Drivers/CMSIS/Include/core_cmFunc.h **** 
 187:../STM32Cube_FW_F4_V1.4.0/Drivers/CMSIS/Include/core_cmFunc.h **** 
 188:../STM32Cube_FW_F4_V1.4.0/Drivers/CMSIS/Include/core_cmFunc.h **** /** \brief  Set Priority Mask
 189:../STM32Cube_FW_F4_V1.4.0/Drivers/CMSIS/Include/core_cmFunc.h **** 
 190:../STM32Cube_FW_F4_V1.4.0/Drivers/CMSIS/Include/core_cmFunc.h ****     This function assigns the given value to the Priority Mask Register.
 191:../STM32Cube_FW_F4_V1.4.0/Drivers/CMSIS/Include/core_cmFunc.h **** 
 192:../STM32Cube_FW_F4_V1.4.0/Drivers/CMSIS/Include/core_cmFunc.h ****     \param [in]    priMask  Priority Mask
 193:../STM32Cube_FW_F4_V1.4.0/Drivers/CMSIS/Include/core_cmFunc.h ****  */
 194:../STM32Cube_FW_F4_V1.4.0/Drivers/CMSIS/Include/core_cmFunc.h **** __STATIC_INLINE void __set_PRIMASK(uint32_t priMask)
 195:../STM32Cube_FW_F4_V1.4.0/Drivers/CMSIS/Include/core_cmFunc.h **** {
 196:../STM32Cube_FW_F4_V1.4.0/Drivers/CMSIS/Include/core_cmFunc.h ****   register uint32_t __regPriMask         __ASM("primask");
 197:../STM32Cube_FW_F4_V1.4.0/Drivers/CMSIS/Include/core_cmFunc.h ****   __regPriMask = (priMask);
 198:../STM32Cube_FW_F4_V1.4.0/Drivers/CMSIS/Include/core_cmFunc.h **** }
 199:../STM32Cube_FW_F4_V1.4.0/Drivers/CMSIS/Include/core_cmFunc.h **** 
 200:../STM32Cube_FW_F4_V1.4.0/Drivers/CMSIS/Include/core_cmFunc.h **** 
 201:../STM32Cube_FW_F4_V1.4.0/Drivers/CMSIS/Include/core_cmFunc.h **** #if       (__CORTEX_M >= 0x03) || (__CORTEX_SC >= 300)
 202:../STM32Cube_FW_F4_V1.4.0/Drivers/CMSIS/Include/core_cmFunc.h **** 
 203:../STM32Cube_FW_F4_V1.4.0/Drivers/CMSIS/Include/core_cmFunc.h **** /** \brief  Enable FIQ
 204:../STM32Cube_FW_F4_V1.4.0/Drivers/CMSIS/Include/core_cmFunc.h **** 
 205:../STM32Cube_FW_F4_V1.4.0/Drivers/CMSIS/Include/core_cmFunc.h ****     This function enables FIQ interrupts by clearing the F-bit in the CPSR.
 206:../STM32Cube_FW_F4_V1.4.0/Drivers/CMSIS/Include/core_cmFunc.h ****     Can only be executed in Privileged modes.
 207:../STM32Cube_FW_F4_V1.4.0/Drivers/CMSIS/Include/core_cmFunc.h ****  */
 208:../STM32Cube_FW_F4_V1.4.0/Drivers/CMSIS/Include/core_cmFunc.h **** #define __enable_fault_irq                __enable_fiq
 209:../STM32Cube_FW_F4_V1.4.0/Drivers/CMSIS/Include/core_cmFunc.h **** 
 210:../STM32Cube_FW_F4_V1.4.0/Drivers/CMSIS/Include/core_cmFunc.h **** 
 211:../STM32Cube_FW_F4_V1.4.0/Drivers/CMSIS/Include/core_cmFunc.h **** /** \brief  Disable FIQ
 212:../STM32Cube_FW_F4_V1.4.0/Drivers/CMSIS/Include/core_cmFunc.h **** 
 213:../STM32Cube_FW_F4_V1.4.0/Drivers/CMSIS/Include/core_cmFunc.h ****     This function disables FIQ interrupts by setting the F-bit in the CPSR.
 214:../STM32Cube_FW_F4_V1.4.0/Drivers/CMSIS/Include/core_cmFunc.h ****     Can only be executed in Privileged modes.
 215:../STM32Cube_FW_F4_V1.4.0/Drivers/CMSIS/Include/core_cmFunc.h ****  */
 216:../STM32Cube_FW_F4_V1.4.0/Drivers/CMSIS/Include/core_cmFunc.h **** #define __disable_fault_irq               __disable_fiq
 217:../STM32Cube_FW_F4_V1.4.0/Drivers/CMSIS/Include/core_cmFunc.h **** 
 218:../STM32Cube_FW_F4_V1.4.0/Drivers/CMSIS/Include/core_cmFunc.h **** 
 219:../STM32Cube_FW_F4_V1.4.0/Drivers/CMSIS/Include/core_cmFunc.h **** /** \brief  Get Base Priority
 220:../STM32Cube_FW_F4_V1.4.0/Drivers/CMSIS/Include/core_cmFunc.h **** 
 221:../STM32Cube_FW_F4_V1.4.0/Drivers/CMSIS/Include/core_cmFunc.h ****     This function returns the current value of the Base Priority register.
 222:../STM32Cube_FW_F4_V1.4.0/Drivers/CMSIS/Include/core_cmFunc.h **** 
 223:../STM32Cube_FW_F4_V1.4.0/Drivers/CMSIS/Include/core_cmFunc.h ****     \return               Base Priority register value
 224:../STM32Cube_FW_F4_V1.4.0/Drivers/CMSIS/Include/core_cmFunc.h ****  */
 225:../STM32Cube_FW_F4_V1.4.0/Drivers/CMSIS/Include/core_cmFunc.h **** __STATIC_INLINE uint32_t  __get_BASEPRI(void)
 226:../STM32Cube_FW_F4_V1.4.0/Drivers/CMSIS/Include/core_cmFunc.h **** {
 227:../STM32Cube_FW_F4_V1.4.0/Drivers/CMSIS/Include/core_cmFunc.h ****   register uint32_t __regBasePri         __ASM("basepri");
 228:../STM32Cube_FW_F4_V1.4.0/Drivers/CMSIS/Include/core_cmFunc.h ****   return(__regBasePri);
 229:../STM32Cube_FW_F4_V1.4.0/Drivers/CMSIS/Include/core_cmFunc.h **** }
ARM GAS  C:\cygwin\tmp\cc0cO0Hy.s 			page 20


 230:../STM32Cube_FW_F4_V1.4.0/Drivers/CMSIS/Include/core_cmFunc.h **** 
 231:../STM32Cube_FW_F4_V1.4.0/Drivers/CMSIS/Include/core_cmFunc.h **** 
 232:../STM32Cube_FW_F4_V1.4.0/Drivers/CMSIS/Include/core_cmFunc.h **** /** \brief  Set Base Priority
 233:../STM32Cube_FW_F4_V1.4.0/Drivers/CMSIS/Include/core_cmFunc.h **** 
 234:../STM32Cube_FW_F4_V1.4.0/Drivers/CMSIS/Include/core_cmFunc.h ****     This function assigns the given value to the Base Priority register.
 235:../STM32Cube_FW_F4_V1.4.0/Drivers/CMSIS/Include/core_cmFunc.h **** 
 236:../STM32Cube_FW_F4_V1.4.0/Drivers/CMSIS/Include/core_cmFunc.h ****     \param [in]    basePri  Base Priority value to set
 237:../STM32Cube_FW_F4_V1.4.0/Drivers/CMSIS/Include/core_cmFunc.h ****  */
 238:../STM32Cube_FW_F4_V1.4.0/Drivers/CMSIS/Include/core_cmFunc.h **** __STATIC_INLINE void __set_BASEPRI(uint32_t basePri)
 239:../STM32Cube_FW_F4_V1.4.0/Drivers/CMSIS/Include/core_cmFunc.h **** {
 240:../STM32Cube_FW_F4_V1.4.0/Drivers/CMSIS/Include/core_cmFunc.h ****   register uint32_t __regBasePri         __ASM("basepri");
 241:../STM32Cube_FW_F4_V1.4.0/Drivers/CMSIS/Include/core_cmFunc.h ****   __regBasePri = (basePri & 0xff);
 242:../STM32Cube_FW_F4_V1.4.0/Drivers/CMSIS/Include/core_cmFunc.h **** }
 243:../STM32Cube_FW_F4_V1.4.0/Drivers/CMSIS/Include/core_cmFunc.h **** 
 244:../STM32Cube_FW_F4_V1.4.0/Drivers/CMSIS/Include/core_cmFunc.h **** 
 245:../STM32Cube_FW_F4_V1.4.0/Drivers/CMSIS/Include/core_cmFunc.h **** /** \brief  Get Fault Mask
 246:../STM32Cube_FW_F4_V1.4.0/Drivers/CMSIS/Include/core_cmFunc.h **** 
 247:../STM32Cube_FW_F4_V1.4.0/Drivers/CMSIS/Include/core_cmFunc.h ****     This function returns the current value of the Fault Mask register.
 248:../STM32Cube_FW_F4_V1.4.0/Drivers/CMSIS/Include/core_cmFunc.h **** 
 249:../STM32Cube_FW_F4_V1.4.0/Drivers/CMSIS/Include/core_cmFunc.h ****     \return               Fault Mask register value
 250:../STM32Cube_FW_F4_V1.4.0/Drivers/CMSIS/Include/core_cmFunc.h ****  */
 251:../STM32Cube_FW_F4_V1.4.0/Drivers/CMSIS/Include/core_cmFunc.h **** __STATIC_INLINE uint32_t __get_FAULTMASK(void)
 252:../STM32Cube_FW_F4_V1.4.0/Drivers/CMSIS/Include/core_cmFunc.h **** {
 253:../STM32Cube_FW_F4_V1.4.0/Drivers/CMSIS/Include/core_cmFunc.h ****   register uint32_t __regFaultMask       __ASM("faultmask");
 254:../STM32Cube_FW_F4_V1.4.0/Drivers/CMSIS/Include/core_cmFunc.h ****   return(__regFaultMask);
 255:../STM32Cube_FW_F4_V1.4.0/Drivers/CMSIS/Include/core_cmFunc.h **** }
 256:../STM32Cube_FW_F4_V1.4.0/Drivers/CMSIS/Include/core_cmFunc.h **** 
 257:../STM32Cube_FW_F4_V1.4.0/Drivers/CMSIS/Include/core_cmFunc.h **** 
 258:../STM32Cube_FW_F4_V1.4.0/Drivers/CMSIS/Include/core_cmFunc.h **** /** \brief  Set Fault Mask
 259:../STM32Cube_FW_F4_V1.4.0/Drivers/CMSIS/Include/core_cmFunc.h **** 
 260:../STM32Cube_FW_F4_V1.4.0/Drivers/CMSIS/Include/core_cmFunc.h ****     This function assigns the given value to the Fault Mask register.
 261:../STM32Cube_FW_F4_V1.4.0/Drivers/CMSIS/Include/core_cmFunc.h **** 
 262:../STM32Cube_FW_F4_V1.4.0/Drivers/CMSIS/Include/core_cmFunc.h ****     \param [in]    faultMask  Fault Mask value to set
 263:../STM32Cube_FW_F4_V1.4.0/Drivers/CMSIS/Include/core_cmFunc.h ****  */
 264:../STM32Cube_FW_F4_V1.4.0/Drivers/CMSIS/Include/core_cmFunc.h **** __STATIC_INLINE void __set_FAULTMASK(uint32_t faultMask)
 265:../STM32Cube_FW_F4_V1.4.0/Drivers/CMSIS/Include/core_cmFunc.h **** {
 266:../STM32Cube_FW_F4_V1.4.0/Drivers/CMSIS/Include/core_cmFunc.h ****   register uint32_t __regFaultMask       __ASM("faultmask");
 267:../STM32Cube_FW_F4_V1.4.0/Drivers/CMSIS/Include/core_cmFunc.h ****   __regFaultMask = (faultMask & (uint32_t)1);
 268:../STM32Cube_FW_F4_V1.4.0/Drivers/CMSIS/Include/core_cmFunc.h **** }
 269:../STM32Cube_FW_F4_V1.4.0/Drivers/CMSIS/Include/core_cmFunc.h **** 
 270:../STM32Cube_FW_F4_V1.4.0/Drivers/CMSIS/Include/core_cmFunc.h **** #endif /* (__CORTEX_M >= 0x03) || (__CORTEX_SC >= 300) */
 271:../STM32Cube_FW_F4_V1.4.0/Drivers/CMSIS/Include/core_cmFunc.h **** 
 272:../STM32Cube_FW_F4_V1.4.0/Drivers/CMSIS/Include/core_cmFunc.h **** 
 273:../STM32Cube_FW_F4_V1.4.0/Drivers/CMSIS/Include/core_cmFunc.h **** #if       (__CORTEX_M == 0x04) || (__CORTEX_M == 0x07)
 274:../STM32Cube_FW_F4_V1.4.0/Drivers/CMSIS/Include/core_cmFunc.h **** 
 275:../STM32Cube_FW_F4_V1.4.0/Drivers/CMSIS/Include/core_cmFunc.h **** /** \brief  Get FPSCR
 276:../STM32Cube_FW_F4_V1.4.0/Drivers/CMSIS/Include/core_cmFunc.h **** 
 277:../STM32Cube_FW_F4_V1.4.0/Drivers/CMSIS/Include/core_cmFunc.h ****     This function returns the current value of the Floating Point Status/Control register.
 278:../STM32Cube_FW_F4_V1.4.0/Drivers/CMSIS/Include/core_cmFunc.h **** 
 279:../STM32Cube_FW_F4_V1.4.0/Drivers/CMSIS/Include/core_cmFunc.h ****     \return               Floating Point Status/Control register value
 280:../STM32Cube_FW_F4_V1.4.0/Drivers/CMSIS/Include/core_cmFunc.h ****  */
 281:../STM32Cube_FW_F4_V1.4.0/Drivers/CMSIS/Include/core_cmFunc.h **** __STATIC_INLINE uint32_t __get_FPSCR(void)
 282:../STM32Cube_FW_F4_V1.4.0/Drivers/CMSIS/Include/core_cmFunc.h **** {
 283:../STM32Cube_FW_F4_V1.4.0/Drivers/CMSIS/Include/core_cmFunc.h **** #if (__FPU_PRESENT == 1) && (__FPU_USED == 1)
 284:../STM32Cube_FW_F4_V1.4.0/Drivers/CMSIS/Include/core_cmFunc.h ****   register uint32_t __regfpscr         __ASM("fpscr");
 285:../STM32Cube_FW_F4_V1.4.0/Drivers/CMSIS/Include/core_cmFunc.h ****   return(__regfpscr);
 286:../STM32Cube_FW_F4_V1.4.0/Drivers/CMSIS/Include/core_cmFunc.h **** #else
ARM GAS  C:\cygwin\tmp\cc0cO0Hy.s 			page 21


 287:../STM32Cube_FW_F4_V1.4.0/Drivers/CMSIS/Include/core_cmFunc.h ****    return(0);
 288:../STM32Cube_FW_F4_V1.4.0/Drivers/CMSIS/Include/core_cmFunc.h **** #endif
 289:../STM32Cube_FW_F4_V1.4.0/Drivers/CMSIS/Include/core_cmFunc.h **** }
 290:../STM32Cube_FW_F4_V1.4.0/Drivers/CMSIS/Include/core_cmFunc.h **** 
 291:../STM32Cube_FW_F4_V1.4.0/Drivers/CMSIS/Include/core_cmFunc.h **** 
 292:../STM32Cube_FW_F4_V1.4.0/Drivers/CMSIS/Include/core_cmFunc.h **** /** \brief  Set FPSCR
 293:../STM32Cube_FW_F4_V1.4.0/Drivers/CMSIS/Include/core_cmFunc.h **** 
 294:../STM32Cube_FW_F4_V1.4.0/Drivers/CMSIS/Include/core_cmFunc.h ****     This function assigns the given value to the Floating Point Status/Control register.
 295:../STM32Cube_FW_F4_V1.4.0/Drivers/CMSIS/Include/core_cmFunc.h **** 
 296:../STM32Cube_FW_F4_V1.4.0/Drivers/CMSIS/Include/core_cmFunc.h ****     \param [in]    fpscr  Floating Point Status/Control value to set
 297:../STM32Cube_FW_F4_V1.4.0/Drivers/CMSIS/Include/core_cmFunc.h ****  */
 298:../STM32Cube_FW_F4_V1.4.0/Drivers/CMSIS/Include/core_cmFunc.h **** __STATIC_INLINE void __set_FPSCR(uint32_t fpscr)
 299:../STM32Cube_FW_F4_V1.4.0/Drivers/CMSIS/Include/core_cmFunc.h **** {
 300:../STM32Cube_FW_F4_V1.4.0/Drivers/CMSIS/Include/core_cmFunc.h **** #if (__FPU_PRESENT == 1) && (__FPU_USED == 1)
 301:../STM32Cube_FW_F4_V1.4.0/Drivers/CMSIS/Include/core_cmFunc.h ****   register uint32_t __regfpscr         __ASM("fpscr");
 302:../STM32Cube_FW_F4_V1.4.0/Drivers/CMSIS/Include/core_cmFunc.h ****   __regfpscr = (fpscr);
 303:../STM32Cube_FW_F4_V1.4.0/Drivers/CMSIS/Include/core_cmFunc.h **** #endif
 304:../STM32Cube_FW_F4_V1.4.0/Drivers/CMSIS/Include/core_cmFunc.h **** }
 305:../STM32Cube_FW_F4_V1.4.0/Drivers/CMSIS/Include/core_cmFunc.h **** 
 306:../STM32Cube_FW_F4_V1.4.0/Drivers/CMSIS/Include/core_cmFunc.h **** #endif /* (__CORTEX_M == 0x04) || (__CORTEX_M == 0x07) */
 307:../STM32Cube_FW_F4_V1.4.0/Drivers/CMSIS/Include/core_cmFunc.h **** 
 308:../STM32Cube_FW_F4_V1.4.0/Drivers/CMSIS/Include/core_cmFunc.h **** 
 309:../STM32Cube_FW_F4_V1.4.0/Drivers/CMSIS/Include/core_cmFunc.h **** #elif defined ( __GNUC__ ) /*------------------ GNU Compiler ---------------------*/
 310:../STM32Cube_FW_F4_V1.4.0/Drivers/CMSIS/Include/core_cmFunc.h **** /* GNU gcc specific functions */
 311:../STM32Cube_FW_F4_V1.4.0/Drivers/CMSIS/Include/core_cmFunc.h **** 
 312:../STM32Cube_FW_F4_V1.4.0/Drivers/CMSIS/Include/core_cmFunc.h **** /** \brief  Enable IRQ Interrupts
 313:../STM32Cube_FW_F4_V1.4.0/Drivers/CMSIS/Include/core_cmFunc.h **** 
 314:../STM32Cube_FW_F4_V1.4.0/Drivers/CMSIS/Include/core_cmFunc.h ****   This function enables IRQ interrupts by clearing the I-bit in the CPSR.
 315:../STM32Cube_FW_F4_V1.4.0/Drivers/CMSIS/Include/core_cmFunc.h ****   Can only be executed in Privileged modes.
 316:../STM32Cube_FW_F4_V1.4.0/Drivers/CMSIS/Include/core_cmFunc.h ****  */
 317:../STM32Cube_FW_F4_V1.4.0/Drivers/CMSIS/Include/core_cmFunc.h **** __attribute__( ( always_inline ) ) __STATIC_INLINE void __enable_irq(void)
 318:../STM32Cube_FW_F4_V1.4.0/Drivers/CMSIS/Include/core_cmFunc.h **** {
 319:../STM32Cube_FW_F4_V1.4.0/Drivers/CMSIS/Include/core_cmFunc.h ****   __ASM volatile ("cpsie i" : : : "memory");
 320:../STM32Cube_FW_F4_V1.4.0/Drivers/CMSIS/Include/core_cmFunc.h **** }
 321:../STM32Cube_FW_F4_V1.4.0/Drivers/CMSIS/Include/core_cmFunc.h **** 
 322:../STM32Cube_FW_F4_V1.4.0/Drivers/CMSIS/Include/core_cmFunc.h **** 
 323:../STM32Cube_FW_F4_V1.4.0/Drivers/CMSIS/Include/core_cmFunc.h **** /** \brief  Disable IRQ Interrupts
 324:../STM32Cube_FW_F4_V1.4.0/Drivers/CMSIS/Include/core_cmFunc.h **** 
 325:../STM32Cube_FW_F4_V1.4.0/Drivers/CMSIS/Include/core_cmFunc.h ****   This function disables IRQ interrupts by setting the I-bit in the CPSR.
 326:../STM32Cube_FW_F4_V1.4.0/Drivers/CMSIS/Include/core_cmFunc.h ****   Can only be executed in Privileged modes.
 327:../STM32Cube_FW_F4_V1.4.0/Drivers/CMSIS/Include/core_cmFunc.h ****  */
 328:../STM32Cube_FW_F4_V1.4.0/Drivers/CMSIS/Include/core_cmFunc.h **** __attribute__( ( always_inline ) ) __STATIC_INLINE void __disable_irq(void)
 329:../STM32Cube_FW_F4_V1.4.0/Drivers/CMSIS/Include/core_cmFunc.h **** {
 330:../STM32Cube_FW_F4_V1.4.0/Drivers/CMSIS/Include/core_cmFunc.h ****   __ASM volatile ("cpsid i" : : : "memory");
 331:../STM32Cube_FW_F4_V1.4.0/Drivers/CMSIS/Include/core_cmFunc.h **** }
 332:../STM32Cube_FW_F4_V1.4.0/Drivers/CMSIS/Include/core_cmFunc.h **** 
 333:../STM32Cube_FW_F4_V1.4.0/Drivers/CMSIS/Include/core_cmFunc.h **** 
 334:../STM32Cube_FW_F4_V1.4.0/Drivers/CMSIS/Include/core_cmFunc.h **** /** \brief  Get Control Register
 335:../STM32Cube_FW_F4_V1.4.0/Drivers/CMSIS/Include/core_cmFunc.h **** 
 336:../STM32Cube_FW_F4_V1.4.0/Drivers/CMSIS/Include/core_cmFunc.h ****     This function returns the content of the Control Register.
 337:../STM32Cube_FW_F4_V1.4.0/Drivers/CMSIS/Include/core_cmFunc.h **** 
 338:../STM32Cube_FW_F4_V1.4.0/Drivers/CMSIS/Include/core_cmFunc.h ****     \return               Control Register value
 339:../STM32Cube_FW_F4_V1.4.0/Drivers/CMSIS/Include/core_cmFunc.h ****  */
 340:../STM32Cube_FW_F4_V1.4.0/Drivers/CMSIS/Include/core_cmFunc.h **** __attribute__( ( always_inline ) ) __STATIC_INLINE uint32_t __get_CONTROL(void)
 341:../STM32Cube_FW_F4_V1.4.0/Drivers/CMSIS/Include/core_cmFunc.h **** {
 342:../STM32Cube_FW_F4_V1.4.0/Drivers/CMSIS/Include/core_cmFunc.h ****   uint32_t result;
 343:../STM32Cube_FW_F4_V1.4.0/Drivers/CMSIS/Include/core_cmFunc.h **** 
ARM GAS  C:\cygwin\tmp\cc0cO0Hy.s 			page 22


 344:../STM32Cube_FW_F4_V1.4.0/Drivers/CMSIS/Include/core_cmFunc.h ****   __ASM volatile ("MRS %0, control" : "=r" (result) );
 345:../STM32Cube_FW_F4_V1.4.0/Drivers/CMSIS/Include/core_cmFunc.h ****   return(result);
 346:../STM32Cube_FW_F4_V1.4.0/Drivers/CMSIS/Include/core_cmFunc.h **** }
 347:../STM32Cube_FW_F4_V1.4.0/Drivers/CMSIS/Include/core_cmFunc.h **** 
 348:../STM32Cube_FW_F4_V1.4.0/Drivers/CMSIS/Include/core_cmFunc.h **** 
 349:../STM32Cube_FW_F4_V1.4.0/Drivers/CMSIS/Include/core_cmFunc.h **** /** \brief  Set Control Register
 350:../STM32Cube_FW_F4_V1.4.0/Drivers/CMSIS/Include/core_cmFunc.h **** 
 351:../STM32Cube_FW_F4_V1.4.0/Drivers/CMSIS/Include/core_cmFunc.h ****     This function writes the given value to the Control Register.
 352:../STM32Cube_FW_F4_V1.4.0/Drivers/CMSIS/Include/core_cmFunc.h **** 
 353:../STM32Cube_FW_F4_V1.4.0/Drivers/CMSIS/Include/core_cmFunc.h ****     \param [in]    control  Control Register value to set
 354:../STM32Cube_FW_F4_V1.4.0/Drivers/CMSIS/Include/core_cmFunc.h ****  */
 355:../STM32Cube_FW_F4_V1.4.0/Drivers/CMSIS/Include/core_cmFunc.h **** __attribute__( ( always_inline ) ) __STATIC_INLINE void __set_CONTROL(uint32_t control)
 356:../STM32Cube_FW_F4_V1.4.0/Drivers/CMSIS/Include/core_cmFunc.h **** {
 357:../STM32Cube_FW_F4_V1.4.0/Drivers/CMSIS/Include/core_cmFunc.h ****   __ASM volatile ("MSR control, %0" : : "r" (control) : "memory");
 358:../STM32Cube_FW_F4_V1.4.0/Drivers/CMSIS/Include/core_cmFunc.h **** }
 359:../STM32Cube_FW_F4_V1.4.0/Drivers/CMSIS/Include/core_cmFunc.h **** 
 360:../STM32Cube_FW_F4_V1.4.0/Drivers/CMSIS/Include/core_cmFunc.h **** 
 361:../STM32Cube_FW_F4_V1.4.0/Drivers/CMSIS/Include/core_cmFunc.h **** /** \brief  Get IPSR Register
 362:../STM32Cube_FW_F4_V1.4.0/Drivers/CMSIS/Include/core_cmFunc.h **** 
 363:../STM32Cube_FW_F4_V1.4.0/Drivers/CMSIS/Include/core_cmFunc.h ****     This function returns the content of the IPSR Register.
 364:../STM32Cube_FW_F4_V1.4.0/Drivers/CMSIS/Include/core_cmFunc.h **** 
 365:../STM32Cube_FW_F4_V1.4.0/Drivers/CMSIS/Include/core_cmFunc.h ****     \return               IPSR Register value
 366:../STM32Cube_FW_F4_V1.4.0/Drivers/CMSIS/Include/core_cmFunc.h ****  */
 367:../STM32Cube_FW_F4_V1.4.0/Drivers/CMSIS/Include/core_cmFunc.h **** __attribute__( ( always_inline ) ) __STATIC_INLINE uint32_t __get_IPSR(void)
 368:../STM32Cube_FW_F4_V1.4.0/Drivers/CMSIS/Include/core_cmFunc.h **** {
 369:../STM32Cube_FW_F4_V1.4.0/Drivers/CMSIS/Include/core_cmFunc.h ****   uint32_t result;
 370:../STM32Cube_FW_F4_V1.4.0/Drivers/CMSIS/Include/core_cmFunc.h **** 
 371:../STM32Cube_FW_F4_V1.4.0/Drivers/CMSIS/Include/core_cmFunc.h ****   __ASM volatile ("MRS %0, ipsr" : "=r" (result) );
 372:../STM32Cube_FW_F4_V1.4.0/Drivers/CMSIS/Include/core_cmFunc.h ****   return(result);
 373:../STM32Cube_FW_F4_V1.4.0/Drivers/CMSIS/Include/core_cmFunc.h **** }
 374:../STM32Cube_FW_F4_V1.4.0/Drivers/CMSIS/Include/core_cmFunc.h **** 
 375:../STM32Cube_FW_F4_V1.4.0/Drivers/CMSIS/Include/core_cmFunc.h **** 
 376:../STM32Cube_FW_F4_V1.4.0/Drivers/CMSIS/Include/core_cmFunc.h **** /** \brief  Get APSR Register
 377:../STM32Cube_FW_F4_V1.4.0/Drivers/CMSIS/Include/core_cmFunc.h **** 
 378:../STM32Cube_FW_F4_V1.4.0/Drivers/CMSIS/Include/core_cmFunc.h ****     This function returns the content of the APSR Register.
 379:../STM32Cube_FW_F4_V1.4.0/Drivers/CMSIS/Include/core_cmFunc.h **** 
 380:../STM32Cube_FW_F4_V1.4.0/Drivers/CMSIS/Include/core_cmFunc.h ****     \return               APSR Register value
 381:../STM32Cube_FW_F4_V1.4.0/Drivers/CMSIS/Include/core_cmFunc.h ****  */
 382:../STM32Cube_FW_F4_V1.4.0/Drivers/CMSIS/Include/core_cmFunc.h **** __attribute__( ( always_inline ) ) __STATIC_INLINE uint32_t __get_APSR(void)
 383:../STM32Cube_FW_F4_V1.4.0/Drivers/CMSIS/Include/core_cmFunc.h **** {
 384:../STM32Cube_FW_F4_V1.4.0/Drivers/CMSIS/Include/core_cmFunc.h ****   uint32_t result;
 385:../STM32Cube_FW_F4_V1.4.0/Drivers/CMSIS/Include/core_cmFunc.h **** 
 386:../STM32Cube_FW_F4_V1.4.0/Drivers/CMSIS/Include/core_cmFunc.h ****   __ASM volatile ("MRS %0, apsr" : "=r" (result) );
 387:../STM32Cube_FW_F4_V1.4.0/Drivers/CMSIS/Include/core_cmFunc.h ****   return(result);
 388:../STM32Cube_FW_F4_V1.4.0/Drivers/CMSIS/Include/core_cmFunc.h **** }
 389:../STM32Cube_FW_F4_V1.4.0/Drivers/CMSIS/Include/core_cmFunc.h **** 
 390:../STM32Cube_FW_F4_V1.4.0/Drivers/CMSIS/Include/core_cmFunc.h **** 
 391:../STM32Cube_FW_F4_V1.4.0/Drivers/CMSIS/Include/core_cmFunc.h **** /** \brief  Get xPSR Register
 392:../STM32Cube_FW_F4_V1.4.0/Drivers/CMSIS/Include/core_cmFunc.h **** 
 393:../STM32Cube_FW_F4_V1.4.0/Drivers/CMSIS/Include/core_cmFunc.h ****     This function returns the content of the xPSR Register.
 394:../STM32Cube_FW_F4_V1.4.0/Drivers/CMSIS/Include/core_cmFunc.h **** 
 395:../STM32Cube_FW_F4_V1.4.0/Drivers/CMSIS/Include/core_cmFunc.h ****     \return               xPSR Register value
 396:../STM32Cube_FW_F4_V1.4.0/Drivers/CMSIS/Include/core_cmFunc.h ****  */
 397:../STM32Cube_FW_F4_V1.4.0/Drivers/CMSIS/Include/core_cmFunc.h **** __attribute__( ( always_inline ) ) __STATIC_INLINE uint32_t __get_xPSR(void)
 398:../STM32Cube_FW_F4_V1.4.0/Drivers/CMSIS/Include/core_cmFunc.h **** {
 399:../STM32Cube_FW_F4_V1.4.0/Drivers/CMSIS/Include/core_cmFunc.h ****   uint32_t result;
 400:../STM32Cube_FW_F4_V1.4.0/Drivers/CMSIS/Include/core_cmFunc.h **** 
ARM GAS  C:\cygwin\tmp\cc0cO0Hy.s 			page 23


 401:../STM32Cube_FW_F4_V1.4.0/Drivers/CMSIS/Include/core_cmFunc.h ****   __ASM volatile ("MRS %0, xpsr" : "=r" (result) );
 402:../STM32Cube_FW_F4_V1.4.0/Drivers/CMSIS/Include/core_cmFunc.h ****   return(result);
 403:../STM32Cube_FW_F4_V1.4.0/Drivers/CMSIS/Include/core_cmFunc.h **** }
 404:../STM32Cube_FW_F4_V1.4.0/Drivers/CMSIS/Include/core_cmFunc.h **** 
 405:../STM32Cube_FW_F4_V1.4.0/Drivers/CMSIS/Include/core_cmFunc.h **** 
 406:../STM32Cube_FW_F4_V1.4.0/Drivers/CMSIS/Include/core_cmFunc.h **** /** \brief  Get Process Stack Pointer
 407:../STM32Cube_FW_F4_V1.4.0/Drivers/CMSIS/Include/core_cmFunc.h **** 
 408:../STM32Cube_FW_F4_V1.4.0/Drivers/CMSIS/Include/core_cmFunc.h ****     This function returns the current value of the Process Stack Pointer (PSP).
 409:../STM32Cube_FW_F4_V1.4.0/Drivers/CMSIS/Include/core_cmFunc.h **** 
 410:../STM32Cube_FW_F4_V1.4.0/Drivers/CMSIS/Include/core_cmFunc.h ****     \return               PSP Register value
 411:../STM32Cube_FW_F4_V1.4.0/Drivers/CMSIS/Include/core_cmFunc.h ****  */
 412:../STM32Cube_FW_F4_V1.4.0/Drivers/CMSIS/Include/core_cmFunc.h **** __attribute__( ( always_inline ) ) __STATIC_INLINE uint32_t __get_PSP(void)
 413:../STM32Cube_FW_F4_V1.4.0/Drivers/CMSIS/Include/core_cmFunc.h **** {
 414:../STM32Cube_FW_F4_V1.4.0/Drivers/CMSIS/Include/core_cmFunc.h ****   register uint32_t result;
 415:../STM32Cube_FW_F4_V1.4.0/Drivers/CMSIS/Include/core_cmFunc.h **** 
 416:../STM32Cube_FW_F4_V1.4.0/Drivers/CMSIS/Include/core_cmFunc.h ****   __ASM volatile ("MRS %0, psp\n"  : "=r" (result) );
 417:../STM32Cube_FW_F4_V1.4.0/Drivers/CMSIS/Include/core_cmFunc.h ****   return(result);
 418:../STM32Cube_FW_F4_V1.4.0/Drivers/CMSIS/Include/core_cmFunc.h **** }
 419:../STM32Cube_FW_F4_V1.4.0/Drivers/CMSIS/Include/core_cmFunc.h **** 
 420:../STM32Cube_FW_F4_V1.4.0/Drivers/CMSIS/Include/core_cmFunc.h **** 
 421:../STM32Cube_FW_F4_V1.4.0/Drivers/CMSIS/Include/core_cmFunc.h **** /** \brief  Set Process Stack Pointer
 422:../STM32Cube_FW_F4_V1.4.0/Drivers/CMSIS/Include/core_cmFunc.h **** 
 423:../STM32Cube_FW_F4_V1.4.0/Drivers/CMSIS/Include/core_cmFunc.h ****     This function assigns the given value to the Process Stack Pointer (PSP).
 424:../STM32Cube_FW_F4_V1.4.0/Drivers/CMSIS/Include/core_cmFunc.h **** 
 425:../STM32Cube_FW_F4_V1.4.0/Drivers/CMSIS/Include/core_cmFunc.h ****     \param [in]    topOfProcStack  Process Stack Pointer value to set
 426:../STM32Cube_FW_F4_V1.4.0/Drivers/CMSIS/Include/core_cmFunc.h ****  */
 427:../STM32Cube_FW_F4_V1.4.0/Drivers/CMSIS/Include/core_cmFunc.h **** __attribute__( ( always_inline ) ) __STATIC_INLINE void __set_PSP(uint32_t topOfProcStack)
 428:../STM32Cube_FW_F4_V1.4.0/Drivers/CMSIS/Include/core_cmFunc.h **** {
 429:../STM32Cube_FW_F4_V1.4.0/Drivers/CMSIS/Include/core_cmFunc.h ****   __ASM volatile ("MSR psp, %0\n" : : "r" (topOfProcStack) : "sp");
 430:../STM32Cube_FW_F4_V1.4.0/Drivers/CMSIS/Include/core_cmFunc.h **** }
 431:../STM32Cube_FW_F4_V1.4.0/Drivers/CMSIS/Include/core_cmFunc.h **** 
 432:../STM32Cube_FW_F4_V1.4.0/Drivers/CMSIS/Include/core_cmFunc.h **** 
 433:../STM32Cube_FW_F4_V1.4.0/Drivers/CMSIS/Include/core_cmFunc.h **** /** \brief  Get Main Stack Pointer
 434:../STM32Cube_FW_F4_V1.4.0/Drivers/CMSIS/Include/core_cmFunc.h **** 
 435:../STM32Cube_FW_F4_V1.4.0/Drivers/CMSIS/Include/core_cmFunc.h ****     This function returns the current value of the Main Stack Pointer (MSP).
 436:../STM32Cube_FW_F4_V1.4.0/Drivers/CMSIS/Include/core_cmFunc.h **** 
 437:../STM32Cube_FW_F4_V1.4.0/Drivers/CMSIS/Include/core_cmFunc.h ****     \return               MSP Register value
 438:../STM32Cube_FW_F4_V1.4.0/Drivers/CMSIS/Include/core_cmFunc.h ****  */
 439:../STM32Cube_FW_F4_V1.4.0/Drivers/CMSIS/Include/core_cmFunc.h **** __attribute__( ( always_inline ) ) __STATIC_INLINE uint32_t __get_MSP(void)
 440:../STM32Cube_FW_F4_V1.4.0/Drivers/CMSIS/Include/core_cmFunc.h **** {
 441:../STM32Cube_FW_F4_V1.4.0/Drivers/CMSIS/Include/core_cmFunc.h ****   register uint32_t result;
 442:../STM32Cube_FW_F4_V1.4.0/Drivers/CMSIS/Include/core_cmFunc.h **** 
 443:../STM32Cube_FW_F4_V1.4.0/Drivers/CMSIS/Include/core_cmFunc.h ****   __ASM volatile ("MRS %0, msp\n" : "=r" (result) );
 610              		.loc 2 443 0
 611              	@ 443 "../STM32Cube_FW_F4_V1.4.0/Drivers/CMSIS/Include/core_cmFunc.h" 1
 612 000e EFF30882 		MRS r2, msp	@ result
 613              	
 614              	@ 0 "" 2
 615              		.thumb
 616              	.LBE5:
 617              	.LBE4:
 140:Src/newlib_stubs.c ****      {
 618              		.loc 1 140 0
 619 0012 1844     		add	r0, r0, r3	@ D.8153, prev_heap_end
 620              	.LVL48:
 621 0014 9042     		cmp	r0, r2	@ D.8153, result
 622 0016 0AD9     		bls	.L60	@,
ARM GAS  C:\cygwin\tmp\cc0cO0Hy.s 			page 24


 142:Src/newlib_stubs.c ****          errno = ENOMEM;
 623              		.loc 1 142 0
 624 0018 0949     		ldr	r1, .L62+8	@,
 625 001a 1922     		movs	r2, #25	@,
 626 001c 0220     		movs	r0, #2	@,
 627 001e FFF7FEFF 		bl	_write	@
 628              	.LVL49:
 143:Src/newlib_stubs.c ****          return  (caddr_t) -1;
 629              		.loc 1 143 0
 630 0022 084B     		ldr	r3, .L62+12	@ tmp126,
 631 0024 0C22     		movs	r2, #12	@ tmp127,
 632 0026 1A60     		str	r2, [r3]	@ tmp127, errno
 144:Src/newlib_stubs.c ****          //abort ();
 633              		.loc 1 144 0
 634 0028 4FF0FF30 		mov	r0, #-1	@ D.8152,
 635 002c 08BD     		pop	{r3, pc}	@
 636              	.LVL50:
 637              	.L60:
 148:Src/newlib_stubs.c ****     return (caddr_t) prev_heap_end;
 638              		.loc 1 148 0
 639 002e 024A     		ldr	r2, .L62	@ tmp123,
 640 0030 1060     		str	r0, [r2]	@ D.8153, heap_end
 149:Src/newlib_stubs.c **** 
 641              		.loc 1 149 0
 642 0032 1846     		mov	r0, r3	@ D.8152, prev_heap_end
 151:Src/newlib_stubs.c **** 
 643              		.loc 1 151 0
 644 0034 08BD     		pop	{r3, pc}	@
 645              	.LVL51:
 646              	.L63:
 647 0036 00BF     		.align	2
 648              	.L62:
 649 0038 00000000 		.word	.LANCHOR0
 650 003c 00000000 		.word	_ebss
 651 0040 05000000 		.word	.LC1
 652 0044 00000000 		.word	errno
 653              		.cfi_endproc
 654              	.LFE133:
 655              		.size	_sbrk, .-_sbrk
 656              		.global	environ
 657              		.global	__env
 658              		.section	.data.environ,"aw",%progbits
 659              		.align	2
 660              		.type	environ, %object
 661              		.size	environ, 4
 662              	environ:
 663 0000 00000000 		.word	__env
 664              		.section	.bss.__env,"aw",%nobits
 665              		.align	2
 666              		.type	__env, %object
 667              		.size	__env, 4
 668              	__env:
 669 0000 00000000 		.space	4
 670              		.section	.rodata.str1.1,"aMS",%progbits,1
 671              	.LC0:
 672 0000 65786974 		.ascii	"exit\000"
 672      00
ARM GAS  C:\cygwin\tmp\cc0cO0Hy.s 			page 25


 673              	.LC1:
 674 0005 48656170 		.ascii	"Heap and stack collision\012\000"
 674      20616E64 
 674      20737461 
 674      636B2063 
 674      6F6C6C69 
 675              		.section	.bss.heap_end.7936,"aw",%nobits
 676              		.align	2
 677              		.set	.LANCHOR0,. + 0
 678              		.type	heap_end.7936, %object
 679              		.size	heap_end.7936, 4
 680              	heap_end.7936:
 681 0000 00000000 		.space	4
 682              		.text
 683              	.Letext0:
 684              		.file 3 "c:\\program files\\gnu tools arm embedded\\4.9 2014q4\\arm-none-eabi\\include\\machine\\_
 685              		.file 4 "c:\\program files\\gnu tools arm embedded\\4.9 2014q4\\arm-none-eabi\\include\\sys\\_type
 686              		.file 5 "c:\\program files\\gnu tools arm embedded\\4.9 2014q4\\arm-none-eabi\\include\\sys\\types
 687              		.file 6 "c:\\program files\\gnu tools arm embedded\\4.9 2014q4\\arm-none-eabi\\include\\sys\\stat.
 688              		.file 7 "c:\\program files\\gnu tools arm embedded\\4.9 2014q4\\arm-none-eabi\\include\\sys\\times
 689              		.file 8 "c:\\program files\\gnu tools arm embedded\\4.9 2014q4\\arm-none-eabi\\include\\stdint.h"
 690              		.file 9 "c:\\program files\\gnu tools arm embedded\\4.9 2014q4\\arm-none-eabi\\include\\sys\\unist
 691              		.file 10 "../STM32Cube_FW_F4_V1.4.0/Drivers/CMSIS/Include/core_cm4.h"