ARM GAS  C:\cygwin\tmp\cc9XShlh.s 			page 1


   1              		.syntax unified
   2              		.cpu cortex-m4
   3              		.fpu softvfp
   4              		.eabi_attribute 20, 1	@ Tag_ABI_FP_denormal
   5              		.eabi_attribute 21, 1	@ Tag_ABI_FP_exceptions
   6              		.eabi_attribute 23, 3	@ Tag_ABI_FP_number_model
   7              		.eabi_attribute 24, 1	@ Tag_ABI_align8_needed
   8              		.eabi_attribute 25, 1	@ Tag_ABI_align8_preserved
   9              		.eabi_attribute 26, 1	@ Tag_ABI_enum_size
  10              		.eabi_attribute 30, 4	@ Tag_ABI_optimization_goals
  11              		.eabi_attribute 34, 1	@ Tag_CPU_unaligned_access
  12              		.eabi_attribute 18, 4	@ Tag_ABI_PCS_wchar_t
  13              		.file	"stm32f4xx_hal_msp.c"
  14              	@ GNU C (GNU Tools for ARM Embedded Processors) version 4.9.3 20141119 (release) [ARM/embedded-4_9-
  15              	@	compiled by GNU C version 4.7.4, GMP version 4.3.2, MPFR version 2.4.2, MPC version 0.8.1
  16              	@ GGC heuristics: --param ggc-min-expand=100 --param ggc-min-heapsize=131072
  17              	@ options passed:  -I . -I Inc -I gui -I emWin -I emWin/config
  18              	@ -I ../STM32Cube_FW_F4_V1.4.0/Drivers/CMSIS/Include
  19              	@ -I ../STM32Cube_FW_F4_V1.4.0/Drivers/CMSIS/Device/ST/STM32F4xx/Include
  20              	@ -I ../STM32Cube_FW_F4_V1.4.0/Drivers/STM32F4xx_HAL_Driver/Inc
  21              	@ -I ../STM32Cube_FW_F4_V1.4.0/Drivers/CMSIS/Include
  22              	@ -I ../STM32Cube_FW_F4_V1.4.0/Middlewares/ST/STemWin/inc
  23              	@ -I .drivers/modbus -I ./drivers/display -imultilib armv7e-m
  24              	@ -iprefix c:\program files\gnu tools arm embedded\4.9 2014q4\bin\../lib/gcc/arm-none-eabi/4.9.3/
  25              	@ -isysroot c:\program files\gnu tools arm embedded\4.9 2014q4\bin\../arm-none-eabi
  26              	@ -MD out/stm32f4xx_hal_msp.d -MF out/stm32f4xx_hal_msp.d -MP
  27              	@ -MQ out/stm32f4xx_hal_msp.o -D__USES_INITFINI__ -D USE_HAL_DRIVER
  28              	@ -D STM32F4XX -D HSE_VALUE=8000000 -D __STARTUP_CLEAR_BSS -D STM32F407VG
  29              	@ -D USE_FULL_ASSERT -D __FPU_USED Src/stm32f4xx_hal_msp.c -mcpu=cortex-m4
  30              	@ -mthumb -auxbase-strip out/stm32f4xx_hal_msp.o -g -ggdb3 -Os -Os -Wall
  31              	@ -Wstrict-prototypes -Wextra -std=gnu90 -ffunction-sections
  32              	@ -fdata-sections -fverbose-asm
  33              	@ options enabled:  -faggressive-loop-optimizations -fauto-inc-dec
  34              	@ -fbranch-count-reg -fcaller-saves -fcombine-stack-adjustments -fcommon
  35              	@ -fcompare-elim -fcprop-registers -fcrossjumping -fcse-follow-jumps
  36              	@ -fdata-sections -fdefer-pop -fdelete-null-pointer-checks -fdevirtualize
  37              	@ -fdevirtualize-speculatively -fdwarf2-cfi-asm -fearly-inlining
  38              	@ -feliminate-unused-debug-types -fexpensive-optimizations
  39              	@ -fforward-propagate -ffunction-cse -ffunction-sections -fgcse -fgcse-lm
  40              	@ -fgnu-runtime -fgnu-unique -fguess-branch-probability
  41              	@ -fhoist-adjacent-loads -fident -fif-conversion -fif-conversion2
  42              	@ -findirect-inlining -finline -finline-atomics -finline-functions
  43              	@ -finline-functions-called-once -finline-small-functions -fipa-cp
  44              	@ -fipa-profile -fipa-pure-const -fipa-reference -fipa-sra
  45              	@ -fira-hoist-pressure -fira-share-save-slots -fira-share-spill-slots
  46              	@ -fisolate-erroneous-paths-dereference -fivopts -fkeep-static-consts
  47              	@ -fleading-underscore -fmath-errno -fmerge-constants -fmerge-debug-strings
  48              	@ -fomit-frame-pointer -foptimize-sibling-calls -fpartial-inlining
  49              	@ -fpeephole -fpeephole2 -fprefetch-loop-arrays -freg-struct-return
  50              	@ -freorder-blocks -freorder-functions -frerun-cse-after-loop
  51              	@ -fsched-critical-path-heuristic -fsched-dep-count-heuristic
  52              	@ -fsched-group-heuristic -fsched-interblock -fsched-last-insn-heuristic
  53              	@ -fsched-pressure -fsched-rank-heuristic -fsched-spec
  54              	@ -fsched-spec-insn-heuristic -fsched-stalled-insns-dep -fschedule-insns2
  55              	@ -fsection-anchors -fshow-column -fsigned-zeros -fsplit-ivs-in-unroller
  56              	@ -fsplit-wide-types -fstrict-aliasing -fstrict-overflow
  57              	@ -fstrict-volatile-bitfields -fsync-libcalls -fthread-jumps
ARM GAS  C:\cygwin\tmp\cc9XShlh.s 			page 2


  58              	@ -ftoplevel-reorder -ftrapping-math -ftree-bit-ccp -ftree-builtin-call-dce
  59              	@ -ftree-ccp -ftree-ch -ftree-coalesce-vars -ftree-copy-prop
  60              	@ -ftree-copyrename -ftree-cselim -ftree-dce -ftree-dominator-opts
  61              	@ -ftree-dse -ftree-forwprop -ftree-fre -ftree-loop-if-convert
  62              	@ -ftree-loop-im -ftree-loop-ivcanon -ftree-loop-optimize
  63              	@ -ftree-parallelize-loops= -ftree-phiprop -ftree-pre -ftree-pta
  64              	@ -ftree-reassoc -ftree-scev-cprop -ftree-sink -ftree-slsr -ftree-sra
  65              	@ -ftree-switch-conversion -ftree-tail-merge -ftree-ter -ftree-vrp
  66              	@ -funit-at-a-time -fvar-tracking -fvar-tracking-assignments -fverbose-asm
  67              	@ -fzero-initialized-in-bss -mlittle-endian -mlra
  68              	@ -mpic-data-is-text-relative -msched-prolog -mthumb -munaligned-access
  69              	@ -mvectorize-with-neon-quad
  70              	
  71              		.text
  72              	.Ltext0:
  73              		.cfi_sections	.debug_frame
  74              		.section	.text.HAL_UART_MspInit,"ax",%progbits
  75              		.align	1
  76              		.global	HAL_UART_MspInit
  77              		.thumb
  78              		.thumb_func
  79              		.type	HAL_UART_MspInit, %function
  80              	HAL_UART_MspInit:
  81              	.LFB123:
  82              		.file 1 "Src/stm32f4xx_hal_msp.c"
   1:Src/stm32f4xx_hal_msp.c **** /**
   2:Src/stm32f4xx_hal_msp.c ****   ******************************************************************************
   3:Src/stm32f4xx_hal_msp.c ****   * @file    Templates/Src/stm32f4xx_hal_msp.c
   4:Src/stm32f4xx_hal_msp.c ****   * @author  MCD Application Team
   5:Src/stm32f4xx_hal_msp.c ****   * @version V1.2.0
   6:Src/stm32f4xx_hal_msp.c ****   * @date    26-December-2014
   7:Src/stm32f4xx_hal_msp.c ****   * @brief   HAL MSP module.
   8:Src/stm32f4xx_hal_msp.c ****   *         
   9:Src/stm32f4xx_hal_msp.c ****   @verbatim
  10:Src/stm32f4xx_hal_msp.c ****  ===============================================================================
  11:Src/stm32f4xx_hal_msp.c ****                      ##### How to use this driver #####
  12:Src/stm32f4xx_hal_msp.c ****  ===============================================================================
  13:Src/stm32f4xx_hal_msp.c ****     [..]
  14:Src/stm32f4xx_hal_msp.c ****     This file is generated automatically by MicroXplorer and eventually modified 
  15:Src/stm32f4xx_hal_msp.c ****     by the user
  16:Src/stm32f4xx_hal_msp.c **** 
  17:Src/stm32f4xx_hal_msp.c ****   @endverbatim
  18:Src/stm32f4xx_hal_msp.c ****   ******************************************************************************
  19:Src/stm32f4xx_hal_msp.c ****   * @attention
  20:Src/stm32f4xx_hal_msp.c ****   *
  21:Src/stm32f4xx_hal_msp.c ****   * <h2><center>&copy; COPYRIGHT(c) 2014 STMicroelectronics</center></h2>
  22:Src/stm32f4xx_hal_msp.c ****   *
  23:Src/stm32f4xx_hal_msp.c ****   * Redistribution and use in source and binary forms, with or without modification,
  24:Src/stm32f4xx_hal_msp.c ****   * are permitted provided that the following conditions are met:
  25:Src/stm32f4xx_hal_msp.c ****   *   1. Redistributions of source code must retain the above copyright notice,
  26:Src/stm32f4xx_hal_msp.c ****   *      this list of conditions and the following disclaimer.
  27:Src/stm32f4xx_hal_msp.c ****   *   2. Redistributions in binary form must reproduce the above copyright notice,
  28:Src/stm32f4xx_hal_msp.c ****   *      this list of conditions and the following disclaimer in the documentation
  29:Src/stm32f4xx_hal_msp.c ****   *      and/or other materials provided with the distribution.
  30:Src/stm32f4xx_hal_msp.c ****   *   3. Neither the name of STMicroelectronics nor the names of its contributors
  31:Src/stm32f4xx_hal_msp.c ****   *      may be used to endorse or promote products derived from this software
  32:Src/stm32f4xx_hal_msp.c ****   *      without specific prior written permission.
ARM GAS  C:\cygwin\tmp\cc9XShlh.s 			page 3


  33:Src/stm32f4xx_hal_msp.c ****   *
  34:Src/stm32f4xx_hal_msp.c ****   * THIS SOFTWARE IS PROVIDED BY THE COPYRIGHT HOLDERS AND CONTRIBUTORS "AS IS"
  35:Src/stm32f4xx_hal_msp.c ****   * AND ANY EXPRESS OR IMPLIED WARRANTIES, INCLUDING, BUT NOT LIMITED TO, THE
  36:Src/stm32f4xx_hal_msp.c ****   * IMPLIED WARRANTIES OF MERCHANTABILITY AND FITNESS FOR A PARTICULAR PURPOSE ARE
  37:Src/stm32f4xx_hal_msp.c ****   * DISCLAIMED. IN NO EVENT SHALL THE COPYRIGHT HOLDER OR CONTRIBUTORS BE LIABLE
  38:Src/stm32f4xx_hal_msp.c ****   * FOR ANY DIRECT, INDIRECT, INCIDENTAL, SPECIAL, EXEMPLARY, OR CONSEQUENTIAL
  39:Src/stm32f4xx_hal_msp.c ****   * DAMAGES (INCLUDING, BUT NOT LIMITED TO, PROCUREMENT OF SUBSTITUTE GOODS OR
  40:Src/stm32f4xx_hal_msp.c ****   * SERVICES; LOSS OF USE, DATA, OR PROFITS; OR BUSINESS INTERRUPTION) HOWEVER
  41:Src/stm32f4xx_hal_msp.c ****   * CAUSED AND ON ANY THEORY OF LIABILITY, WHETHER IN CONTRACT, STRICT LIABILITY,
  42:Src/stm32f4xx_hal_msp.c ****   * OR TORT (INCLUDING NEGLIGENCE OR OTHERWISE) ARISING IN ANY WAY OUT OF THE USE
  43:Src/stm32f4xx_hal_msp.c ****   * OF THIS SOFTWARE, EVEN IF ADVISED OF THE POSSIBILITY OF SUCH DAMAGE.
  44:Src/stm32f4xx_hal_msp.c ****   *
  45:Src/stm32f4xx_hal_msp.c ****   ******************************************************************************
  46:Src/stm32f4xx_hal_msp.c ****   */ 
  47:Src/stm32f4xx_hal_msp.c **** 
  48:Src/stm32f4xx_hal_msp.c **** /* Includes ------------------------------------------------------------------*/
  49:Src/stm32f4xx_hal_msp.c **** #include "main.h"
  50:Src/stm32f4xx_hal_msp.c **** 
  51:Src/stm32f4xx_hal_msp.c **** /** @addtogroup STM32F4xx_HAL_Driver
  52:Src/stm32f4xx_hal_msp.c ****   * @{
  53:Src/stm32f4xx_hal_msp.c ****   */
  54:Src/stm32f4xx_hal_msp.c **** 
  55:Src/stm32f4xx_hal_msp.c **** /** @defgroup HAL_MSP
  56:Src/stm32f4xx_hal_msp.c ****   * @brief HAL MSP module.
  57:Src/stm32f4xx_hal_msp.c ****   * @{
  58:Src/stm32f4xx_hal_msp.c ****   */
  59:Src/stm32f4xx_hal_msp.c **** 
  60:Src/stm32f4xx_hal_msp.c **** /* Private typedef -----------------------------------------------------------*/
  61:Src/stm32f4xx_hal_msp.c **** /* Private define ------------------------------------------------------------*/
  62:Src/stm32f4xx_hal_msp.c **** /* Private macro -------------------------------------------------------------*/
  63:Src/stm32f4xx_hal_msp.c **** /* Private variables ---------------------------------------------------------*/
  64:Src/stm32f4xx_hal_msp.c **** /* Private function prototypes -----------------------------------------------*/
  65:Src/stm32f4xx_hal_msp.c **** /* Private functions ---------------------------------------------------------*/
  66:Src/stm32f4xx_hal_msp.c **** 
  67:Src/stm32f4xx_hal_msp.c **** /** @defgroup HAL_MSP_Private_Functions
  68:Src/stm32f4xx_hal_msp.c ****   * @{
  69:Src/stm32f4xx_hal_msp.c ****   */
  70:Src/stm32f4xx_hal_msp.c ****   
  71:Src/stm32f4xx_hal_msp.c **** /**
  72:Src/stm32f4xx_hal_msp.c ****   * @brief UART MSP Initialization 
  73:Src/stm32f4xx_hal_msp.c ****   *        This function configures the hardware resources used in this example: 
  74:Src/stm32f4xx_hal_msp.c ****   *           - Peripheral's clock enable
  75:Src/stm32f4xx_hal_msp.c ****   *           - Peripheral's GPIO Configuration  
  76:Src/stm32f4xx_hal_msp.c ****   *           - DMA configuration for transmission request by peripheral 
  77:Src/stm32f4xx_hal_msp.c ****   *           - NVIC configuration for DMA interrupt request enable
  78:Src/stm32f4xx_hal_msp.c ****   * @param huart: UART handle pointer
  79:Src/stm32f4xx_hal_msp.c ****   * @retval None
  80:Src/stm32f4xx_hal_msp.c ****   */
  81:Src/stm32f4xx_hal_msp.c **** void HAL_UART_MspInit(UART_HandleTypeDef *huart)
  82:Src/stm32f4xx_hal_msp.c **** {
  83              		.loc 1 82 0
  84              		.cfi_startproc
  85              		@ args = 0, pretend = 0, frame = 24
  86              		@ frame_needed = 0, uses_anonymous_args = 0
  87              	.LVL0:
  83:Src/stm32f4xx_hal_msp.c ****   //static DMA_HandleTypeDef hdma_tx;
  84:Src/stm32f4xx_hal_msp.c ****   //static DMA_HandleTypeDef hdma_rx;
ARM GAS  C:\cygwin\tmp\cc9XShlh.s 			page 4


  85:Src/stm32f4xx_hal_msp.c ****   
  86:Src/stm32f4xx_hal_msp.c ****   GPIO_InitTypeDef  GPIO_InitStruct;
  87:Src/stm32f4xx_hal_msp.c ****   
  88:Src/stm32f4xx_hal_msp.c ****   /*##-1- Enable peripherals and GPIO Clocks #################################*/
  89:Src/stm32f4xx_hal_msp.c ****   /* Enable GPIO TX/RX clock */
  90:Src/stm32f4xx_hal_msp.c ****   USARTx_TX_GPIO_CLK_ENABLE();
  88              		.loc 1 90 0
  89 0000 164B     		ldr	r3, .L2	@ tmp117,
  90 0002 1A6B     		ldr	r2, [r3, #48]	@ D.7429, MEM[(struct RCC_TypeDef *)1073887232B].AHB1ENR
  91 0004 42F00102 		orr	r2, r2, #1	@ D.7429, D.7429,
  82:Src/stm32f4xx_hal_msp.c ****   //static DMA_HandleTypeDef hdma_tx;
  92              		.loc 1 82 0
  93 0008 70B5     		push	{r4, r5, r6, lr}	@
  94              		.cfi_def_cfa_offset 16
  95              		.cfi_offset 4, -16
  96              		.cfi_offset 5, -12
  97              		.cfi_offset 6, -8
  98              		.cfi_offset 14, -4
  99              		.loc 1 90 0
 100 000a 1A63     		str	r2, [r3, #48]	@ D.7429, MEM[(struct RCC_TypeDef *)1073887232B].AHB1ENR
  91:Src/stm32f4xx_hal_msp.c ****   USARTx_RX_GPIO_CLK_ENABLE();
 101              		.loc 1 91 0
 102 000c 1A6B     		ldr	r2, [r3, #48]	@ D.7429, MEM[(struct RCC_TypeDef *)1073887232B].AHB1ENR
  92:Src/stm32f4xx_hal_msp.c ****   /* Enable USART2 clock */
  93:Src/stm32f4xx_hal_msp.c ****   USARTx_CLK_ENABLE(); 
  94:Src/stm32f4xx_hal_msp.c ****   /* Enable DMA1 clock */
  95:Src/stm32f4xx_hal_msp.c ****   //DMAx_CLK_ENABLE();   
  96:Src/stm32f4xx_hal_msp.c ****   
  97:Src/stm32f4xx_hal_msp.c ****   /*##-2- Configure peripheral GPIO ##########################################*/  
  98:Src/stm32f4xx_hal_msp.c ****   /* UART TX GPIO pin configuration  */
  99:Src/stm32f4xx_hal_msp.c ****   GPIO_InitStruct.Pin       = USARTx_TX_PIN;
 100:Src/stm32f4xx_hal_msp.c ****   GPIO_InitStruct.Mode      = GPIO_MODE_AF_PP;
 101:Src/stm32f4xx_hal_msp.c ****   GPIO_InitStruct.Pull      = GPIO_NOPULL;
 102:Src/stm32f4xx_hal_msp.c ****   GPIO_InitStruct.Speed     = GPIO_SPEED_FAST;
 103:Src/stm32f4xx_hal_msp.c ****   GPIO_InitStruct.Alternate = USARTx_TX_AF;
 104:Src/stm32f4xx_hal_msp.c ****   
 105:Src/stm32f4xx_hal_msp.c ****   HAL_GPIO_Init(USARTx_TX_GPIO_PORT, &GPIO_InitStruct);
 103              		.loc 1 105 0
 104 000e 144D     		ldr	r5, .L2+4	@ tmp128,
  91:Src/stm32f4xx_hal_msp.c ****   USARTx_RX_GPIO_CLK_ENABLE();
 105              		.loc 1 91 0
 106 0010 42F00102 		orr	r2, r2, #1	@ D.7429, D.7429,
 107 0014 1A63     		str	r2, [r3, #48]	@ D.7429, MEM[(struct RCC_TypeDef *)1073887232B].AHB1ENR
  93:Src/stm32f4xx_hal_msp.c ****   /* Enable DMA1 clock */
 108              		.loc 1 93 0
 109 0016 1A6C     		ldr	r2, [r3, #64]	@ D.7429, MEM[(struct RCC_TypeDef *)1073887232B].APB1ENR
  82:Src/stm32f4xx_hal_msp.c ****   //static DMA_HandleTypeDef hdma_tx;
 110              		.loc 1 82 0
 111 0018 86B0     		sub	sp, sp, #24	@,,
 112              		.cfi_def_cfa_offset 40
  93:Src/stm32f4xx_hal_msp.c ****   /* Enable DMA1 clock */
 113              		.loc 1 93 0
 114 001a 42F40032 		orr	r2, r2, #131072	@ D.7429, D.7429,
 115 001e 1A64     		str	r2, [r3, #64]	@ D.7429, MEM[(struct RCC_TypeDef *)1073887232B].APB1ENR
  99:Src/stm32f4xx_hal_msp.c ****   GPIO_InitStruct.Mode      = GPIO_MODE_AF_PP;
 116              		.loc 1 99 0
 117 0020 0423     		movs	r3, #4	@ tmp123,
ARM GAS  C:\cygwin\tmp\cc9XShlh.s 			page 5


 118 0022 0193     		str	r3, [sp, #4]	@ tmp123, GPIO_InitStruct.Pin
 101:Src/stm32f4xx_hal_msp.c ****   GPIO_InitStruct.Speed     = GPIO_SPEED_FAST;
 119              		.loc 1 101 0
 120 0024 0024     		movs	r4, #0	@ tmp125,
 100:Src/stm32f4xx_hal_msp.c ****   GPIO_InitStruct.Pull      = GPIO_NOPULL;
 121              		.loc 1 100 0
 122 0026 0223     		movs	r3, #2	@ tmp124,
 103:Src/stm32f4xx_hal_msp.c ****   
 123              		.loc 1 103 0
 124 0028 0726     		movs	r6, #7	@ tmp127,
 125              		.loc 1 105 0
 126 002a 2846     		mov	r0, r5	@, tmp128
 127              	.LVL1:
 128 002c 01A9     		add	r1, sp, #4	@ tmp134,,
 100:Src/stm32f4xx_hal_msp.c ****   GPIO_InitStruct.Pull      = GPIO_NOPULL;
 129              		.loc 1 100 0
 130 002e 0293     		str	r3, [sp, #8]	@ tmp124, GPIO_InitStruct.Mode
 102:Src/stm32f4xx_hal_msp.c ****   GPIO_InitStruct.Alternate = USARTx_TX_AF;
 131              		.loc 1 102 0
 132 0030 0493     		str	r3, [sp, #16]	@ tmp124, GPIO_InitStruct.Speed
 101:Src/stm32f4xx_hal_msp.c ****   GPIO_InitStruct.Speed     = GPIO_SPEED_FAST;
 133              		.loc 1 101 0
 134 0032 0394     		str	r4, [sp, #12]	@ tmp125, GPIO_InitStruct.Pull
 103:Src/stm32f4xx_hal_msp.c ****   
 135              		.loc 1 103 0
 136 0034 0596     		str	r6, [sp, #20]	@ tmp127, GPIO_InitStruct.Alternate
 137              		.loc 1 105 0
 138 0036 FFF7FEFF 		bl	HAL_GPIO_Init	@
 139              	.LVL2:
 106:Src/stm32f4xx_hal_msp.c ****     
 107:Src/stm32f4xx_hal_msp.c ****   /* UART RX GPIO pin configuration  */
 108:Src/stm32f4xx_hal_msp.c ****   GPIO_InitStruct.Pin = USARTx_RX_PIN;
 140              		.loc 1 108 0
 141 003a 0823     		movs	r3, #8	@ tmp130,
 109:Src/stm32f4xx_hal_msp.c ****   GPIO_InitStruct.Alternate = USARTx_RX_AF;
 110:Src/stm32f4xx_hal_msp.c ****     
 111:Src/stm32f4xx_hal_msp.c ****   HAL_GPIO_Init(USARTx_RX_GPIO_PORT, &GPIO_InitStruct);
 142              		.loc 1 111 0
 143 003c 2846     		mov	r0, r5	@, tmp128
 144 003e 01A9     		add	r1, sp, #4	@ tmp135,,
 108:Src/stm32f4xx_hal_msp.c ****   GPIO_InitStruct.Alternate = USARTx_RX_AF;
 145              		.loc 1 108 0
 146 0040 0193     		str	r3, [sp, #4]	@ tmp130, GPIO_InitStruct.Pin
 109:Src/stm32f4xx_hal_msp.c ****   GPIO_InitStruct.Alternate = USARTx_RX_AF;
 147              		.loc 1 109 0
 148 0042 0596     		str	r6, [sp, #20]	@ tmp127, GPIO_InitStruct.Alternate
 149              		.loc 1 111 0
 150 0044 FFF7FEFF 		bl	HAL_GPIO_Init	@
 151              	.LVL3:
 112:Src/stm32f4xx_hal_msp.c ****     
 113:Src/stm32f4xx_hal_msp.c ****   /*##-3- Configure the DMA streams ##########################################*/
 114:Src/stm32f4xx_hal_msp.c ****   /* Configure the DMA handler for Transmission process */
 115:Src/stm32f4xx_hal_msp.c ****   /*hdma_tx.Instance                 = USARTx_TX_DMA_STREAM;
 116:Src/stm32f4xx_hal_msp.c ****   
 117:Src/stm32f4xx_hal_msp.c ****   hdma_tx.Init.Channel             = USARTx_TX_DMA_CHANNEL;
 118:Src/stm32f4xx_hal_msp.c ****   hdma_tx.Init.Direction           = DMA_MEMORY_TO_PERIPH;
 119:Src/stm32f4xx_hal_msp.c ****   hdma_tx.Init.PeriphInc           = DMA_PINC_DISABLE;
ARM GAS  C:\cygwin\tmp\cc9XShlh.s 			page 6


 120:Src/stm32f4xx_hal_msp.c ****   hdma_tx.Init.MemInc              = DMA_MINC_ENABLE;
 121:Src/stm32f4xx_hal_msp.c ****   hdma_tx.Init.PeriphDataAlignment = DMA_PDATAALIGN_BYTE;
 122:Src/stm32f4xx_hal_msp.c ****   hdma_tx.Init.MemDataAlignment    = DMA_MDATAALIGN_BYTE;
 123:Src/stm32f4xx_hal_msp.c ****   hdma_tx.Init.Mode                = DMA_NORMAL;
 124:Src/stm32f4xx_hal_msp.c ****   hdma_tx.Init.Priority            = DMA_PRIORITY_LOW;
 125:Src/stm32f4xx_hal_msp.c ****   hdma_tx.Init.FIFOMode            = DMA_FIFOMODE_DISABLE;
 126:Src/stm32f4xx_hal_msp.c ****   hdma_tx.Init.FIFOThreshold       = DMA_FIFO_THRESHOLD_FULL;
 127:Src/stm32f4xx_hal_msp.c ****   hdma_tx.Init.MemBurst            = DMA_MBURST_INC4;
 128:Src/stm32f4xx_hal_msp.c ****   hdma_tx.Init.PeriphBurst         = DMA_PBURST_INC4;
 129:Src/stm32f4xx_hal_msp.c ****   
 130:Src/stm32f4xx_hal_msp.c ****   HAL_DMA_Init(&hdma_tx);*/ 
 131:Src/stm32f4xx_hal_msp.c ****   
 132:Src/stm32f4xx_hal_msp.c ****   /* Associate the initialized DMA handle to the the UART handle */
 133:Src/stm32f4xx_hal_msp.c ****   //__HAL_LINKDMA(huart, hdmatx, hdma_tx);
 134:Src/stm32f4xx_hal_msp.c ****     
 135:Src/stm32f4xx_hal_msp.c ****   /* Configure the DMA handler for Transmission process */
 136:Src/stm32f4xx_hal_msp.c ****   /*hdma_rx.Instance                 = USARTx_RX_DMA_STREAM;
 137:Src/stm32f4xx_hal_msp.c ****   
 138:Src/stm32f4xx_hal_msp.c ****   hdma_rx.Init.Channel             = USARTx_RX_DMA_CHANNEL;
 139:Src/stm32f4xx_hal_msp.c ****   hdma_rx.Init.Direction           = DMA_PERIPH_TO_MEMORY;
 140:Src/stm32f4xx_hal_msp.c ****   hdma_rx.Init.PeriphInc           = DMA_PINC_DISABLE;
 141:Src/stm32f4xx_hal_msp.c ****   hdma_rx.Init.MemInc              = DMA_MINC_ENABLE;
 142:Src/stm32f4xx_hal_msp.c ****   hdma_rx.Init.PeriphDataAlignment = DMA_PDATAALIGN_BYTE;
 143:Src/stm32f4xx_hal_msp.c ****   hdma_rx.Init.MemDataAlignment    = DMA_MDATAALIGN_BYTE;
 144:Src/stm32f4xx_hal_msp.c ****   hdma_rx.Init.Mode                = DMA_NORMAL;
 145:Src/stm32f4xx_hal_msp.c ****   hdma_rx.Init.Priority            = DMA_PRIORITY_HIGH;
 146:Src/stm32f4xx_hal_msp.c ****   hdma_rx.Init.FIFOMode            = DMA_FIFOMODE_DISABLE;         
 147:Src/stm32f4xx_hal_msp.c ****   hdma_rx.Init.FIFOThreshold       = DMA_FIFO_THRESHOLD_FULL;
 148:Src/stm32f4xx_hal_msp.c ****   hdma_rx.Init.MemBurst            = DMA_MBURST_INC4;
 149:Src/stm32f4xx_hal_msp.c ****   hdma_rx.Init.PeriphBurst         = DMA_PBURST_INC4; 
 150:Src/stm32f4xx_hal_msp.c **** 
 151:Src/stm32f4xx_hal_msp.c ****   HAL_DMA_Init(&hdma_rx);*/
 152:Src/stm32f4xx_hal_msp.c ****     
 153:Src/stm32f4xx_hal_msp.c ****   /* Associate the initialized DMA handle to the the UART handle */
 154:Src/stm32f4xx_hal_msp.c ****   //__HAL_LINKDMA(huart, hdmarx, hdma_rx);
 155:Src/stm32f4xx_hal_msp.c ****     
 156:Src/stm32f4xx_hal_msp.c ****   /*##-4- Configure the NVIC for DMA #########################################*/
 157:Src/stm32f4xx_hal_msp.c ****   /* NVIC configuration for DMA transfer complete interrupt (USARTx_TX) */
 158:Src/stm32f4xx_hal_msp.c ****   //HAL_NVIC_SetPriority(USARTx_DMA_TX_IRQn, 0, 1);
 159:Src/stm32f4xx_hal_msp.c ****   //HAL_NVIC_EnableIRQ(USARTx_DMA_TX_IRQn);
 160:Src/stm32f4xx_hal_msp.c ****     
 161:Src/stm32f4xx_hal_msp.c ****   /* NVIC configuration for DMA transfer complete interrupt (USARTx_RX) */
 162:Src/stm32f4xx_hal_msp.c ****   //HAL_NVIC_SetPriority(USARTx_DMA_RX_IRQn, 0, 0);   
 163:Src/stm32f4xx_hal_msp.c ****   //HAL_NVIC_EnableIRQ(USARTx_DMA_RX_IRQn);
 164:Src/stm32f4xx_hal_msp.c ****   
 165:Src/stm32f4xx_hal_msp.c ****   /* NVIC configuration for USART TC interrupt */
 166:Src/stm32f4xx_hal_msp.c ****   HAL_NVIC_SetPriority(USARTx_IRQn, 0, 1);
 152              		.loc 1 166 0
 153 0048 2146     		mov	r1, r4	@, tmp125
 154 004a 0122     		movs	r2, #1	@,
 155 004c 2620     		movs	r0, #38	@,
 156 004e FFF7FEFF 		bl	HAL_NVIC_SetPriority	@
 157              	.LVL4:
 167:Src/stm32f4xx_hal_msp.c ****   HAL_NVIC_EnableIRQ(USARTx_IRQn);
 158              		.loc 1 167 0
 159 0052 2620     		movs	r0, #38	@,
 160 0054 FFF7FEFF 		bl	HAL_NVIC_EnableIRQ	@
ARM GAS  C:\cygwin\tmp\cc9XShlh.s 			page 7


 161              	.LVL5:
 168:Src/stm32f4xx_hal_msp.c **** }
 162              		.loc 1 168 0
 163 0058 06B0     		add	sp, sp, #24	@,,
 164              		.cfi_def_cfa_offset 16
 165              		@ sp needed	@
 166 005a 70BD     		pop	{r4, r5, r6, pc}	@
 167              	.L3:
 168              		.align	2
 169              	.L2:
 170 005c 00380240 		.word	1073887232
 171 0060 00000240 		.word	1073872896
 172              		.cfi_endproc
 173              	.LFE123:
 174              		.size	HAL_UART_MspInit, .-HAL_UART_MspInit
 175              		.section	.text.HAL_UART_MspDeInit,"ax",%progbits
 176              		.align	1
 177              		.global	HAL_UART_MspDeInit
 178              		.thumb
 179              		.thumb_func
 180              		.type	HAL_UART_MspDeInit, %function
 181              	HAL_UART_MspDeInit:
 182              	.LFB124:
 169:Src/stm32f4xx_hal_msp.c **** 
 170:Src/stm32f4xx_hal_msp.c **** /**
 171:Src/stm32f4xx_hal_msp.c ****   * @brief UART MSP De-Initialization 
 172:Src/stm32f4xx_hal_msp.c ****   *        This function frees the hardware resources used in this example:
 173:Src/stm32f4xx_hal_msp.c ****   *          - Disable the Peripheral's clock
 174:Src/stm32f4xx_hal_msp.c ****   *          - Revert GPIO, DMA and NVIC configuration to their default state
 175:Src/stm32f4xx_hal_msp.c ****   * @param huart: UART handle pointer
 176:Src/stm32f4xx_hal_msp.c ****   * @retval None
 177:Src/stm32f4xx_hal_msp.c ****   */
 178:Src/stm32f4xx_hal_msp.c **** void HAL_UART_MspDeInit(UART_HandleTypeDef *huart)
 179:Src/stm32f4xx_hal_msp.c **** {
 183              		.loc 1 179 0
 184              		.cfi_startproc
 185              		@ args = 0, pretend = 0, frame = 0
 186              		@ frame_needed = 0, uses_anonymous_args = 0
 187              	.LVL6:
 180:Src/stm32f4xx_hal_msp.c ****   
 181:Src/stm32f4xx_hal_msp.c ****   //static DMA_HandleTypeDef hdma_tx;
 182:Src/stm32f4xx_hal_msp.c ****   //static DMA_HandleTypeDef hdma_rx;
 183:Src/stm32f4xx_hal_msp.c **** 
 184:Src/stm32f4xx_hal_msp.c ****   /*##-1- Reset peripherals ##################################################*/
 185:Src/stm32f4xx_hal_msp.c ****   USARTx_FORCE_RESET();
 188              		.loc 1 185 0
 189 0000 0B4B     		ldr	r3, .L5	@ tmp115,
 190 0002 1A6A     		ldr	r2, [r3, #32]	@ D.7432, MEM[(struct RCC_TypeDef *)1073887232B].APB1RSTR
 191 0004 42F40032 		orr	r2, r2, #131072	@ D.7432, D.7432,
 179:Src/stm32f4xx_hal_msp.c ****   
 192              		.loc 1 179 0
 193 0008 10B5     		push	{r4, lr}	@
 194              		.cfi_def_cfa_offset 8
 195              		.cfi_offset 4, -8
 196              		.cfi_offset 14, -4
 197              		.loc 1 185 0
 198 000a 1A62     		str	r2, [r3, #32]	@ D.7432, MEM[(struct RCC_TypeDef *)1073887232B].APB1RSTR
ARM GAS  C:\cygwin\tmp\cc9XShlh.s 			page 8


 186:Src/stm32f4xx_hal_msp.c ****   USARTx_RELEASE_RESET();
 199              		.loc 1 186 0
 200 000c 1A6A     		ldr	r2, [r3, #32]	@ D.7432, MEM[(struct RCC_TypeDef *)1073887232B].APB1RSTR
 187:Src/stm32f4xx_hal_msp.c **** 
 188:Src/stm32f4xx_hal_msp.c ****   /*##-2- Disable peripherals and GPIO Clocks #################################*/
 189:Src/stm32f4xx_hal_msp.c ****   /* Configure UART Tx as alternate function  */
 190:Src/stm32f4xx_hal_msp.c ****   HAL_GPIO_DeInit(USARTx_TX_GPIO_PORT, USARTx_TX_PIN);
 201              		.loc 1 190 0
 202 000e 094C     		ldr	r4, .L5+4	@ tmp119,
 186:Src/stm32f4xx_hal_msp.c ****   USARTx_RELEASE_RESET();
 203              		.loc 1 186 0
 204 0010 22F40032 		bic	r2, r2, #131072	@ D.7432, D.7432,
 205              		.loc 1 190 0
 206 0014 2046     		mov	r0, r4	@, tmp119
 207              	.LVL7:
 186:Src/stm32f4xx_hal_msp.c ****   USARTx_RELEASE_RESET();
 208              		.loc 1 186 0
 209 0016 1A62     		str	r2, [r3, #32]	@ D.7432, MEM[(struct RCC_TypeDef *)1073887232B].APB1RSTR
 210              		.loc 1 190 0
 211 0018 0421     		movs	r1, #4	@,
 212 001a FFF7FEFF 		bl	HAL_GPIO_DeInit	@
 213              	.LVL8:
 191:Src/stm32f4xx_hal_msp.c ****   /* Configure UART Rx as alternate function  */
 192:Src/stm32f4xx_hal_msp.c ****   HAL_GPIO_DeInit(USARTx_RX_GPIO_PORT, USARTx_RX_PIN);
 214              		.loc 1 192 0
 215 001e 2046     		mov	r0, r4	@, tmp119
 216 0020 0821     		movs	r1, #8	@,
 217 0022 FFF7FEFF 		bl	HAL_GPIO_DeInit	@
 218              	.LVL9:
 193:Src/stm32f4xx_hal_msp.c ****    
 194:Src/stm32f4xx_hal_msp.c ****   /*##-3- Disable the DMA Streams ############################################*/
 195:Src/stm32f4xx_hal_msp.c ****   /* De-Initialize the DMA Stream associate to transmission process */
 196:Src/stm32f4xx_hal_msp.c ****   //HAL_DMA_DeInit(&hdma_tx); 
 197:Src/stm32f4xx_hal_msp.c ****   /* De-Initialize the DMA Stream associate to reception process */
 198:Src/stm32f4xx_hal_msp.c ****   //HAL_DMA_DeInit(&hdma_rx);
 199:Src/stm32f4xx_hal_msp.c ****   
 200:Src/stm32f4xx_hal_msp.c ****   /*##-4- Disable the NVIC for DMA ###########################################*/
 201:Src/stm32f4xx_hal_msp.c ****   //HAL_NVIC_DisableIRQ(USARTx_DMA_TX_IRQn);
 202:Src/stm32f4xx_hal_msp.c ****   //HAL_NVIC_DisableIRQ(USARTx_DMA_RX_IRQn);
 203:Src/stm32f4xx_hal_msp.c ****   HAL_NVIC_DisableIRQ(USARTx_IRQn);
 219              		.loc 1 203 0
 220 0026 2620     		movs	r0, #38	@,
 204:Src/stm32f4xx_hal_msp.c **** }
 221              		.loc 1 204 0
 222 0028 BDE81040 		pop	{r4, lr}	@
 223              		.cfi_restore 14
 224              		.cfi_restore 4
 225              		.cfi_def_cfa_offset 0
 203:Src/stm32f4xx_hal_msp.c **** }
 226              		.loc 1 203 0
 227 002c FFF7FEBF 		b	HAL_NVIC_DisableIRQ	@
 228              	.LVL10:
 229              	.L6:
 230              		.align	2
 231              	.L5:
 232 0030 00380240 		.word	1073887232
 233 0034 00000240 		.word	1073872896
ARM GAS  C:\cygwin\tmp\cc9XShlh.s 			page 9


 234              		.cfi_endproc
 235              	.LFE124:
 236              		.size	HAL_UART_MspDeInit, .-HAL_UART_MspDeInit
 237              		.section	.text.HAL_I2C_MspInit,"ax",%progbits
 238              		.align	1
 239              		.global	HAL_I2C_MspInit
 240              		.thumb
 241              		.thumb_func
 242              		.type	HAL_I2C_MspInit, %function
 243              	HAL_I2C_MspInit:
 244              	.LFB125:
 205:Src/stm32f4xx_hal_msp.c **** 
 206:Src/stm32f4xx_hal_msp.c **** /**
 207:Src/stm32f4xx_hal_msp.c ****   * @brief I2C MSP Initialization 
 208:Src/stm32f4xx_hal_msp.c ****   *        This function configures the hardware resources used in this example: 
 209:Src/stm32f4xx_hal_msp.c ****   *           - Peripheral's clock enable
 210:Src/stm32f4xx_hal_msp.c ****   *           - Peripheral's GPIO Configuration  
 211:Src/stm32f4xx_hal_msp.c ****   *           - DMA configuration for transmission request by peripheral 
 212:Src/stm32f4xx_hal_msp.c ****   *           - NVIC configuration for DMA interrupt request enable
 213:Src/stm32f4xx_hal_msp.c ****   * @param hi2c: I2C handle pointer
 214:Src/stm32f4xx_hal_msp.c ****   * @retval None
 215:Src/stm32f4xx_hal_msp.c ****   */
 216:Src/stm32f4xx_hal_msp.c **** void HAL_I2C_MspInit(I2C_HandleTypeDef *hi2c){
 245              		.loc 1 216 0
 246              		.cfi_startproc
 247              		@ args = 0, pretend = 0, frame = 24
 248              		@ frame_needed = 0, uses_anonymous_args = 0
 249              	.LVL11:
 250 0000 2DE9F043 		push	{r4, r5, r6, r7, r8, r9, lr}	@
 251              		.cfi_def_cfa_offset 28
 252              		.cfi_offset 4, -28
 253              		.cfi_offset 5, -24
 254              		.cfi_offset 6, -20
 255              		.cfi_offset 7, -16
 256              		.cfi_offset 8, -12
 257              		.cfi_offset 9, -8
 258              		.cfi_offset 14, -4
 217:Src/stm32f4xx_hal_msp.c ****   
 218:Src/stm32f4xx_hal_msp.c ****   GPIO_InitTypeDef  GPIO_InitStruct;
 219:Src/stm32f4xx_hal_msp.c ****   
 220:Src/stm32f4xx_hal_msp.c ****   /*##-1- Enable GPIO Clocks #################################################*/
 221:Src/stm32f4xx_hal_msp.c ****   /* Enable GPIO TX/RX clock */
 222:Src/stm32f4xx_hal_msp.c ****   I2Cx_SCL_GPIO_CLK_ENABLE();
 259              		.loc 1 222 0
 260 0004 264C     		ldr	r4, .L8	@ tmp119,
 223:Src/stm32f4xx_hal_msp.c ****   I2Cx_SDA_GPIO_CLK_ENABLE();
 224:Src/stm32f4xx_hal_msp.c ****   /* PORTC-Reset pin bus enable */
 225:Src/stm32f4xx_hal_msp.c ****   __HAL_RCC_GPIOC_CLK_ENABLE();
 226:Src/stm32f4xx_hal_msp.c **** 
 227:Src/stm32f4xx_hal_msp.c **** 
 228:Src/stm32f4xx_hal_msp.c ****   /*##-2- Configure peripheral GPIO ##########################################*/
 229:Src/stm32f4xx_hal_msp.c ****   /* I2C TX GPIO pin configuration  */
 230:Src/stm32f4xx_hal_msp.c ****   GPIO_InitStruct.Pin       = I2Cx_SCL_PIN;
 231:Src/stm32f4xx_hal_msp.c ****   GPIO_InitStruct.Mode      = GPIO_MODE_AF_OD;
 232:Src/stm32f4xx_hal_msp.c ****   GPIO_InitStruct.Pull      = GPIO_PULLUP;
 233:Src/stm32f4xx_hal_msp.c ****   GPIO_InitStruct.Speed     = GPIO_SPEED_FAST;
 234:Src/stm32f4xx_hal_msp.c ****   GPIO_InitStruct.Alternate = I2Cx_SCL_AF;
ARM GAS  C:\cygwin\tmp\cc9XShlh.s 			page 10


 235:Src/stm32f4xx_hal_msp.c ****   HAL_GPIO_Init(I2Cx_SCL_GPIO_PORT, &GPIO_InitStruct);
 261              		.loc 1 235 0
 262 0006 274E     		ldr	r6, .L8+4	@ tmp130,
 222:Src/stm32f4xx_hal_msp.c ****   I2Cx_SDA_GPIO_CLK_ENABLE();
 263              		.loc 1 222 0
 264 0008 236B     		ldr	r3, [r4, #48]	@ D.7435, MEM[(struct RCC_TypeDef *)1073887232B].AHB1ENR
 265 000a 43F00203 		orr	r3, r3, #2	@ D.7435, D.7435,
 266 000e 2363     		str	r3, [r4, #48]	@ D.7435, MEM[(struct RCC_TypeDef *)1073887232B].AHB1ENR
 223:Src/stm32f4xx_hal_msp.c ****   I2Cx_SDA_GPIO_CLK_ENABLE();
 267              		.loc 1 223 0
 268 0010 236B     		ldr	r3, [r4, #48]	@ D.7435, MEM[(struct RCC_TypeDef *)1073887232B].AHB1ENR
 269 0012 43F00203 		orr	r3, r3, #2	@ D.7435, D.7435,
 270 0016 2363     		str	r3, [r4, #48]	@ D.7435, MEM[(struct RCC_TypeDef *)1073887232B].AHB1ENR
 225:Src/stm32f4xx_hal_msp.c **** 
 271              		.loc 1 225 0
 272 0018 236B     		ldr	r3, [r4, #48]	@ D.7435, MEM[(struct RCC_TypeDef *)1073887232B].AHB1ENR
 216:Src/stm32f4xx_hal_msp.c ****   
 273              		.loc 1 216 0
 274 001a 87B0     		sub	sp, sp, #28	@,,
 275              		.cfi_def_cfa_offset 56
 234:Src/stm32f4xx_hal_msp.c ****   HAL_GPIO_Init(I2Cx_SCL_GPIO_PORT, &GPIO_InitStruct);
 276              		.loc 1 234 0
 277 001c 4FF00409 		mov	r9, #4	@ tmp129,
 225:Src/stm32f4xx_hal_msp.c **** 
 278              		.loc 1 225 0
 279 0020 43F00403 		orr	r3, r3, #4	@ D.7435, D.7435,
 280 0024 2363     		str	r3, [r4, #48]	@ D.7435, MEM[(struct RCC_TypeDef *)1073887232B].AHB1ENR
 232:Src/stm32f4xx_hal_msp.c ****   GPIO_InitStruct.Speed     = GPIO_SPEED_FAST;
 281              		.loc 1 232 0
 282 0026 0125     		movs	r5, #1	@ tmp127,
 231:Src/stm32f4xx_hal_msp.c ****   GPIO_InitStruct.Pull      = GPIO_PULLUP;
 283              		.loc 1 231 0
 284 0028 1223     		movs	r3, #18	@ tmp126,
 230:Src/stm32f4xx_hal_msp.c ****   GPIO_InitStruct.Mode      = GPIO_MODE_AF_OD;
 285              		.loc 1 230 0
 286 002a 4FF04008 		mov	r8, #64	@ tmp125,
 233:Src/stm32f4xx_hal_msp.c ****   GPIO_InitStruct.Alternate = I2Cx_SCL_AF;
 287              		.loc 1 233 0
 288 002e 0227     		movs	r7, #2	@ tmp128,
 289              		.loc 1 235 0
 290 0030 3046     		mov	r0, r6	@, tmp130
 291              	.LVL12:
 292 0032 0DEB0901 		add	r1, sp, r9	@ tmp147,,
 231:Src/stm32f4xx_hal_msp.c ****   GPIO_InitStruct.Pull      = GPIO_PULLUP;
 293              		.loc 1 231 0
 294 0036 0293     		str	r3, [sp, #8]	@ tmp126, GPIO_InitStruct.Mode
 230:Src/stm32f4xx_hal_msp.c ****   GPIO_InitStruct.Mode      = GPIO_MODE_AF_OD;
 295              		.loc 1 230 0
 296 0038 CDF80480 		str	r8, [sp, #4]	@ tmp125, GPIO_InitStruct.Pin
 233:Src/stm32f4xx_hal_msp.c ****   GPIO_InitStruct.Alternate = I2Cx_SCL_AF;
 297              		.loc 1 233 0
 298 003c 0497     		str	r7, [sp, #16]	@ tmp128, GPIO_InitStruct.Speed
 232:Src/stm32f4xx_hal_msp.c ****   GPIO_InitStruct.Speed     = GPIO_SPEED_FAST;
 299              		.loc 1 232 0
 300 003e 0395     		str	r5, [sp, #12]	@ tmp127, GPIO_InitStruct.Pull
 234:Src/stm32f4xx_hal_msp.c ****   HAL_GPIO_Init(I2Cx_SCL_GPIO_PORT, &GPIO_InitStruct);
 301              		.loc 1 234 0
ARM GAS  C:\cygwin\tmp\cc9XShlh.s 			page 11


 302 0040 CDF81490 		str	r9, [sp, #20]	@ tmp129, GPIO_InitStruct.Alternate
 303              		.loc 1 235 0
 304 0044 FFF7FEFF 		bl	HAL_GPIO_Init	@
 305              	.LVL13:
 236:Src/stm32f4xx_hal_msp.c ****   HAL_GPIO_WritePin(GPIOB, GPIO_PIN_6, GPIO_PIN_SET);
 306              		.loc 1 236 0
 307 0048 2A46     		mov	r2, r5	@, tmp127
 308 004a 3046     		mov	r0, r6	@, tmp130
 309 004c 4146     		mov	r1, r8	@, tmp125
 310 004e FFF7FEFF 		bl	HAL_GPIO_WritePin	@
 311              	.LVL14:
 237:Src/stm32f4xx_hal_msp.c **** 
 238:Src/stm32f4xx_hal_msp.c ****   /* I2C RX GPIO pin configuration  */
 239:Src/stm32f4xx_hal_msp.c ****   GPIO_InitStruct.Pin = I2Cx_SDA_PIN;
 312              		.loc 1 239 0
 313 0052 4FF40078 		mov	r8, #512	@ tmp133,
 240:Src/stm32f4xx_hal_msp.c ****   GPIO_InitStruct.Alternate = I2Cx_SDA_AF;
 241:Src/stm32f4xx_hal_msp.c ****   HAL_GPIO_Init(I2Cx_SDA_GPIO_PORT, &GPIO_InitStruct);
 314              		.loc 1 241 0
 315 0056 3046     		mov	r0, r6	@, tmp130
 316 0058 0DEB0901 		add	r1, sp, r9	@ tmp148,,
 239:Src/stm32f4xx_hal_msp.c ****   GPIO_InitStruct.Alternate = I2Cx_SDA_AF;
 317              		.loc 1 239 0
 318 005c CDF80480 		str	r8, [sp, #4]	@ tmp133, GPIO_InitStruct.Pin
 240:Src/stm32f4xx_hal_msp.c ****   GPIO_InitStruct.Alternate = I2Cx_SDA_AF;
 319              		.loc 1 240 0
 320 0060 CDF81490 		str	r9, [sp, #20]	@ tmp129, GPIO_InitStruct.Alternate
 321              		.loc 1 241 0
 322 0064 FFF7FEFF 		bl	HAL_GPIO_Init	@
 323              	.LVL15:
 242:Src/stm32f4xx_hal_msp.c ****   HAL_GPIO_WritePin(GPIOB, GPIO_PIN_9, GPIO_PIN_SET);
 324              		.loc 1 242 0
 325 0068 2A46     		mov	r2, r5	@, tmp127
 326 006a 3046     		mov	r0, r6	@, tmp130
 327 006c 4146     		mov	r1, r8	@, tmp133
 328 006e FFF7FEFF 		bl	HAL_GPIO_WritePin	@
 329              	.LVL16:
 243:Src/stm32f4xx_hal_msp.c ****   
 244:Src/stm32f4xx_hal_msp.c ****   /* Init Reset Pin Touch */
 245:Src/stm32f4xx_hal_msp.c ****   GPIO_InitStruct.Pin = GPIO_PIN_3;
 246:Src/stm32f4xx_hal_msp.c ****   GPIO_InitStruct.Mode = GPIO_MODE_OUTPUT_PP;
 247:Src/stm32f4xx_hal_msp.c ****   GPIO_InitStruct.Speed = GPIO_SPEED_FAST;
 330              		.loc 1 247 0
 331 0072 0497     		str	r7, [sp, #16]	@ tmp128, GPIO_InitStruct.Speed
 248:Src/stm32f4xx_hal_msp.c ****   GPIO_InitStruct.Pull = GPIO_PULLUP;
 249:Src/stm32f4xx_hal_msp.c ****   HAL_GPIO_Init(GPIOC, &GPIO_InitStruct);
 332              		.loc 1 249 0
 333 0074 0C4F     		ldr	r7, .L8+8	@ tmp142,
 246:Src/stm32f4xx_hal_msp.c ****   GPIO_InitStruct.Speed = GPIO_SPEED_FAST;
 334              		.loc 1 246 0
 335 0076 0295     		str	r5, [sp, #8]	@ tmp127, GPIO_InitStruct.Mode
 245:Src/stm32f4xx_hal_msp.c ****   GPIO_InitStruct.Mode = GPIO_MODE_OUTPUT_PP;
 336              		.loc 1 245 0
 337 0078 0826     		movs	r6, #8	@ tmp138,
 338              		.loc 1 249 0
 339 007a 3846     		mov	r0, r7	@, tmp142
 340 007c 0DEB0901 		add	r1, sp, r9	@ tmp149,,
ARM GAS  C:\cygwin\tmp\cc9XShlh.s 			page 12


 245:Src/stm32f4xx_hal_msp.c ****   GPIO_InitStruct.Mode = GPIO_MODE_OUTPUT_PP;
 341              		.loc 1 245 0
 342 0080 0196     		str	r6, [sp, #4]	@ tmp138, GPIO_InitStruct.Pin
 248:Src/stm32f4xx_hal_msp.c ****   GPIO_InitStruct.Pull = GPIO_PULLUP;
 343              		.loc 1 248 0
 344 0082 0395     		str	r5, [sp, #12]	@ tmp127, GPIO_InitStruct.Pull
 345              		.loc 1 249 0
 346 0084 FFF7FEFF 		bl	HAL_GPIO_Init	@
 347              	.LVL17:
 250:Src/stm32f4xx_hal_msp.c ****   HAL_GPIO_WritePin(GPIOC, GPIO_PIN_3, GPIO_PIN_SET);
 348              		.loc 1 250 0
 349 0088 3846     		mov	r0, r7	@, tmp142
 350 008a 3146     		mov	r1, r6	@, tmp138
 351 008c 2A46     		mov	r2, r5	@, tmp127
 352 008e FFF7FEFF 		bl	HAL_GPIO_WritePin	@
 353              	.LVL18:
 251:Src/stm32f4xx_hal_msp.c ****  
 252:Src/stm32f4xx_hal_msp.c ****   /*##-3- Enable peripheral Clock ############################################*/
 253:Src/stm32f4xx_hal_msp.c ****   /* Enable I2C1 clock */
 254:Src/stm32f4xx_hal_msp.c ****   I2Cx_CLK_ENABLE();
 354              		.loc 1 254 0
 355 0092 236C     		ldr	r3, [r4, #64]	@ D.7435, MEM[(struct RCC_TypeDef *)1073887232B].APB1ENR
 356 0094 43F40013 		orr	r3, r3, #2097152	@ D.7435, D.7435,
 357 0098 2364     		str	r3, [r4, #64]	@ D.7435, MEM[(struct RCC_TypeDef *)1073887232B].APB1ENR
 255:Src/stm32f4xx_hal_msp.c ****   
 256:Src/stm32f4xx_hal_msp.c **** }
 358              		.loc 1 256 0
 359 009a 07B0     		add	sp, sp, #28	@,,
 360              		.cfi_def_cfa_offset 28
 361              		@ sp needed	@
 362 009c BDE8F083 		pop	{r4, r5, r6, r7, r8, r9, pc}	@
 363              	.L9:
 364              		.align	2
 365              	.L8:
 366 00a0 00380240 		.word	1073887232
 367 00a4 00040240 		.word	1073873920
 368 00a8 00080240 		.word	1073874944
 369              		.cfi_endproc
 370              	.LFE125:
 371              		.size	HAL_I2C_MspInit, .-HAL_I2C_MspInit
 372              		.section	.text.HAL_I2C_MspDeInit,"ax",%progbits
 373              		.align	1
 374              		.global	HAL_I2C_MspDeInit
 375              		.thumb
 376              		.thumb_func
 377              		.type	HAL_I2C_MspDeInit, %function
 378              	HAL_I2C_MspDeInit:
 379              	.LFB126:
 257:Src/stm32f4xx_hal_msp.c **** 
 258:Src/stm32f4xx_hal_msp.c **** /**
 259:Src/stm32f4xx_hal_msp.c ****   * @brief I2C MSP De-Initialization 
 260:Src/stm32f4xx_hal_msp.c ****   *        This function frees the hardware resources used in this example:
 261:Src/stm32f4xx_hal_msp.c ****   *          - Disable the Peripheral's clock
 262:Src/stm32f4xx_hal_msp.c ****   *          - Revert GPIO, DMA and NVIC configuration to their default state
 263:Src/stm32f4xx_hal_msp.c ****   * @param hi2c: I2C handle pointer
 264:Src/stm32f4xx_hal_msp.c ****   * @retval None
 265:Src/stm32f4xx_hal_msp.c ****   */
ARM GAS  C:\cygwin\tmp\cc9XShlh.s 			page 13


 266:Src/stm32f4xx_hal_msp.c **** void HAL_I2C_MspDeInit(I2C_HandleTypeDef *hi2c){
 380              		.loc 1 266 0
 381              		.cfi_startproc
 382              		@ args = 0, pretend = 0, frame = 0
 383              		@ frame_needed = 0, uses_anonymous_args = 0
 384              	.LVL19:
 267:Src/stm32f4xx_hal_msp.c ****   
 268:Src/stm32f4xx_hal_msp.c ****   /*##-1- Reset peripherals ##################################################*/
 269:Src/stm32f4xx_hal_msp.c ****   I2Cx_FORCE_RESET();
 385              		.loc 1 269 0
 386 0000 0A4B     		ldr	r3, .L11	@ tmp115,
 387 0002 1A6A     		ldr	r2, [r3, #32]	@ D.7438, MEM[(struct RCC_TypeDef *)1073887232B].APB1RSTR
 388 0004 42F40012 		orr	r2, r2, #2097152	@ D.7438, D.7438,
 266:Src/stm32f4xx_hal_msp.c ****   
 389              		.loc 1 266 0
 390 0008 10B5     		push	{r4, lr}	@
 391              		.cfi_def_cfa_offset 8
 392              		.cfi_offset 4, -8
 393              		.cfi_offset 14, -4
 394              		.loc 1 269 0
 395 000a 1A62     		str	r2, [r3, #32]	@ D.7438, MEM[(struct RCC_TypeDef *)1073887232B].APB1RSTR
 270:Src/stm32f4xx_hal_msp.c ****   I2Cx_RELEASE_RESET();
 396              		.loc 1 270 0
 397 000c 1A6A     		ldr	r2, [r3, #32]	@ D.7438, MEM[(struct RCC_TypeDef *)1073887232B].APB1RSTR
 271:Src/stm32f4xx_hal_msp.c **** 
 272:Src/stm32f4xx_hal_msp.c ****   /*##-2- Disable peripherals and GPIO Clocks ################################*/
 273:Src/stm32f4xx_hal_msp.c ****   /* Configure I2C Tx as alternate function  */
 274:Src/stm32f4xx_hal_msp.c ****   HAL_GPIO_DeInit(I2Cx_SCL_GPIO_PORT, I2Cx_SCL_PIN);
 398              		.loc 1 274 0
 399 000e 084C     		ldr	r4, .L11+4	@ tmp119,
 270:Src/stm32f4xx_hal_msp.c ****   I2Cx_RELEASE_RESET();
 400              		.loc 1 270 0
 401 0010 22F40012 		bic	r2, r2, #2097152	@ D.7438, D.7438,
 402              		.loc 1 274 0
 403 0014 2046     		mov	r0, r4	@, tmp119
 404              	.LVL20:
 405 0016 4021     		movs	r1, #64	@,
 270:Src/stm32f4xx_hal_msp.c ****   I2Cx_RELEASE_RESET();
 406              		.loc 1 270 0
 407 0018 1A62     		str	r2, [r3, #32]	@ D.7438, MEM[(struct RCC_TypeDef *)1073887232B].APB1RSTR
 408              		.loc 1 274 0
 409 001a FFF7FEFF 		bl	HAL_GPIO_DeInit	@
 410              	.LVL21:
 275:Src/stm32f4xx_hal_msp.c ****   /* Configure I2C Rx as alternate function  */
 276:Src/stm32f4xx_hal_msp.c ****   HAL_GPIO_DeInit(I2Cx_SDA_GPIO_PORT, I2Cx_SDA_PIN);
 411              		.loc 1 276 0
 412 001e 2046     		mov	r0, r4	@, tmp119
 413 0020 4FF40071 		mov	r1, #512	@,
 277:Src/stm32f4xx_hal_msp.c ****   
 278:Src/stm32f4xx_hal_msp.c **** }
 414              		.loc 1 278 0
 415 0024 BDE81040 		pop	{r4, lr}	@
 416              		.cfi_restore 14
 417              		.cfi_restore 4
 418              		.cfi_def_cfa_offset 0
 276:Src/stm32f4xx_hal_msp.c ****   
 419              		.loc 1 276 0
ARM GAS  C:\cygwin\tmp\cc9XShlh.s 			page 14


 420 0028 FFF7FEBF 		b	HAL_GPIO_DeInit	@
 421              	.LVL22:
 422              	.L12:
 423              		.align	2
 424              	.L11:
 425 002c 00380240 		.word	1073887232
 426 0030 00040240 		.word	1073873920
 427              		.cfi_endproc
 428              	.LFE126:
 429              		.size	HAL_I2C_MspDeInit, .-HAL_I2C_MspDeInit
 430              		.section	.text.HAL_SRAM_MspInit,"ax",%progbits
 431              		.align	1
 432              		.global	HAL_SRAM_MspInit
 433              		.thumb
 434              		.thumb_func
 435              		.type	HAL_SRAM_MspInit, %function
 436              	HAL_SRAM_MspInit:
 437              	.LFB127:
 279:Src/stm32f4xx_hal_msp.c **** 
 280:Src/stm32f4xx_hal_msp.c **** 
 281:Src/stm32f4xx_hal_msp.c **** /**
 282:Src/stm32f4xx_hal_msp.c ****   * @brief SRAM init
 283:Src/stm32f4xx_hal_msp.c ****   * param  handle to sram
 284:Src/stm32f4xx_hal_msp.c ****   * retval None
 285:Src/stm32f4xx_hal_msp.c ****   */
 286:Src/stm32f4xx_hal_msp.c **** void HAL_SRAM_MspInit(SRAM_HandleTypeDef * hsram){
 438              		.loc 1 286 0
 439              		.cfi_startproc
 440              		@ args = 0, pretend = 0, frame = 24
 441              		@ frame_needed = 0, uses_anonymous_args = 0
 442              	.LVL23:
 287:Src/stm32f4xx_hal_msp.c **** 	// TODO -> PUT RESET ON GPIO PIN SO WE CAN RESET DISPLAY
 288:Src/stm32f4xx_hal_msp.c **** 	// now reset is on NRST pin on the STM32F4 discovery
 289:Src/stm32f4xx_hal_msp.c **** 	GPIO_InitTypeDef GPIO_InitStructure;
 290:Src/stm32f4xx_hal_msp.c **** 
 291:Src/stm32f4xx_hal_msp.c **** 	// Clock Enable FSMC
 292:Src/stm32f4xx_hal_msp.c **** 	__HAL_RCC_FSMC_CLK_ENABLE();
 443              		.loc 1 292 0
 444 0000 204B     		ldr	r3, .L14	@ tmp119,
 293:Src/stm32f4xx_hal_msp.c **** 
 294:Src/stm32f4xx_hal_msp.c **** 	// Clock Enable Port-D and Port-E
 295:Src/stm32f4xx_hal_msp.c **** 	__HAL_RCC_GPIOD_CLK_ENABLE();
 296:Src/stm32f4xx_hal_msp.c **** 	__HAL_RCC_GPIOE_CLK_ENABLE();
 297:Src/stm32f4xx_hal_msp.c **** 	__HAL_RCC_GPIOB_CLK_ENABLE();
 298:Src/stm32f4xx_hal_msp.c **** 
 299:Src/stm32f4xx_hal_msp.c **** 	//PORTD setup -> alternate function
 300:Src/stm32f4xx_hal_msp.c **** 	// PD0=FSMC_D2->DB2
 301:Src/stm32f4xx_hal_msp.c **** 	// PD1=FSMC_D3->DB3
 302:Src/stm32f4xx_hal_msp.c **** 	// PD4=FSMC_NOE->RD
 303:Src/stm32f4xx_hal_msp.c **** 	// PD5=FSMC_NWE->WR
 304:Src/stm32f4xx_hal_msp.c **** 	// PD7=FSMC_NE1->CS
 305:Src/stm32f4xx_hal_msp.c **** 	// PD8=FSMC_D13->DB15
 306:Src/stm32f4xx_hal_msp.c **** 	// PD9=FSMC_D14->DB16
 307:Src/stm32f4xx_hal_msp.c **** 	// PD10=FSMC_D15->DB17
 308:Src/stm32f4xx_hal_msp.c **** 	// PD11=FSMC_A16->RS
 309:Src/stm32f4xx_hal_msp.c **** 	// PD14=FSMC_D0->DB0
 310:Src/stm32f4xx_hal_msp.c **** 	// PD15=FSMC_D1->DB1
ARM GAS  C:\cygwin\tmp\cc9XShlh.s 			page 15


 311:Src/stm32f4xx_hal_msp.c **** 	GPIO_InitStructure.Pin = GPIO_PIN_0 | GPIO_PIN_1 | GPIO_PIN_4 | GPIO_PIN_5 | GPIO_PIN_7 | GPIO_PIN
 312:Src/stm32f4xx_hal_msp.c **** 	GPIO_InitStructure.Mode = GPIO_MODE_AF_PP;
 313:Src/stm32f4xx_hal_msp.c **** 	GPIO_InitStructure.Speed = GPIO_SPEED_HIGH;
 314:Src/stm32f4xx_hal_msp.c **** 	GPIO_InitStructure.Pull = GPIO_NOPULL;
 315:Src/stm32f4xx_hal_msp.c **** 	GPIO_InitStructure.Alternate = GPIO_AF12_FSMC;
 316:Src/stm32f4xx_hal_msp.c **** 	HAL_GPIO_Init(GPIOD, &GPIO_InitStructure);
 445              		.loc 1 316 0
 446 0002 2148     		ldr	r0, .L14+4	@,
 447              	.LVL24:
 292:Src/stm32f4xx_hal_msp.c **** 
 448              		.loc 1 292 0
 449 0004 9A6B     		ldr	r2, [r3, #56]	@ D.7441, MEM[(struct RCC_TypeDef *)1073887232B].AHB3ENR
 450 0006 42F00102 		orr	r2, r2, #1	@ D.7441, D.7441,
 286:Src/stm32f4xx_hal_msp.c **** 	// TODO -> PUT RESET ON GPIO PIN SO WE CAN RESET DISPLAY
 451              		.loc 1 286 0
 452 000a F0B5     		push	{r4, r5, r6, r7, lr}	@
 453              		.cfi_def_cfa_offset 20
 454              		.cfi_offset 4, -20
 455              		.cfi_offset 5, -16
 456              		.cfi_offset 6, -12
 457              		.cfi_offset 7, -8
 458              		.cfi_offset 14, -4
 292:Src/stm32f4xx_hal_msp.c **** 
 459              		.loc 1 292 0
 460 000c 9A63     		str	r2, [r3, #56]	@ D.7441, MEM[(struct RCC_TypeDef *)1073887232B].AHB3ENR
 295:Src/stm32f4xx_hal_msp.c **** 	__HAL_RCC_GPIOE_CLK_ENABLE();
 461              		.loc 1 295 0
 462 000e 1A6B     		ldr	r2, [r3, #48]	@ D.7441, MEM[(struct RCC_TypeDef *)1073887232B].AHB1ENR
 463 0010 42F00802 		orr	r2, r2, #8	@ D.7441, D.7441,
 464 0014 1A63     		str	r2, [r3, #48]	@ D.7441, MEM[(struct RCC_TypeDef *)1073887232B].AHB1ENR
 296:Src/stm32f4xx_hal_msp.c **** 	__HAL_RCC_GPIOB_CLK_ENABLE();
 465              		.loc 1 296 0
 466 0016 1A6B     		ldr	r2, [r3, #48]	@ D.7441, MEM[(struct RCC_TypeDef *)1073887232B].AHB1ENR
 467 0018 42F01002 		orr	r2, r2, #16	@ D.7441, D.7441,
 468 001c 1A63     		str	r2, [r3, #48]	@ D.7441, MEM[(struct RCC_TypeDef *)1073887232B].AHB1ENR
 297:Src/stm32f4xx_hal_msp.c **** 
 469              		.loc 1 297 0
 470 001e 1A6B     		ldr	r2, [r3, #48]	@ D.7441, MEM[(struct RCC_TypeDef *)1073887232B].AHB1ENR
 286:Src/stm32f4xx_hal_msp.c **** 	// TODO -> PUT RESET ON GPIO PIN SO WE CAN RESET DISPLAY
 471              		.loc 1 286 0
 472 0020 87B0     		sub	sp, sp, #28	@,,
 473              		.cfi_def_cfa_offset 48
 297:Src/stm32f4xx_hal_msp.c **** 
 474              		.loc 1 297 0
 475 0022 42F00202 		orr	r2, r2, #2	@ D.7441, D.7441,
 476 0026 1A63     		str	r2, [r3, #48]	@ D.7441, MEM[(struct RCC_TypeDef *)1073887232B].AHB1ENR
 312:Src/stm32f4xx_hal_msp.c **** 	GPIO_InitStructure.Speed = GPIO_SPEED_HIGH;
 477              		.loc 1 312 0
 478 0028 0224     		movs	r4, #2	@ tmp128,
 311:Src/stm32f4xx_hal_msp.c **** 	GPIO_InitStructure.Mode = GPIO_MODE_AF_PP;
 479              		.loc 1 311 0
 480 002a 4CF6B373 		movw	r3, #53171	@ tmp127,
 313:Src/stm32f4xx_hal_msp.c **** 	GPIO_InitStructure.Pull = GPIO_NOPULL;
 481              		.loc 1 313 0
 482 002e 0327     		movs	r7, #3	@ tmp129,
 314:Src/stm32f4xx_hal_msp.c **** 	GPIO_InitStructure.Alternate = GPIO_AF12_FSMC;
 483              		.loc 1 314 0
ARM GAS  C:\cygwin\tmp\cc9XShlh.s 			page 16


 484 0030 0026     		movs	r6, #0	@ tmp130,
 315:Src/stm32f4xx_hal_msp.c **** 	HAL_GPIO_Init(GPIOD, &GPIO_InitStructure);
 485              		.loc 1 315 0
 486 0032 0C25     		movs	r5, #12	@ tmp131,
 487              		.loc 1 316 0
 488 0034 01A9     		add	r1, sp, #4	@ tmp148,,
 311:Src/stm32f4xx_hal_msp.c **** 	GPIO_InitStructure.Mode = GPIO_MODE_AF_PP;
 489              		.loc 1 311 0
 490 0036 0193     		str	r3, [sp, #4]	@ tmp127, GPIO_InitStructure.Pin
 314:Src/stm32f4xx_hal_msp.c **** 	GPIO_InitStructure.Alternate = GPIO_AF12_FSMC;
 491              		.loc 1 314 0
 492 0038 0396     		str	r6, [sp, #12]	@ tmp130, GPIO_InitStructure.Pull
 315:Src/stm32f4xx_hal_msp.c **** 	HAL_GPIO_Init(GPIOD, &GPIO_InitStructure);
 493              		.loc 1 315 0
 494 003a 0595     		str	r5, [sp, #20]	@ tmp131, GPIO_InitStructure.Alternate
 312:Src/stm32f4xx_hal_msp.c **** 	GPIO_InitStructure.Speed = GPIO_SPEED_HIGH;
 495              		.loc 1 312 0
 496 003c 0294     		str	r4, [sp, #8]	@ tmp128, GPIO_InitStructure.Mode
 313:Src/stm32f4xx_hal_msp.c **** 	GPIO_InitStructure.Pull = GPIO_NOPULL;
 497              		.loc 1 313 0
 498 003e 0497     		str	r7, [sp, #16]	@ tmp129, GPIO_InitStructure.Speed
 499              		.loc 1 316 0
 500 0040 FFF7FEFF 		bl	HAL_GPIO_Init	@
 501              	.LVL25:
 317:Src/stm32f4xx_hal_msp.c **** 
 318:Src/stm32f4xx_hal_msp.c **** 	//PORTE setup -> alternate function
 319:Src/stm32f4xx_hal_msp.c **** 	// PE7=FSMC_D4->DB4
 320:Src/stm32f4xx_hal_msp.c **** 	// PE8=FSMC_D5->DB5
 321:Src/stm32f4xx_hal_msp.c **** 	// PE9=FSMC_D6->DB6
 322:Src/stm32f4xx_hal_msp.c **** 	// PE10=FSMC_D7->DB7
 323:Src/stm32f4xx_hal_msp.c **** 	// PE11=FSMC_D8->DB10
 324:Src/stm32f4xx_hal_msp.c **** 	// PE12=FSMC_D9->DB11
 325:Src/stm32f4xx_hal_msp.c **** 	// PE13=FSMC_D10->DB12
 326:Src/stm32f4xx_hal_msp.c **** 	// PE14=FSMC_D11->DB13
 327:Src/stm32f4xx_hal_msp.c **** 	// PE15=FSMC_D12->DB14
 328:Src/stm32f4xx_hal_msp.c **** 	GPIO_InitStructure.Pin = GPIO_PIN_7 | GPIO_PIN_8 | GPIO_PIN_9 | GPIO_PIN_10 | GPIO_PIN_11 | GPIO_P
 329:Src/stm32f4xx_hal_msp.c **** 	GPIO_InitStructure.Mode = GPIO_MODE_AF_PP;
 330:Src/stm32f4xx_hal_msp.c **** 	GPIO_InitStructure.Speed = GPIO_SPEED_HIGH;
 331:Src/stm32f4xx_hal_msp.c **** 	GPIO_InitStructure.Pull = GPIO_NOPULL;
 502              		.loc 1 331 0
 503 0044 0396     		str	r6, [sp, #12]	@ tmp130, GPIO_InitStructure.Pull
 332:Src/stm32f4xx_hal_msp.c **** 	GPIO_InitStructure.Alternate = GPIO_AF12_FSMC;
 333:Src/stm32f4xx_hal_msp.c **** 	HAL_GPIO_Init(GPIOE, &GPIO_InitStructure);
 334:Src/stm32f4xx_hal_msp.c **** 
 335:Src/stm32f4xx_hal_msp.c **** 	/* Init Reset Pin Display */
 336:Src/stm32f4xx_hal_msp.c **** 	GPIO_InitStructure.Pin = GPIO_PIN_1;
 337:Src/stm32f4xx_hal_msp.c **** 	GPIO_InitStructure.Mode = GPIO_MODE_OUTPUT_PP;
 338:Src/stm32f4xx_hal_msp.c **** 	GPIO_InitStructure.Speed = GPIO_SPEED_FAST;
 339:Src/stm32f4xx_hal_msp.c **** 	GPIO_InitStructure.Pull = GPIO_PULLUP;
 340:Src/stm32f4xx_hal_msp.c **** 	HAL_GPIO_Init(GPIOB, &GPIO_InitStructure);
 504              		.loc 1 340 0
 505 0046 06F18046 		add	r6, r6, #1073741824	@ tmp145, tmp145,
 328:Src/stm32f4xx_hal_msp.c **** 	GPIO_InitStructure.Mode = GPIO_MODE_AF_PP;
 506              		.loc 1 328 0
 507 004a 4FF68073 		movw	r3, #65408	@ tmp134,
 333:Src/stm32f4xx_hal_msp.c **** 
 508              		.loc 1 333 0
ARM GAS  C:\cygwin\tmp\cc9XShlh.s 			page 17


 509 004e 01A9     		add	r1, sp, #4	@ tmp149,,
 510              		.loc 1 340 0
 511 0050 06F50136 		add	r6, r6, #132096	@ tmp145, tmp145,
 333:Src/stm32f4xx_hal_msp.c **** 
 512              		.loc 1 333 0
 513 0054 0D48     		ldr	r0, .L14+8	@,
 328:Src/stm32f4xx_hal_msp.c **** 	GPIO_InitStructure.Mode = GPIO_MODE_AF_PP;
 514              		.loc 1 328 0
 515 0056 0193     		str	r3, [sp, #4]	@ tmp134, GPIO_InitStructure.Pin
 332:Src/stm32f4xx_hal_msp.c **** 	GPIO_InitStructure.Alternate = GPIO_AF12_FSMC;
 516              		.loc 1 332 0
 517 0058 0595     		str	r5, [sp, #20]	@ tmp131, GPIO_InitStructure.Alternate
 329:Src/stm32f4xx_hal_msp.c **** 	GPIO_InitStructure.Speed = GPIO_SPEED_HIGH;
 518              		.loc 1 329 0
 519 005a 0294     		str	r4, [sp, #8]	@ tmp128, GPIO_InitStructure.Mode
 337:Src/stm32f4xx_hal_msp.c **** 	GPIO_InitStructure.Speed = GPIO_SPEED_FAST;
 520              		.loc 1 337 0
 521 005c 0125     		movs	r5, #1	@ tmp142,
 330:Src/stm32f4xx_hal_msp.c **** 	GPIO_InitStructure.Pull = GPIO_NOPULL;
 522              		.loc 1 330 0
 523 005e 0497     		str	r7, [sp, #16]	@ tmp129, GPIO_InitStructure.Speed
 333:Src/stm32f4xx_hal_msp.c **** 
 524              		.loc 1 333 0
 525 0060 FFF7FEFF 		bl	HAL_GPIO_Init	@
 526              	.LVL26:
 527              		.loc 1 340 0
 528 0064 3046     		mov	r0, r6	@, tmp145
 529 0066 01A9     		add	r1, sp, #4	@ tmp150,,
 336:Src/stm32f4xx_hal_msp.c **** 	GPIO_InitStructure.Mode = GPIO_MODE_OUTPUT_PP;
 530              		.loc 1 336 0
 531 0068 0194     		str	r4, [sp, #4]	@ tmp128, GPIO_InitStructure.Pin
 337:Src/stm32f4xx_hal_msp.c **** 	GPIO_InitStructure.Speed = GPIO_SPEED_FAST;
 532              		.loc 1 337 0
 533 006a 0295     		str	r5, [sp, #8]	@ tmp142, GPIO_InitStructure.Mode
 338:Src/stm32f4xx_hal_msp.c **** 	GPIO_InitStructure.Pull = GPIO_PULLUP;
 534              		.loc 1 338 0
 535 006c 0494     		str	r4, [sp, #16]	@ tmp128, GPIO_InitStructure.Speed
 339:Src/stm32f4xx_hal_msp.c **** 	HAL_GPIO_Init(GPIOB, &GPIO_InitStructure);
 536              		.loc 1 339 0
 537 006e 0395     		str	r5, [sp, #12]	@ tmp142, GPIO_InitStructure.Pull
 538              		.loc 1 340 0
 539 0070 FFF7FEFF 		bl	HAL_GPIO_Init	@
 540              	.LVL27:
 341:Src/stm32f4xx_hal_msp.c **** 	HAL_GPIO_WritePin(GPIOB, GPIO_PIN_1, GPIO_PIN_SET);
 541              		.loc 1 341 0
 542 0074 3046     		mov	r0, r6	@, tmp145
 543 0076 2146     		mov	r1, r4	@, tmp128
 544 0078 2A46     		mov	r2, r5	@, tmp142
 545 007a FFF7FEFF 		bl	HAL_GPIO_WritePin	@
 546              	.LVL28:
 342:Src/stm32f4xx_hal_msp.c ****  
 343:Src/stm32f4xx_hal_msp.c **** }
 547              		.loc 1 343 0
 548 007e 07B0     		add	sp, sp, #28	@,,
 549              		.cfi_def_cfa_offset 20
 550              		@ sp needed	@
 551 0080 F0BD     		pop	{r4, r5, r6, r7, pc}	@
ARM GAS  C:\cygwin\tmp\cc9XShlh.s 			page 18


 552              	.L15:
 553 0082 00BF     		.align	2
 554              	.L14:
 555 0084 00380240 		.word	1073887232
 556 0088 000C0240 		.word	1073875968
 557 008c 00100240 		.word	1073876992
 558              		.cfi_endproc
 559              	.LFE127:
 560              		.size	HAL_SRAM_MspInit, .-HAL_SRAM_MspInit
 561              		.section	.text.HALL_SRAM_MspDeInit,"ax",%progbits
 562              		.align	1
 563              		.global	HALL_SRAM_MspDeInit
 564              		.thumb
 565              		.thumb_func
 566              		.type	HALL_SRAM_MspDeInit, %function
 567              	HALL_SRAM_MspDeInit:
 568              	.LFB128:
 344:Src/stm32f4xx_hal_msp.c **** 		
 345:Src/stm32f4xx_hal_msp.c **** /**
 346:Src/stm32f4xx_hal_msp.c ****   * @brief SRAM deinit
 347:Src/stm32f4xx_hal_msp.c ****   * @param handle to sram
 348:Src/stm32f4xx_hal_msp.c ****   * @retval None
 349:Src/stm32f4xx_hal_msp.c ****   */
 350:Src/stm32f4xx_hal_msp.c **** void HALL_SRAM_MspDeInit(SRAM_HandleTypeDef * hsram){
 569              		.loc 1 350 0
 570              		.cfi_startproc
 571              		@ args = 0, pretend = 0, frame = 0
 572              		@ frame_needed = 0, uses_anonymous_args = 0
 573              	.LVL29:
 574 0000 08B5     		push	{r3, lr}	@
 575              		.cfi_def_cfa_offset 8
 576              		.cfi_offset 3, -8
 577              		.cfi_offset 14, -4
 351:Src/stm32f4xx_hal_msp.c **** 	// Disable peripheral and GPIO
 352:Src/stm32f4xx_hal_msp.c **** 	HAL_GPIO_DeInit(GPIOD, GPIO_PIN_0 | GPIO_PIN_1 | GPIO_PIN_4 | GPIO_PIN_5 | GPIO_PIN_7 | GPIO_PIN_8
 578              		.loc 1 352 0
 579 0002 0648     		ldr	r0, .L17	@,
 580              	.LVL30:
 581 0004 4CF6B371 		movw	r1, #53171	@,
 582 0008 FFF7FEFF 		bl	HAL_GPIO_DeInit	@
 583              	.LVL31:
 353:Src/stm32f4xx_hal_msp.c **** 	HAL_GPIO_DeInit(GPIOE, GPIO_PIN_7 | GPIO_PIN_8 | GPIO_PIN_9 | GPIO_PIN_10 | GPIO_PIN_11 | GPIO_PIN
 584              		.loc 1 353 0
 585 000c 0448     		ldr	r0, .L17+4	@,
 586 000e 4FF68071 		movw	r1, #65408	@,
 354:Src/stm32f4xx_hal_msp.c **** }
 587              		.loc 1 354 0
 588 0012 BDE80840 		pop	{r3, lr}	@
 589              		.cfi_restore 14
 590              		.cfi_restore 3
 591              		.cfi_def_cfa_offset 0
 353:Src/stm32f4xx_hal_msp.c **** 	HAL_GPIO_DeInit(GPIOE, GPIO_PIN_7 | GPIO_PIN_8 | GPIO_PIN_9 | GPIO_PIN_10 | GPIO_PIN_11 | GPIO_PIN
 592              		.loc 1 353 0
 593 0016 FFF7FEBF 		b	HAL_GPIO_DeInit	@
 594              	.LVL32:
 595              	.L18:
 596 001a 00BF     		.align	2
ARM GAS  C:\cygwin\tmp\cc9XShlh.s 			page 19


 597              	.L17:
 598 001c 000C0240 		.word	1073875968
 599 0020 00100240 		.word	1073876992
 600              		.cfi_endproc
 601              	.LFE128:
 602              		.size	HALL_SRAM_MspDeInit, .-HALL_SRAM_MspDeInit
 603              		.section	.text.HAL_MspInit,"ax",%progbits
 604              		.align	1
 605              		.global	HAL_MspInit
 606              		.thumb
 607              		.thumb_func
 608              		.type	HAL_MspInit, %function
 609              	HAL_MspInit:
 610              	.LFB129:
 355:Src/stm32f4xx_hal_msp.c **** 
 356:Src/stm32f4xx_hal_msp.c **** 
 357:Src/stm32f4xx_hal_msp.c **** /**
 358:Src/stm32f4xx_hal_msp.c ****   * @brief  Initializes the Global MSP.
 359:Src/stm32f4xx_hal_msp.c ****   * @param  None
 360:Src/stm32f4xx_hal_msp.c ****   * @retval None
 361:Src/stm32f4xx_hal_msp.c ****   */
 362:Src/stm32f4xx_hal_msp.c **** void HAL_MspInit(void)
 363:Src/stm32f4xx_hal_msp.c **** {
 611              		.loc 1 363 0
 612              		.cfi_startproc
 613              		@ args = 0, pretend = 0, frame = 0
 614              		@ frame_needed = 0, uses_anonymous_args = 0
 615              		@ link register save eliminated.
 616 0000 7047     		bx	lr	@
 617              		.cfi_endproc
 618              	.LFE129:
 619              		.size	HAL_MspInit, .-HAL_MspInit
 620              		.section	.text.HAL_MspDeInit,"ax",%progbits
 621              		.align	1
 622              		.global	HAL_MspDeInit
 623              		.thumb
 624              		.thumb_func
 625              		.type	HAL_MspDeInit, %function
 626              	HAL_MspDeInit:
 627              	.LFB130:
 364:Src/stm32f4xx_hal_msp.c ****   /* NOTE : This function is generated automatically by MicroXplorer and eventually  
 365:Src/stm32f4xx_hal_msp.c ****             modified by the user
 366:Src/stm32f4xx_hal_msp.c ****    */ 
 367:Src/stm32f4xx_hal_msp.c **** }
 368:Src/stm32f4xx_hal_msp.c **** 
 369:Src/stm32f4xx_hal_msp.c **** /**
 370:Src/stm32f4xx_hal_msp.c ****   * @brief  DeInitializes the Global MSP.
 371:Src/stm32f4xx_hal_msp.c ****   * @param  None  
 372:Src/stm32f4xx_hal_msp.c ****   * @retval None
 373:Src/stm32f4xx_hal_msp.c ****   */
 374:Src/stm32f4xx_hal_msp.c **** void HAL_MspDeInit(void)
 375:Src/stm32f4xx_hal_msp.c **** {
 628              		.loc 1 375 0
 629              		.cfi_startproc
 630              		@ args = 0, pretend = 0, frame = 0
 631              		@ frame_needed = 0, uses_anonymous_args = 0
 632              		@ link register save eliminated.
ARM GAS  C:\cygwin\tmp\cc9XShlh.s 			page 20


 633 0000 7047     		bx	lr	@
 634              		.cfi_endproc
 635              	.LFE130:
 636              		.size	HAL_MspDeInit, .-HAL_MspDeInit
 637              		.text
 638              	.Letext0:
 639              		.file 2 "../STM32Cube_FW_F4_V1.4.0/Drivers/CMSIS/Device/ST/STM32F4xx/Include/stm32f407xx.h"
 640              		.file 3 "c:\\program files\\gnu tools arm embedded\\4.9 2014q4\\arm-none-eabi\\include\\machine\\_
 641              		.file 4 "c:\\program files\\gnu tools arm embedded\\4.9 2014q4\\arm-none-eabi\\include\\stdint.h"
 642              		.file 5 "../STM32Cube_FW_F4_V1.4.0/Drivers/STM32F4xx_HAL_Driver/Inc/stm32f4xx_hal_def.h"
 643              		.file 6 "../STM32Cube_FW_F4_V1.4.0/Drivers/STM32F4xx_HAL_Driver/Inc/stm32f4xx_hal_gpio.h"
 644              		.file 7 "../STM32Cube_FW_F4_V1.4.0/Drivers/STM32F4xx_HAL_Driver/Inc/stm32f4xx_hal_dma.h"
 645              		.file 8 "../STM32Cube_FW_F4_V1.4.0/Drivers/STM32F4xx_HAL_Driver/Inc/stm32f4xx_ll_fsmc.h"
 646              		.file 9 "../STM32Cube_FW_F4_V1.4.0/Drivers/STM32F4xx_HAL_Driver/Inc/stm32f4xx_hal_sram.h"
 647              		.file 10 "../STM32Cube_FW_F4_V1.4.0/Drivers/STM32F4xx_HAL_Driver/Inc/stm32f4xx_hal_i2c.h"
 648              		.file 11 "../STM32Cube_FW_F4_V1.4.0/Drivers/STM32F4xx_HAL_Driver/Inc/stm32f4xx_hal_uart.h"
 649              		.file 12 "../STM32Cube_FW_F4_V1.4.0/Drivers/STM32F4xx_HAL_Driver/Inc/stm32f4xx_hal_cortex.h"
 650              		.file 13 "../STM32Cube_FW_F4_V1.4.0/Drivers/CMSIS/Include/core_cm4.h"