ARM GAS  C:\cygwin\tmp\cclI5f77.s 			page 1


   1              		.syntax unified
   2              		.cpu cortex-m4
   3              		.fpu softvfp
   4              		.eabi_attribute 20, 1	@ Tag_ABI_FP_denormal
   5              		.eabi_attribute 21, 1	@ Tag_ABI_FP_exceptions
   6              		.eabi_attribute 23, 3	@ Tag_ABI_FP_number_model
   7              		.eabi_attribute 24, 1	@ Tag_ABI_align8_needed
   8              		.eabi_attribute 25, 1	@ Tag_ABI_align8_preserved
   9              		.eabi_attribute 26, 1	@ Tag_ABI_enum_size
  10              		.eabi_attribute 30, 4	@ Tag_ABI_optimization_goals
  11              		.eabi_attribute 34, 1	@ Tag_CPU_unaligned_access
  12              		.eabi_attribute 18, 4	@ Tag_ABI_PCS_wchar_t
  13              		.file	"stm32f4xx_rcc.c"
  14              	@ GNU C (GNU Tools for ARM Embedded Processors) version 4.9.3 20141119 (release) [ARM/embedded-4_9-
  15              	@	compiled by GNU C version 4.7.4, GMP version 4.3.2, MPFR version 2.4.2, MPC version 0.8.1
  16              	@ GGC heuristics: --param ggc-min-expand=100 --param ggc-min-heapsize=131072
  17              	@ options passed:  -I . -I Inc -I gui -I emWin -I emWin/config
  18              	@ -I ../STM32Cube_FW_F4_V1.4.0/Drivers/CMSIS/Include
  19              	@ -I ../STM32Cube_FW_F4_V1.4.0/Drivers/CMSIS/Device/ST/STM32F4xx/Include
  20              	@ -I ../STM32Cube_FW_F4_V1.4.0/Drivers/STM32F4xx_HAL_Driver/Inc
  21              	@ -I ../STM32Cube_FW_F4_V1.4.0/Drivers/CMSIS/Include
  22              	@ -I ../STM32Cube_FW_F4_V1.4.0/Middlewares/ST/STemWin/inc
  23              	@ -I .drivers/modbus -I ./drivers/display -imultilib armv7e-m
  24              	@ -iprefix c:\program files\gnu tools arm embedded\4.9 2014q4\bin\../lib/gcc/arm-none-eabi/4.9.3/
  25              	@ -isysroot c:\program files\gnu tools arm embedded\4.9 2014q4\bin\../arm-none-eabi
  26              	@ -MD out/stm32f4xx_rcc.d -MF out/stm32f4xx_rcc.d -MP
  27              	@ -MQ out/stm32f4xx_rcc.o -D__USES_INITFINI__ -D USE_HAL_DRIVER
  28              	@ -D STM32F4XX -D HSE_VALUE=8000000 -D __STARTUP_CLEAR_BSS -D STM32F407VG
  29              	@ -D USE_FULL_ASSERT -D __FPU_USED emWin/config/stm32f4xx_rcc.c
  30              	@ -mcpu=cortex-m4 -mthumb -auxbase-strip out/stm32f4xx_rcc.o -g -ggdb3 -Os
  31              	@ -Os -Wall -Wstrict-prototypes -Wextra -std=gnu90 -ffunction-sections
  32              	@ -fdata-sections -fverbose-asm
  33              	@ options enabled:  -faggressive-loop-optimizations -fauto-inc-dec
  34              	@ -fbranch-count-reg -fcaller-saves -fcombine-stack-adjustments -fcommon
  35              	@ -fcompare-elim -fcprop-registers -fcrossjumping -fcse-follow-jumps
  36              	@ -fdata-sections -fdefer-pop -fdelete-null-pointer-checks -fdevirtualize
  37              	@ -fdevirtualize-speculatively -fdwarf2-cfi-asm -fearly-inlining
  38              	@ -feliminate-unused-debug-types -fexpensive-optimizations
  39              	@ -fforward-propagate -ffunction-cse -ffunction-sections -fgcse -fgcse-lm
  40              	@ -fgnu-runtime -fgnu-unique -fguess-branch-probability
  41              	@ -fhoist-adjacent-loads -fident -fif-conversion -fif-conversion2
  42              	@ -findirect-inlining -finline -finline-atomics -finline-functions
  43              	@ -finline-functions-called-once -finline-small-functions -fipa-cp
  44              	@ -fipa-profile -fipa-pure-const -fipa-reference -fipa-sra
  45              	@ -fira-hoist-pressure -fira-share-save-slots -fira-share-spill-slots
  46              	@ -fisolate-erroneous-paths-dereference -fivopts -fkeep-static-consts
  47              	@ -fleading-underscore -fmath-errno -fmerge-constants -fmerge-debug-strings
  48              	@ -fomit-frame-pointer -foptimize-sibling-calls -fpartial-inlining
  49              	@ -fpeephole -fpeephole2 -fprefetch-loop-arrays -freg-struct-return
  50              	@ -freorder-blocks -freorder-functions -frerun-cse-after-loop
  51              	@ -fsched-critical-path-heuristic -fsched-dep-count-heuristic
  52              	@ -fsched-group-heuristic -fsched-interblock -fsched-last-insn-heuristic
  53              	@ -fsched-pressure -fsched-rank-heuristic -fsched-spec
  54              	@ -fsched-spec-insn-heuristic -fsched-stalled-insns-dep -fschedule-insns2
  55              	@ -fsection-anchors -fshow-column -fsigned-zeros -fsplit-ivs-in-unroller
  56              	@ -fsplit-wide-types -fstrict-aliasing -fstrict-overflow
  57              	@ -fstrict-volatile-bitfields -fsync-libcalls -fthread-jumps
ARM GAS  C:\cygwin\tmp\cclI5f77.s 			page 2


  58              	@ -ftoplevel-reorder -ftrapping-math -ftree-bit-ccp -ftree-builtin-call-dce
  59              	@ -ftree-ccp -ftree-ch -ftree-coalesce-vars -ftree-copy-prop
  60              	@ -ftree-copyrename -ftree-cselim -ftree-dce -ftree-dominator-opts
  61              	@ -ftree-dse -ftree-forwprop -ftree-fre -ftree-loop-if-convert
  62              	@ -ftree-loop-im -ftree-loop-ivcanon -ftree-loop-optimize
  63              	@ -ftree-parallelize-loops= -ftree-phiprop -ftree-pre -ftree-pta
  64              	@ -ftree-reassoc -ftree-scev-cprop -ftree-sink -ftree-slsr -ftree-sra
  65              	@ -ftree-switch-conversion -ftree-tail-merge -ftree-ter -ftree-vrp
  66              	@ -funit-at-a-time -fvar-tracking -fvar-tracking-assignments -fverbose-asm
  67              	@ -fzero-initialized-in-bss -mlittle-endian -mlra
  68              	@ -mpic-data-is-text-relative -msched-prolog -mthumb -munaligned-access
  69              	@ -mvectorize-with-neon-quad
  70              	
  71              		.text
  72              	.Ltext0:
  73              		.cfi_sections	.debug_frame
  74              		.section	.text.RCC_DeInit,"ax",%progbits
  75              		.align	1
  76              		.global	RCC_DeInit
  77              		.thumb
  78              		.thumb_func
  79              		.type	RCC_DeInit, %function
  80              	RCC_DeInit:
  81              	.LFB123:
  82              		.file 1 "emWin/config/stm32f4xx_rcc.c"
   1:emWin/config/stm32f4xx_rcc.c **** /**
   2:emWin/config/stm32f4xx_rcc.c ****   ******************************************************************************
   3:emWin/config/stm32f4xx_rcc.c ****   * @file    stm32f4xx_rcc.c
   4:emWin/config/stm32f4xx_rcc.c ****   * @author  MCD Application Team
   5:emWin/config/stm32f4xx_rcc.c ****   * @version V1.0.0
   6:emWin/config/stm32f4xx_rcc.c ****   * @date    30-September-2011
   7:emWin/config/stm32f4xx_rcc.c ****   * @brief   This file provides firmware functions to manage the following 
   8:emWin/config/stm32f4xx_rcc.c ****   *          functionalities of the Reset and clock control (RCC) peripheral:
   9:emWin/config/stm32f4xx_rcc.c ****   *           - Internal/external clocks, PLL, CSS and MCO configuration
  10:emWin/config/stm32f4xx_rcc.c ****   *           - System, AHB and APB busses clocks configuration
  11:emWin/config/stm32f4xx_rcc.c ****   *           - Peripheral clocks configuration
  12:emWin/config/stm32f4xx_rcc.c ****   *           - Interrupts and flags management
  13:emWin/config/stm32f4xx_rcc.c ****   *
  14:emWin/config/stm32f4xx_rcc.c ****   *  @verbatim
  15:emWin/config/stm32f4xx_rcc.c ****   *               
  16:emWin/config/stm32f4xx_rcc.c ****   *          ===================================================================
  17:emWin/config/stm32f4xx_rcc.c ****   *                               RCC specific features
  18:emWin/config/stm32f4xx_rcc.c ****   *          ===================================================================
  19:emWin/config/stm32f4xx_rcc.c ****   *    
  20:emWin/config/stm32f4xx_rcc.c ****   *          After reset the device is running from Internal High Speed oscillator 
  21:emWin/config/stm32f4xx_rcc.c ****   *          (HSI 16MHz) with Flash 0 wait state, Flash prefetch buffer, D-Cache 
  22:emWin/config/stm32f4xx_rcc.c ****   *          and I-Cache are disabled, and all peripherals are off except internal
  23:emWin/config/stm32f4xx_rcc.c ****   *          SRAM, Flash and JTAG.
  24:emWin/config/stm32f4xx_rcc.c ****   *           - There is no prescaler on High speed (AHB) and Low speed (APB) busses;
  25:emWin/config/stm32f4xx_rcc.c ****   *             all peripherals mapped on these busses are running at HSI speed.
  26:emWin/config/stm32f4xx_rcc.c ****   *       	  - The clock for all peripherals is switched off, except the SRAM and FLASH.
  27:emWin/config/stm32f4xx_rcc.c ****   *           - All GPIOs are in input floating state, except the JTAG pins which
  28:emWin/config/stm32f4xx_rcc.c ****   *             are assigned to be used for debug purpose.
  29:emWin/config/stm32f4xx_rcc.c ****   *        
  30:emWin/config/stm32f4xx_rcc.c ****   *          Once the device started from reset, the user application has to:        
  31:emWin/config/stm32f4xx_rcc.c ****   *           - Configure the clock source to be used to drive the System clock
  32:emWin/config/stm32f4xx_rcc.c ****   *             (if the application needs higher frequency/performance)
ARM GAS  C:\cygwin\tmp\cclI5f77.s 			page 3


  33:emWin/config/stm32f4xx_rcc.c ****   *           - Configure the System clock frequency and Flash settings  
  34:emWin/config/stm32f4xx_rcc.c ****   *           - Configure the AHB and APB busses prescalers
  35:emWin/config/stm32f4xx_rcc.c ****   *           - Enable the clock for the peripheral(s) to be used
  36:emWin/config/stm32f4xx_rcc.c ****   *           - Configure the clock source(s) for peripherals which clocks are not
  37:emWin/config/stm32f4xx_rcc.c ****   *             derived from the System clock (I2S, RTC, ADC, USB OTG FS/SDIO/RNG)      
  38:emWin/config/stm32f4xx_rcc.c ****   *                        
  39:emWin/config/stm32f4xx_rcc.c ****   *  @endverbatim
  40:emWin/config/stm32f4xx_rcc.c ****   *    
  41:emWin/config/stm32f4xx_rcc.c ****   ******************************************************************************
  42:emWin/config/stm32f4xx_rcc.c ****   * @attention
  43:emWin/config/stm32f4xx_rcc.c ****   *
  44:emWin/config/stm32f4xx_rcc.c ****   * THE PRESENT FIRMWARE WHICH IS FOR GUIDANCE ONLY AIMS AT PROVIDING CUSTOMERS
  45:emWin/config/stm32f4xx_rcc.c ****   * WITH CODING INFORMATION REGARDING THEIR PRODUCTS IN ORDER FOR THEM TO SAVE
  46:emWin/config/stm32f4xx_rcc.c ****   * TIME. AS A RESULT, STMICROELECTRONICS SHALL NOT BE HELD LIABLE FOR ANY
  47:emWin/config/stm32f4xx_rcc.c ****   * DIRECT, INDIRECT OR CONSEQUENTIAL DAMAGES WITH RESPECT TO ANY CLAIMS ARISING
  48:emWin/config/stm32f4xx_rcc.c ****   * FROM THE CONTENT OF SUCH FIRMWARE AND/OR THE USE MADE BY CUSTOMERS OF THE
  49:emWin/config/stm32f4xx_rcc.c ****   * CODING INFORMATION CONTAINED HEREIN IN CONNECTION WITH THEIR PRODUCTS.
  50:emWin/config/stm32f4xx_rcc.c ****   *
  51:emWin/config/stm32f4xx_rcc.c ****   * <h2><center>&copy; COPYRIGHT 2011 STMicroelectronics</center></h2>
  52:emWin/config/stm32f4xx_rcc.c ****   ******************************************************************************
  53:emWin/config/stm32f4xx_rcc.c ****   */
  54:emWin/config/stm32f4xx_rcc.c **** 
  55:emWin/config/stm32f4xx_rcc.c **** /* Includes ------------------------------------------------------------------*/
  56:emWin/config/stm32f4xx_rcc.c **** #include "stm32f4xx_rcc.h"
  57:emWin/config/stm32f4xx_rcc.c **** 
  58:emWin/config/stm32f4xx_rcc.c **** /** @addtogroup STM32F4xx_StdPeriph_Driver
  59:emWin/config/stm32f4xx_rcc.c ****   * @{
  60:emWin/config/stm32f4xx_rcc.c ****   */
  61:emWin/config/stm32f4xx_rcc.c **** 
  62:emWin/config/stm32f4xx_rcc.c **** /** @defgroup RCC 
  63:emWin/config/stm32f4xx_rcc.c ****   * @brief RCC driver modules
  64:emWin/config/stm32f4xx_rcc.c ****   * @{
  65:emWin/config/stm32f4xx_rcc.c ****   */ 
  66:emWin/config/stm32f4xx_rcc.c **** 
  67:emWin/config/stm32f4xx_rcc.c **** /* Private typedef -----------------------------------------------------------*/
  68:emWin/config/stm32f4xx_rcc.c **** /* Private define ------------------------------------------------------------*/
  69:emWin/config/stm32f4xx_rcc.c **** /* ------------ RCC registers bit address in the alias region ----------- */
  70:emWin/config/stm32f4xx_rcc.c **** #define RCC_OFFSET                (RCC_BASE - PERIPH_BASE)
  71:emWin/config/stm32f4xx_rcc.c **** /* --- CR Register ---*/
  72:emWin/config/stm32f4xx_rcc.c **** /* Alias word address of HSION bit */
  73:emWin/config/stm32f4xx_rcc.c **** #define CR_OFFSET                 (RCC_OFFSET + 0x00)
  74:emWin/config/stm32f4xx_rcc.c **** #define HSION_BitNumber           0x00
  75:emWin/config/stm32f4xx_rcc.c **** #define CR_HSION_BB               (PERIPH_BB_BASE + (CR_OFFSET * 32) + (HSION_BitNumber * 4))
  76:emWin/config/stm32f4xx_rcc.c **** /* Alias word address of CSSON bit */
  77:emWin/config/stm32f4xx_rcc.c **** #define CSSON_BitNumber           0x13
  78:emWin/config/stm32f4xx_rcc.c **** #define CR_CSSON_BB               (PERIPH_BB_BASE + (CR_OFFSET * 32) + (CSSON_BitNumber * 4))
  79:emWin/config/stm32f4xx_rcc.c **** /* Alias word address of PLLON bit */
  80:emWin/config/stm32f4xx_rcc.c **** #define PLLON_BitNumber           0x18
  81:emWin/config/stm32f4xx_rcc.c **** #define CR_PLLON_BB               (PERIPH_BB_BASE + (CR_OFFSET * 32) + (PLLON_BitNumber * 4))
  82:emWin/config/stm32f4xx_rcc.c **** /* Alias word address of PLLI2SON bit */
  83:emWin/config/stm32f4xx_rcc.c **** #define PLLI2SON_BitNumber        0x1A
  84:emWin/config/stm32f4xx_rcc.c **** #define CR_PLLI2SON_BB            (PERIPH_BB_BASE + (CR_OFFSET * 32) + (PLLI2SON_BitNumber * 4))
  85:emWin/config/stm32f4xx_rcc.c **** 
  86:emWin/config/stm32f4xx_rcc.c **** /* --- CFGR Register ---*/
  87:emWin/config/stm32f4xx_rcc.c **** /* Alias word address of I2SSRC bit */
  88:emWin/config/stm32f4xx_rcc.c **** #define CFGR_OFFSET               (RCC_OFFSET + 0x08)
  89:emWin/config/stm32f4xx_rcc.c **** #define I2SSRC_BitNumber          0x17
ARM GAS  C:\cygwin\tmp\cclI5f77.s 			page 4


  90:emWin/config/stm32f4xx_rcc.c **** #define CFGR_I2SSRC_BB            (PERIPH_BB_BASE + (CFGR_OFFSET * 32) + (I2SSRC_BitNumber * 4))
  91:emWin/config/stm32f4xx_rcc.c **** 
  92:emWin/config/stm32f4xx_rcc.c **** /* --- BDCR Register ---*/
  93:emWin/config/stm32f4xx_rcc.c **** /* Alias word address of RTCEN bit */
  94:emWin/config/stm32f4xx_rcc.c **** #define BDCR_OFFSET               (RCC_OFFSET + 0x70)
  95:emWin/config/stm32f4xx_rcc.c **** #define RTCEN_BitNumber           0x0F
  96:emWin/config/stm32f4xx_rcc.c **** #define BDCR_RTCEN_BB             (PERIPH_BB_BASE + (BDCR_OFFSET * 32) + (RTCEN_BitNumber * 4))
  97:emWin/config/stm32f4xx_rcc.c **** /* Alias word address of BDRST bit */
  98:emWin/config/stm32f4xx_rcc.c **** #define BDRST_BitNumber           0x10
  99:emWin/config/stm32f4xx_rcc.c **** #define BDCR_BDRST_BB             (PERIPH_BB_BASE + (BDCR_OFFSET * 32) + (BDRST_BitNumber * 4))
 100:emWin/config/stm32f4xx_rcc.c **** /* --- CSR Register ---*/
 101:emWin/config/stm32f4xx_rcc.c **** /* Alias word address of LSION bit */
 102:emWin/config/stm32f4xx_rcc.c **** #define CSR_OFFSET                (RCC_OFFSET + 0x74)
 103:emWin/config/stm32f4xx_rcc.c **** #define LSION_BitNumber           0x00
 104:emWin/config/stm32f4xx_rcc.c **** #define CSR_LSION_BB              (PERIPH_BB_BASE + (CSR_OFFSET * 32) + (LSION_BitNumber * 4))
 105:emWin/config/stm32f4xx_rcc.c **** /* ---------------------- RCC registers bit mask ------------------------ */
 106:emWin/config/stm32f4xx_rcc.c **** /* CFGR register bit mask */
 107:emWin/config/stm32f4xx_rcc.c **** #define CFGR_MCO2_RESET_MASK      ((uint32_t)0x07FFFFFF)
 108:emWin/config/stm32f4xx_rcc.c **** #define CFGR_MCO1_RESET_MASK      ((uint32_t)0xF89FFFFF)
 109:emWin/config/stm32f4xx_rcc.c **** 
 110:emWin/config/stm32f4xx_rcc.c **** /* RCC Flag Mask */
 111:emWin/config/stm32f4xx_rcc.c **** #define FLAG_MASK                 ((uint8_t)0x1F)
 112:emWin/config/stm32f4xx_rcc.c **** 
 113:emWin/config/stm32f4xx_rcc.c **** /* CR register byte 3 (Bits[23:16]) base address */
 114:emWin/config/stm32f4xx_rcc.c **** #define CR_BYTE3_ADDRESS          ((uint32_t)0x40023802)
 115:emWin/config/stm32f4xx_rcc.c **** 
 116:emWin/config/stm32f4xx_rcc.c **** /* CIR register byte 2 (Bits[15:8]) base address */
 117:emWin/config/stm32f4xx_rcc.c **** #define CIR_BYTE2_ADDRESS         ((uint32_t)(RCC_BASE + 0x0C + 0x01))
 118:emWin/config/stm32f4xx_rcc.c **** 
 119:emWin/config/stm32f4xx_rcc.c **** /* CIR register byte 3 (Bits[23:16]) base address */
 120:emWin/config/stm32f4xx_rcc.c **** #define CIR_BYTE3_ADDRESS         ((uint32_t)(RCC_BASE + 0x0C + 0x02))
 121:emWin/config/stm32f4xx_rcc.c **** 
 122:emWin/config/stm32f4xx_rcc.c **** /* BDCR register base address */
 123:emWin/config/stm32f4xx_rcc.c **** #define BDCR_ADDRESS              (PERIPH_BASE + BDCR_OFFSET)
 124:emWin/config/stm32f4xx_rcc.c **** 
 125:emWin/config/stm32f4xx_rcc.c **** /* Private macro -------------------------------------------------------------*/
 126:emWin/config/stm32f4xx_rcc.c **** /* Private variables ---------------------------------------------------------*/
 127:emWin/config/stm32f4xx_rcc.c **** static __I uint8_t APBAHBPrescTable[16] = {0, 0, 0, 0, 1, 2, 3, 4, 1, 2, 3, 4, 6, 7, 8, 9};
 128:emWin/config/stm32f4xx_rcc.c **** 
 129:emWin/config/stm32f4xx_rcc.c **** /* Private function prototypes -----------------------------------------------*/
 130:emWin/config/stm32f4xx_rcc.c **** /* Private functions ---------------------------------------------------------*/
 131:emWin/config/stm32f4xx_rcc.c **** 
 132:emWin/config/stm32f4xx_rcc.c **** /** @defgroup RCC_Private_Functions
 133:emWin/config/stm32f4xx_rcc.c ****   * @{
 134:emWin/config/stm32f4xx_rcc.c ****   */ 
 135:emWin/config/stm32f4xx_rcc.c **** 
 136:emWin/config/stm32f4xx_rcc.c **** /** @defgroup RCC_Group1 Internal and external clocks, PLL, CSS and MCO configuration functions
 137:emWin/config/stm32f4xx_rcc.c ****  *  @brief   Internal and external clocks, PLL, CSS and MCO configuration functions 
 138:emWin/config/stm32f4xx_rcc.c ****  *
 139:emWin/config/stm32f4xx_rcc.c **** @verbatim   
 140:emWin/config/stm32f4xx_rcc.c ****  ===============================================================================
 141:emWin/config/stm32f4xx_rcc.c ****       Internal/external clocks, PLL, CSS and MCO configuration functions
 142:emWin/config/stm32f4xx_rcc.c ****  ===============================================================================  
 143:emWin/config/stm32f4xx_rcc.c **** 
 144:emWin/config/stm32f4xx_rcc.c ****   This section provide functions allowing to configure the internal/external clocks,
 145:emWin/config/stm32f4xx_rcc.c ****   PLLs, CSS and MCO pins.
 146:emWin/config/stm32f4xx_rcc.c ****   
ARM GAS  C:\cygwin\tmp\cclI5f77.s 			page 5


 147:emWin/config/stm32f4xx_rcc.c ****   1. HSI (high-speed internal), 16 MHz factory-trimmed RC used directly or through
 148:emWin/config/stm32f4xx_rcc.c ****      the PLL as System clock source.
 149:emWin/config/stm32f4xx_rcc.c **** 
 150:emWin/config/stm32f4xx_rcc.c ****   2. LSI (low-speed internal), 32 KHz low consumption RC used as IWDG and/or RTC
 151:emWin/config/stm32f4xx_rcc.c ****      clock source.
 152:emWin/config/stm32f4xx_rcc.c **** 
 153:emWin/config/stm32f4xx_rcc.c ****   3. HSE (high-speed external), 4 to 26 MHz crystal oscillator used directly or
 154:emWin/config/stm32f4xx_rcc.c ****      through the PLL as System clock source. Can be used also as RTC clock source.
 155:emWin/config/stm32f4xx_rcc.c **** 
 156:emWin/config/stm32f4xx_rcc.c ****   4. LSE (low-speed external), 32 KHz oscillator used as RTC clock source.   
 157:emWin/config/stm32f4xx_rcc.c **** 
 158:emWin/config/stm32f4xx_rcc.c ****   5. PLL (clocked by HSI or HSE), featuring two different output clocks:
 159:emWin/config/stm32f4xx_rcc.c ****       - The first output is used to generate the high speed system clock (up to 168 MHz)
 160:emWin/config/stm32f4xx_rcc.c ****       - The second output is used to generate the clock for the USB OTG FS (48 MHz),
 161:emWin/config/stm32f4xx_rcc.c ****         the random analog generator (<=48 MHz) and the SDIO (<= 48 MHz).
 162:emWin/config/stm32f4xx_rcc.c **** 
 163:emWin/config/stm32f4xx_rcc.c ****   6. PLLI2S (clocked by HSI or HSE), used to generate an accurate clock to achieve 
 164:emWin/config/stm32f4xx_rcc.c ****      high-quality audio performance on the I2S interface.
 165:emWin/config/stm32f4xx_rcc.c ****   
 166:emWin/config/stm32f4xx_rcc.c ****   7. CSS (Clock security system), once enable and if a HSE clock failure occurs 
 167:emWin/config/stm32f4xx_rcc.c ****      (HSE used directly or through PLL as System clock source), the System clock
 168:emWin/config/stm32f4xx_rcc.c ****      is automatically switched to HSI and an interrupt is generated if enabled. 
 169:emWin/config/stm32f4xx_rcc.c ****      The interrupt is linked to the Cortex-M4 NMI (Non-Maskable Interrupt) 
 170:emWin/config/stm32f4xx_rcc.c ****      exception vector.   
 171:emWin/config/stm32f4xx_rcc.c **** 
 172:emWin/config/stm32f4xx_rcc.c ****   8. MCO1 (microcontroller clock output), used to output HSI, LSE, HSE or PLL
 173:emWin/config/stm32f4xx_rcc.c ****      clock (through a configurable prescaler) on PA8 pin.
 174:emWin/config/stm32f4xx_rcc.c **** 
 175:emWin/config/stm32f4xx_rcc.c ****   9. MCO2 (microcontroller clock output), used to output HSE, PLL, SYSCLK or PLLI2S
 176:emWin/config/stm32f4xx_rcc.c ****      clock (through a configurable prescaler) on PC9 pin.
 177:emWin/config/stm32f4xx_rcc.c **** 
 178:emWin/config/stm32f4xx_rcc.c **** @endverbatim
 179:emWin/config/stm32f4xx_rcc.c ****   * @{
 180:emWin/config/stm32f4xx_rcc.c ****   */
 181:emWin/config/stm32f4xx_rcc.c **** 
 182:emWin/config/stm32f4xx_rcc.c **** /**
 183:emWin/config/stm32f4xx_rcc.c ****   * @brief  Resets the RCC clock configuration to the default reset state.
 184:emWin/config/stm32f4xx_rcc.c ****   * @note   The default reset state of the clock configuration is given below:
 185:emWin/config/stm32f4xx_rcc.c ****   *            - HSI ON and used as system clock source
 186:emWin/config/stm32f4xx_rcc.c ****   *            - HSE, PLL and PLLI2S OFF
 187:emWin/config/stm32f4xx_rcc.c ****   *            - AHB, APB1 and APB2 prescaler set to 1.
 188:emWin/config/stm32f4xx_rcc.c ****   *            - CSS, MCO1 and MCO2 OFF
 189:emWin/config/stm32f4xx_rcc.c ****   *            - All interrupts disabled
 190:emWin/config/stm32f4xx_rcc.c ****   * @note   This function doesn't modify the configuration of the
 191:emWin/config/stm32f4xx_rcc.c ****   *            - Peripheral clocks
 192:emWin/config/stm32f4xx_rcc.c ****   *            - LSI, LSE and RTC clocks 
 193:emWin/config/stm32f4xx_rcc.c ****   * @param  None
 194:emWin/config/stm32f4xx_rcc.c ****   * @retval None
 195:emWin/config/stm32f4xx_rcc.c ****   */
 196:emWin/config/stm32f4xx_rcc.c **** void RCC_DeInit(void)
 197:emWin/config/stm32f4xx_rcc.c **** {
  83              		.loc 1 197 0
  84              		.cfi_startproc
  85              		@ args = 0, pretend = 0, frame = 0
  86              		@ frame_needed = 0, uses_anonymous_args = 0
  87              		@ link register save eliminated.
 198:emWin/config/stm32f4xx_rcc.c ****   /* Set HSION bit */
ARM GAS  C:\cygwin\tmp\cclI5f77.s 			page 6


 199:emWin/config/stm32f4xx_rcc.c ****   RCC->CR |= (uint32_t)0x00000001;
  88              		.loc 1 199 0
  89 0000 0A4B     		ldr	r3, .L2	@ tmp116,
  90 0002 1A68     		ldr	r2, [r3]	@ D.8367, MEM[(struct RCC_TypeDef *)1073887232B].CR
 200:emWin/config/stm32f4xx_rcc.c **** 
 201:emWin/config/stm32f4xx_rcc.c ****   /* Reset CFGR register */
 202:emWin/config/stm32f4xx_rcc.c ****   RCC->CFGR = 0x00000000;
  91              		.loc 1 202 0
  92 0004 0021     		movs	r1, #0	@ tmp119,
 199:emWin/config/stm32f4xx_rcc.c **** 
  93              		.loc 1 199 0
  94 0006 42F00102 		orr	r2, r2, #1	@ D.8367, D.8367,
  95 000a 1A60     		str	r2, [r3]	@ D.8367, MEM[(struct RCC_TypeDef *)1073887232B].CR
  96              		.loc 1 202 0
  97 000c 9960     		str	r1, [r3, #8]	@ tmp119, MEM[(struct RCC_TypeDef *)1073887232B].CFGR
 203:emWin/config/stm32f4xx_rcc.c **** 
 204:emWin/config/stm32f4xx_rcc.c ****   /* Reset HSEON, CSSON and PLLON bits */
 205:emWin/config/stm32f4xx_rcc.c ****   RCC->CR &= (uint32_t)0xFEF6FFFF;
  98              		.loc 1 205 0
  99 000e 1A68     		ldr	r2, [r3]	@ D.8367, MEM[(struct RCC_TypeDef *)1073887232B].CR
 100 0010 22F08472 		bic	r2, r2, #17301504	@ D.8367, D.8367,
 101 0014 22F48032 		bic	r2, r2, #65536	@ D.8367, D.8367,
 102 0018 1A60     		str	r2, [r3]	@ D.8367, MEM[(struct RCC_TypeDef *)1073887232B].CR
 206:emWin/config/stm32f4xx_rcc.c **** 
 207:emWin/config/stm32f4xx_rcc.c ****   /* Reset PLLCFGR register */
 208:emWin/config/stm32f4xx_rcc.c ****   RCC->PLLCFGR = 0x24003010;
 103              		.loc 1 208 0
 104 001a 054A     		ldr	r2, .L2+4	@ tmp124,
 105 001c 5A60     		str	r2, [r3, #4]	@ tmp124, MEM[(struct RCC_TypeDef *)1073887232B].PLLCFGR
 209:emWin/config/stm32f4xx_rcc.c **** 
 210:emWin/config/stm32f4xx_rcc.c ****   /* Reset HSEBYP bit */
 211:emWin/config/stm32f4xx_rcc.c ****   RCC->CR &= (uint32_t)0xFFFBFFFF;
 106              		.loc 1 211 0
 107 001e 1A68     		ldr	r2, [r3]	@ D.8367, MEM[(struct RCC_TypeDef *)1073887232B].CR
 108 0020 22F48022 		bic	r2, r2, #262144	@ D.8367, D.8367,
 109 0024 1A60     		str	r2, [r3]	@ D.8367, MEM[(struct RCC_TypeDef *)1073887232B].CR
 212:emWin/config/stm32f4xx_rcc.c **** 
 213:emWin/config/stm32f4xx_rcc.c ****   /* Disable all interrupts */
 214:emWin/config/stm32f4xx_rcc.c ****   RCC->CIR = 0x00000000;
 110              		.loc 1 214 0
 111 0026 D960     		str	r1, [r3, #12]	@ tmp119, MEM[(struct RCC_TypeDef *)1073887232B].CIR
 112 0028 7047     		bx	lr	@
 113              	.L3:
 114 002a 00BF     		.align	2
 115              	.L2:
 116 002c 00380240 		.word	1073887232
 117 0030 10300024 		.word	603992080
 118              		.cfi_endproc
 119              	.LFE123:
 120              		.size	RCC_DeInit, .-RCC_DeInit
 121              		.section	.text.RCC_HSEConfig,"ax",%progbits
 122              		.align	1
 123              		.global	RCC_HSEConfig
 124              		.thumb
 125              		.thumb_func
 126              		.type	RCC_HSEConfig, %function
 127              	RCC_HSEConfig:
ARM GAS  C:\cygwin\tmp\cclI5f77.s 			page 7


 128              	.LFB124:
 215:emWin/config/stm32f4xx_rcc.c **** }
 216:emWin/config/stm32f4xx_rcc.c **** 
 217:emWin/config/stm32f4xx_rcc.c **** /**
 218:emWin/config/stm32f4xx_rcc.c ****   * @brief  Configures the External High Speed oscillator (HSE).
 219:emWin/config/stm32f4xx_rcc.c ****   * @note   After enabling the HSE (RCC_HSE_ON or RCC_HSE_Bypass), the application
 220:emWin/config/stm32f4xx_rcc.c ****   *         software should wait on HSERDY flag to be set indicating that HSE clock
 221:emWin/config/stm32f4xx_rcc.c ****   *         is stable and can be used to clock the PLL and/or system clock.
 222:emWin/config/stm32f4xx_rcc.c ****   * @note   HSE state can not be changed if it is used directly or through the
 223:emWin/config/stm32f4xx_rcc.c ****   *         PLL as system clock. In this case, you have to select another source
 224:emWin/config/stm32f4xx_rcc.c ****   *         of the system clock then change the HSE state (ex. disable it).
 225:emWin/config/stm32f4xx_rcc.c ****   * @note   The HSE is stopped by hardware when entering STOP and STANDBY modes.  
 226:emWin/config/stm32f4xx_rcc.c ****   * @note   This function reset the CSSON bit, so if the Clock security system(CSS)
 227:emWin/config/stm32f4xx_rcc.c ****   *         was previously enabled you have to enable it again after calling this
 228:emWin/config/stm32f4xx_rcc.c ****   *         function.    
 229:emWin/config/stm32f4xx_rcc.c ****   * @param  RCC_HSE: specifies the new state of the HSE.
 230:emWin/config/stm32f4xx_rcc.c ****   *          This parameter can be one of the following values:
 231:emWin/config/stm32f4xx_rcc.c ****   *            @arg RCC_HSE_OFF: turn OFF the HSE oscillator, HSERDY flag goes low after
 232:emWin/config/stm32f4xx_rcc.c ****   *                              6 HSE oscillator clock cycles.
 233:emWin/config/stm32f4xx_rcc.c ****   *            @arg RCC_HSE_ON: turn ON the HSE oscillator
 234:emWin/config/stm32f4xx_rcc.c ****   *            @arg RCC_HSE_Bypass: HSE oscillator bypassed with external clock
 235:emWin/config/stm32f4xx_rcc.c ****   * @retval None
 236:emWin/config/stm32f4xx_rcc.c ****   */
 237:emWin/config/stm32f4xx_rcc.c **** void RCC_HSEConfig(uint8_t RCC_HSE)
 238:emWin/config/stm32f4xx_rcc.c **** {
 129              		.loc 1 238 0
 130              		.cfi_startproc
 131              		@ args = 0, pretend = 0, frame = 0
 132              		@ frame_needed = 0, uses_anonymous_args = 0
 133              	.LVL0:
 239:emWin/config/stm32f4xx_rcc.c ****   /* Check the parameters */
 240:emWin/config/stm32f4xx_rcc.c ****   assert_param(IS_RCC_HSE(RCC_HSE));
 134              		.loc 1 240 0
 135 0000 0128     		cmp	r0, #1	@ RCC_HSE,
 238:emWin/config/stm32f4xx_rcc.c ****   /* Check the parameters */
 136              		.loc 1 238 0
 137 0002 10B5     		push	{r4, lr}	@
 138              		.cfi_def_cfa_offset 8
 139              		.cfi_offset 4, -8
 140              		.cfi_offset 14, -4
 238:emWin/config/stm32f4xx_rcc.c ****   /* Check the parameters */
 141              		.loc 1 238 0
 142 0004 0446     		mov	r4, r0	@ RCC_HSE, RCC_HSE
 143              		.loc 1 240 0
 144 0006 05D9     		bls	.L5	@,
 145              		.loc 1 240 0 is_stmt 0 discriminator 1
 146 0008 0528     		cmp	r0, #5	@ RCC_HSE,
 147 000a 03D0     		beq	.L5	@,
 148              		.loc 1 240 0 discriminator 2
 149 000c 0448     		ldr	r0, .L10	@,
 150              	.LVL1:
 151 000e F021     		movs	r1, #240	@,
 152 0010 FFF7FEFF 		bl	assert_failed	@
 153              	.LVL2:
 154              	.L5:
 241:emWin/config/stm32f4xx_rcc.c **** 
 242:emWin/config/stm32f4xx_rcc.c ****   /* Reset HSEON and HSEBYP bits before configuring the HSE ------------------*/
ARM GAS  C:\cygwin\tmp\cclI5f77.s 			page 8


 243:emWin/config/stm32f4xx_rcc.c ****   *(__IO uint8_t *) CR_BYTE3_ADDRESS = RCC_HSE_OFF;
 155              		.loc 1 243 0 is_stmt 1
 156 0014 034B     		ldr	r3, .L10+4	@ tmp112,
 157 0016 0022     		movs	r2, #0	@ tmp113,
 158 0018 1A70     		strb	r2, [r3]	@ tmp113, MEM[(volatile uint8_t *)1073887234B]
 244:emWin/config/stm32f4xx_rcc.c **** 
 245:emWin/config/stm32f4xx_rcc.c ****   /* Set the new HSE configuration -------------------------------------------*/
 246:emWin/config/stm32f4xx_rcc.c ****   *(__IO uint8_t *) CR_BYTE3_ADDRESS = RCC_HSE;
 159              		.loc 1 246 0
 160 001a 1C70     		strb	r4, [r3]	@ RCC_HSE, MEM[(volatile uint8_t *)1073887234B]
 161 001c 10BD     		pop	{r4, pc}	@
 162              	.L11:
 163 001e 00BF     		.align	2
 164              	.L10:
 165 0020 00000000 		.word	.LC0
 166 0024 02380240 		.word	1073887234
 167              		.cfi_endproc
 168              	.LFE124:
 169              		.size	RCC_HSEConfig, .-RCC_HSEConfig
 170              		.section	.text.RCC_AdjustHSICalibrationValue,"ax",%progbits
 171              		.align	1
 172              		.global	RCC_AdjustHSICalibrationValue
 173              		.thumb
 174              		.thumb_func
 175              		.type	RCC_AdjustHSICalibrationValue, %function
 176              	RCC_AdjustHSICalibrationValue:
 177              	.LFB126:
 247:emWin/config/stm32f4xx_rcc.c **** }
 248:emWin/config/stm32f4xx_rcc.c **** 
 249:emWin/config/stm32f4xx_rcc.c **** /**
 250:emWin/config/stm32f4xx_rcc.c ****   * @brief  Waits for HSE start-up.
 251:emWin/config/stm32f4xx_rcc.c ****   * @note   This functions waits on HSERDY flag to be set and return SUCCESS if 
 252:emWin/config/stm32f4xx_rcc.c ****   *         this flag is set, otherwise returns ERROR if the timeout is reached 
 253:emWin/config/stm32f4xx_rcc.c ****   *         and this flag is not set. The timeout value is defined by the constant
 254:emWin/config/stm32f4xx_rcc.c ****   *         HSE_STARTUP_TIMEOUT in stm32f4xx.h file. You can tailor it depending
 255:emWin/config/stm32f4xx_rcc.c ****   *         on the HSE crystal used in your application. 
 256:emWin/config/stm32f4xx_rcc.c ****   * @param  None
 257:emWin/config/stm32f4xx_rcc.c ****   * @retval An ErrorStatus enumeration value:
 258:emWin/config/stm32f4xx_rcc.c ****   *          - SUCCESS: HSE oscillator is stable and ready to use
 259:emWin/config/stm32f4xx_rcc.c ****   *          - ERROR: HSE oscillator not yet ready
 260:emWin/config/stm32f4xx_rcc.c ****   */
 261:emWin/config/stm32f4xx_rcc.c **** ErrorStatus RCC_WaitForHSEStartUp(void)
 262:emWin/config/stm32f4xx_rcc.c **** {
 263:emWin/config/stm32f4xx_rcc.c ****   __IO uint32_t startupcounter = 0;
 264:emWin/config/stm32f4xx_rcc.c ****   ErrorStatus status = ERROR;
 265:emWin/config/stm32f4xx_rcc.c ****   FlagStatus hsestatus = RESET;
 266:emWin/config/stm32f4xx_rcc.c ****   /* Wait till HSE is ready and if Time out is reached exit */
 267:emWin/config/stm32f4xx_rcc.c ****   do
 268:emWin/config/stm32f4xx_rcc.c ****   {
 269:emWin/config/stm32f4xx_rcc.c ****     hsestatus = RCC_GetFlagStatus(RCC_FLAG_HSERDY);
 270:emWin/config/stm32f4xx_rcc.c ****     startupcounter++;
 271:emWin/config/stm32f4xx_rcc.c ****   } while((startupcounter != HSE_STARTUP_TIMEOUT) && (hsestatus == RESET));
 272:emWin/config/stm32f4xx_rcc.c **** 
 273:emWin/config/stm32f4xx_rcc.c ****   if (RCC_GetFlagStatus(RCC_FLAG_HSERDY) != RESET)
 274:emWin/config/stm32f4xx_rcc.c ****   {
 275:emWin/config/stm32f4xx_rcc.c ****     status = SUCCESS;
 276:emWin/config/stm32f4xx_rcc.c ****   }
ARM GAS  C:\cygwin\tmp\cclI5f77.s 			page 9


 277:emWin/config/stm32f4xx_rcc.c ****   else
 278:emWin/config/stm32f4xx_rcc.c ****   {
 279:emWin/config/stm32f4xx_rcc.c ****     status = ERROR;
 280:emWin/config/stm32f4xx_rcc.c ****   }
 281:emWin/config/stm32f4xx_rcc.c ****   return (status);
 282:emWin/config/stm32f4xx_rcc.c **** }
 283:emWin/config/stm32f4xx_rcc.c **** 
 284:emWin/config/stm32f4xx_rcc.c **** /**
 285:emWin/config/stm32f4xx_rcc.c ****   * @brief  Adjusts the Internal High Speed oscillator (HSI) calibration value.
 286:emWin/config/stm32f4xx_rcc.c ****   * @note   The calibration is used to compensate for the variations in voltage
 287:emWin/config/stm32f4xx_rcc.c ****   *         and temperature that influence the frequency of the internal HSI RC.
 288:emWin/config/stm32f4xx_rcc.c ****   * @param  HSICalibrationValue: specifies the calibration trimming value.
 289:emWin/config/stm32f4xx_rcc.c ****   *         This parameter must be a number between 0 and 0x1F.
 290:emWin/config/stm32f4xx_rcc.c ****   * @retval None
 291:emWin/config/stm32f4xx_rcc.c ****   */
 292:emWin/config/stm32f4xx_rcc.c **** void RCC_AdjustHSICalibrationValue(uint8_t HSICalibrationValue)
 293:emWin/config/stm32f4xx_rcc.c **** {
 178              		.loc 1 293 0
 179              		.cfi_startproc
 180              		@ args = 0, pretend = 0, frame = 0
 181              		@ frame_needed = 0, uses_anonymous_args = 0
 182              	.LVL3:
 294:emWin/config/stm32f4xx_rcc.c ****   uint32_t tmpreg = 0;
 295:emWin/config/stm32f4xx_rcc.c ****   /* Check the parameters */
 296:emWin/config/stm32f4xx_rcc.c ****   assert_param(IS_RCC_CALIBRATION_VALUE(HSICalibrationValue));
 183              		.loc 1 296 0
 184 0000 1F28     		cmp	r0, #31	@ HSICalibrationValue,
 293:emWin/config/stm32f4xx_rcc.c ****   uint32_t tmpreg = 0;
 185              		.loc 1 293 0
 186 0002 10B5     		push	{r4, lr}	@
 187              		.cfi_def_cfa_offset 8
 188              		.cfi_offset 4, -8
 189              		.cfi_offset 14, -4
 293:emWin/config/stm32f4xx_rcc.c ****   uint32_t tmpreg = 0;
 190              		.loc 1 293 0
 191 0004 0446     		mov	r4, r0	@ HSICalibrationValue, HSICalibrationValue
 192              		.loc 1 296 0
 193 0006 04D9     		bls	.L13	@,
 194              		.loc 1 296 0 is_stmt 0 discriminator 1
 195 0008 0648     		ldr	r0, .L14	@,
 196              	.LVL4:
 197 000a 4FF49471 		mov	r1, #296	@,
 198 000e FFF7FEFF 		bl	assert_failed	@
 199              	.LVL5:
 200              	.L13:
 297:emWin/config/stm32f4xx_rcc.c **** 
 298:emWin/config/stm32f4xx_rcc.c ****   tmpreg = RCC->CR;
 201              		.loc 1 298 0 is_stmt 1
 202 0012 054B     		ldr	r3, .L14+4	@ tmp117,
 203 0014 1868     		ldr	r0, [r3]	@ tmpreg, MEM[(struct RCC_TypeDef *)1073887232B].CR
 204              	.LVL6:
 299:emWin/config/stm32f4xx_rcc.c **** 
 300:emWin/config/stm32f4xx_rcc.c ****   /* Clear HSITRIM[4:0] bits */
 301:emWin/config/stm32f4xx_rcc.c ****   tmpreg &= ~RCC_CR_HSITRIM;
 205              		.loc 1 301 0
 206 0016 20F0F800 		bic	r0, r0, #248	@ tmpreg, tmpreg,
 207              	.LVL7:
ARM GAS  C:\cygwin\tmp\cclI5f77.s 			page 10


 302:emWin/config/stm32f4xx_rcc.c **** 
 303:emWin/config/stm32f4xx_rcc.c ****   /* Set the HSITRIM[4:0] bits according to HSICalibrationValue value */
 304:emWin/config/stm32f4xx_rcc.c ****   tmpreg |= (uint32_t)HSICalibrationValue << 3;
 208              		.loc 1 304 0
 209 001a 40EAC400 		orr	r0, r0, r4, lsl #3	@, tmpreg, tmpreg, HSICalibrationValue,
 210              	.LVL8:
 305:emWin/config/stm32f4xx_rcc.c **** 
 306:emWin/config/stm32f4xx_rcc.c ****   /* Store the new value */
 307:emWin/config/stm32f4xx_rcc.c ****   RCC->CR = tmpreg;
 211              		.loc 1 307 0
 212 001e 1860     		str	r0, [r3]	@ tmpreg, MEM[(struct RCC_TypeDef *)1073887232B].CR
 213 0020 10BD     		pop	{r4, pc}	@
 214              	.L15:
 215 0022 00BF     		.align	2
 216              	.L14:
 217 0024 00000000 		.word	.LC0
 218 0028 00380240 		.word	1073887232
 219              		.cfi_endproc
 220              	.LFE126:
 221              		.size	RCC_AdjustHSICalibrationValue, .-RCC_AdjustHSICalibrationValue
 222              		.section	.text.RCC_HSICmd,"ax",%progbits
 223              		.align	1
 224              		.global	RCC_HSICmd
 225              		.thumb
 226              		.thumb_func
 227              		.type	RCC_HSICmd, %function
 228              	RCC_HSICmd:
 229              	.LFB127:
 308:emWin/config/stm32f4xx_rcc.c **** }
 309:emWin/config/stm32f4xx_rcc.c **** 
 310:emWin/config/stm32f4xx_rcc.c **** /**
 311:emWin/config/stm32f4xx_rcc.c ****   * @brief  Enables or disables the Internal High Speed oscillator (HSI).
 312:emWin/config/stm32f4xx_rcc.c ****   * @note   The HSI is stopped by hardware when entering STOP and STANDBY modes.
 313:emWin/config/stm32f4xx_rcc.c ****   *         It is used (enabled by hardware) as system clock source after startup
 314:emWin/config/stm32f4xx_rcc.c ****   *         from Reset, wakeup from STOP and STANDBY mode, or in case of failure
 315:emWin/config/stm32f4xx_rcc.c ****   *         of the HSE used directly or indirectly as system clock (if the Clock
 316:emWin/config/stm32f4xx_rcc.c ****   *         Security System CSS is enabled).             
 317:emWin/config/stm32f4xx_rcc.c ****   * @note   HSI can not be stopped if it is used as system clock source. In this case,
 318:emWin/config/stm32f4xx_rcc.c ****   *         you have to select another source of the system clock then stop the HSI.  
 319:emWin/config/stm32f4xx_rcc.c ****   * @note   After enabling the HSI, the application software should wait on HSIRDY
 320:emWin/config/stm32f4xx_rcc.c ****   *         flag to be set indicating that HSI clock is stable and can be used as
 321:emWin/config/stm32f4xx_rcc.c ****   *         system clock source.  
 322:emWin/config/stm32f4xx_rcc.c ****   * @param  NewState: new state of the HSI.
 323:emWin/config/stm32f4xx_rcc.c ****   *          This parameter can be: ENABLE or DISABLE.
 324:emWin/config/stm32f4xx_rcc.c ****   * @note   When the HSI is stopped, HSIRDY flag goes low after 6 HSI oscillator
 325:emWin/config/stm32f4xx_rcc.c ****   *         clock cycles.  
 326:emWin/config/stm32f4xx_rcc.c ****   * @retval None
 327:emWin/config/stm32f4xx_rcc.c ****   */
 328:emWin/config/stm32f4xx_rcc.c **** void RCC_HSICmd(FunctionalState NewState)
 329:emWin/config/stm32f4xx_rcc.c **** {
 230              		.loc 1 329 0
 231              		.cfi_startproc
 232              		@ args = 0, pretend = 0, frame = 0
 233              		@ frame_needed = 0, uses_anonymous_args = 0
 234              	.LVL9:
 330:emWin/config/stm32f4xx_rcc.c ****   /* Check the parameters */
 331:emWin/config/stm32f4xx_rcc.c ****   assert_param(IS_FUNCTIONAL_STATE(NewState));
ARM GAS  C:\cygwin\tmp\cclI5f77.s 			page 11


 235              		.loc 1 331 0
 236 0000 0128     		cmp	r0, #1	@ NewState,
 329:emWin/config/stm32f4xx_rcc.c ****   /* Check the parameters */
 237              		.loc 1 329 0
 238 0002 10B5     		push	{r4, lr}	@
 239              		.cfi_def_cfa_offset 8
 240              		.cfi_offset 4, -8
 241              		.cfi_offset 14, -4
 329:emWin/config/stm32f4xx_rcc.c ****   /* Check the parameters */
 242              		.loc 1 329 0
 243 0004 0446     		mov	r4, r0	@ NewState, NewState
 244              		.loc 1 331 0
 245 0006 04D9     		bls	.L17	@,
 246              		.loc 1 331 0 is_stmt 0 discriminator 1
 247 0008 0348     		ldr	r0, .L18	@,
 248              	.LVL10:
 249 000a 40F24B11 		movw	r1, #331	@,
 250 000e FFF7FEFF 		bl	assert_failed	@
 251              	.LVL11:
 252              	.L17:
 332:emWin/config/stm32f4xx_rcc.c **** 
 333:emWin/config/stm32f4xx_rcc.c ****   *(__IO uint32_t *) CR_HSION_BB = (uint32_t)NewState;
 253              		.loc 1 333 0 is_stmt 1
 254 0012 024B     		ldr	r3, .L18+4	@ tmp113,
 255 0014 1C60     		str	r4, [r3]	@ NewState, MEM[(volatile uint32_t *)1111949312B]
 256 0016 10BD     		pop	{r4, pc}	@
 257              	.L19:
 258              		.align	2
 259              	.L18:
 260 0018 00000000 		.word	.LC0
 261 001c 00004742 		.word	1111949312
 262              		.cfi_endproc
 263              	.LFE127:
 264              		.size	RCC_HSICmd, .-RCC_HSICmd
 265              		.section	.text.RCC_LSEConfig,"ax",%progbits
 266              		.align	1
 267              		.global	RCC_LSEConfig
 268              		.thumb
 269              		.thumb_func
 270              		.type	RCC_LSEConfig, %function
 271              	RCC_LSEConfig:
 272              	.LFB128:
 334:emWin/config/stm32f4xx_rcc.c **** }
 335:emWin/config/stm32f4xx_rcc.c **** 
 336:emWin/config/stm32f4xx_rcc.c **** /**
 337:emWin/config/stm32f4xx_rcc.c ****   * @brief  Configures the External Low Speed oscillator (LSE).
 338:emWin/config/stm32f4xx_rcc.c ****   * @note   As the LSE is in the Backup domain and write access is denied to
 339:emWin/config/stm32f4xx_rcc.c ****   *         this domain after reset, you have to enable write access using 
 340:emWin/config/stm32f4xx_rcc.c ****   *         PWR_BackupAccessCmd(ENABLE) function before to configure the LSE
 341:emWin/config/stm32f4xx_rcc.c ****   *         (to be done once after reset).  
 342:emWin/config/stm32f4xx_rcc.c ****   * @note   After enabling the LSE (RCC_LSE_ON or RCC_LSE_Bypass), the application
 343:emWin/config/stm32f4xx_rcc.c ****   *         software should wait on LSERDY flag to be set indicating that LSE clock
 344:emWin/config/stm32f4xx_rcc.c ****   *         is stable and can be used to clock the RTC.
 345:emWin/config/stm32f4xx_rcc.c ****   * @param  RCC_LSE: specifies the new state of the LSE.
 346:emWin/config/stm32f4xx_rcc.c ****   *          This parameter can be one of the following values:
 347:emWin/config/stm32f4xx_rcc.c ****   *            @arg RCC_LSE_OFF: turn OFF the LSE oscillator, LSERDY flag goes low after
 348:emWin/config/stm32f4xx_rcc.c ****   *                              6 LSE oscillator clock cycles.
ARM GAS  C:\cygwin\tmp\cclI5f77.s 			page 12


 349:emWin/config/stm32f4xx_rcc.c ****   *            @arg RCC_LSE_ON: turn ON the LSE oscillator
 350:emWin/config/stm32f4xx_rcc.c ****   *            @arg RCC_LSE_Bypass: LSE oscillator bypassed with external clock
 351:emWin/config/stm32f4xx_rcc.c ****   * @retval None
 352:emWin/config/stm32f4xx_rcc.c ****   */
 353:emWin/config/stm32f4xx_rcc.c **** void RCC_LSEConfig(uint8_t RCC_LSE)
 354:emWin/config/stm32f4xx_rcc.c **** {
 273              		.loc 1 354 0
 274              		.cfi_startproc
 275              		@ args = 0, pretend = 0, frame = 0
 276              		@ frame_needed = 0, uses_anonymous_args = 0
 277              	.LVL12:
 355:emWin/config/stm32f4xx_rcc.c ****   /* Check the parameters */
 356:emWin/config/stm32f4xx_rcc.c ****   assert_param(IS_RCC_LSE(RCC_LSE));
 278              		.loc 1 356 0
 279 0000 0128     		cmp	r0, #1	@ RCC_LSE,
 354:emWin/config/stm32f4xx_rcc.c ****   /* Check the parameters */
 280              		.loc 1 354 0
 281 0002 10B5     		push	{r4, lr}	@
 282              		.cfi_def_cfa_offset 8
 283              		.cfi_offset 4, -8
 284              		.cfi_offset 14, -4
 354:emWin/config/stm32f4xx_rcc.c ****   /* Check the parameters */
 285              		.loc 1 354 0
 286 0004 0446     		mov	r4, r0	@ RCC_LSE, RCC_LSE
 287              		.loc 1 356 0
 288 0006 06D9     		bls	.L21	@,
 289              		.loc 1 356 0 is_stmt 0 discriminator 1
 290 0008 0428     		cmp	r0, #4	@ RCC_LSE,
 291 000a 04D0     		beq	.L21	@,
 292              		.loc 1 356 0 discriminator 2
 293 000c 0948     		ldr	r0, .L28	@,
 294              	.LVL13:
 295 000e 4FF4B271 		mov	r1, #356	@,
 296 0012 FFF7FEFF 		bl	assert_failed	@
 297              	.LVL14:
 298              	.L21:
 357:emWin/config/stm32f4xx_rcc.c **** 
 358:emWin/config/stm32f4xx_rcc.c ****   /* Reset LSEON and LSEBYP bits before configuring the LSE ------------------*/
 359:emWin/config/stm32f4xx_rcc.c ****   /* Reset LSEON bit */
 360:emWin/config/stm32f4xx_rcc.c ****   *(__IO uint8_t *) BDCR_ADDRESS = RCC_LSE_OFF;
 299              		.loc 1 360 0 is_stmt 1
 300 0016 084B     		ldr	r3, .L28+4	@ tmp112,
 301 0018 0022     		movs	r2, #0	@ tmp113,
 361:emWin/config/stm32f4xx_rcc.c **** 
 362:emWin/config/stm32f4xx_rcc.c ****   /* Reset LSEBYP bit */
 363:emWin/config/stm32f4xx_rcc.c ****   *(__IO uint8_t *) BDCR_ADDRESS = RCC_LSE_OFF;
 364:emWin/config/stm32f4xx_rcc.c **** 
 365:emWin/config/stm32f4xx_rcc.c ****   /* Configure LSE (RCC_LSE_OFF is already covered by the code section above) */
 366:emWin/config/stm32f4xx_rcc.c ****   switch (RCC_LSE)
 302              		.loc 1 366 0
 303 001a 012C     		cmp	r4, #1	@ RCC_LSE,
 360:emWin/config/stm32f4xx_rcc.c **** 
 304              		.loc 1 360 0
 305 001c 1A70     		strb	r2, [r3]	@ tmp113, MEM[(volatile uint8_t *)1073887344B]
 363:emWin/config/stm32f4xx_rcc.c **** 
 306              		.loc 1 363 0
 307 001e 1A70     		strb	r2, [r3]	@ tmp113, MEM[(volatile uint8_t *)1073887344B]
ARM GAS  C:\cygwin\tmp\cclI5f77.s 			page 13


 308              		.loc 1 366 0
 309 0020 02D0     		beq	.L23	@,
 310 0022 042C     		cmp	r4, #4	@ RCC_LSE,
 311 0024 02D0     		beq	.L24	@,
 312 0026 10BD     		pop	{r4, pc}	@
 313              	.L23:
 367:emWin/config/stm32f4xx_rcc.c ****   {
 368:emWin/config/stm32f4xx_rcc.c ****     case RCC_LSE_ON:
 369:emWin/config/stm32f4xx_rcc.c ****       /* Set LSEON bit */
 370:emWin/config/stm32f4xx_rcc.c ****       *(__IO uint8_t *) BDCR_ADDRESS = RCC_LSE_ON;
 314              		.loc 1 370 0
 315 0028 1C70     		strb	r4, [r3]	@ RCC_LSE, MEM[(volatile uint8_t *)1073887344B]
 371:emWin/config/stm32f4xx_rcc.c ****       break;
 316              		.loc 1 371 0
 317 002a 10BD     		pop	{r4, pc}	@
 318              	.L24:
 372:emWin/config/stm32f4xx_rcc.c ****     case RCC_LSE_Bypass:
 373:emWin/config/stm32f4xx_rcc.c ****       /* Set LSEBYP and LSEON bits */
 374:emWin/config/stm32f4xx_rcc.c ****       *(__IO uint8_t *) BDCR_ADDRESS = RCC_LSE_Bypass | RCC_LSE_ON;
 319              		.loc 1 374 0
 320 002c 0522     		movs	r2, #5	@ tmp122,
 321 002e 1A70     		strb	r2, [r3]	@ tmp122, MEM[(volatile uint8_t *)1073887344B]
 322 0030 10BD     		pop	{r4, pc}	@
 323              	.L29:
 324 0032 00BF     		.align	2
 325              	.L28:
 326 0034 00000000 		.word	.LC0
 327 0038 70380240 		.word	1073887344
 328              		.cfi_endproc
 329              	.LFE128:
 330              		.size	RCC_LSEConfig, .-RCC_LSEConfig
 331              		.section	.text.RCC_LSICmd,"ax",%progbits
 332              		.align	1
 333              		.global	RCC_LSICmd
 334              		.thumb
 335              		.thumb_func
 336              		.type	RCC_LSICmd, %function
 337              	RCC_LSICmd:
 338              	.LFB129:
 375:emWin/config/stm32f4xx_rcc.c ****       break;
 376:emWin/config/stm32f4xx_rcc.c ****     default:
 377:emWin/config/stm32f4xx_rcc.c ****       break;
 378:emWin/config/stm32f4xx_rcc.c ****   }
 379:emWin/config/stm32f4xx_rcc.c **** }
 380:emWin/config/stm32f4xx_rcc.c **** 
 381:emWin/config/stm32f4xx_rcc.c **** /**
 382:emWin/config/stm32f4xx_rcc.c ****   * @brief  Enables or disables the Internal Low Speed oscillator (LSI).
 383:emWin/config/stm32f4xx_rcc.c ****   * @note   After enabling the LSI, the application software should wait on 
 384:emWin/config/stm32f4xx_rcc.c ****   *         LSIRDY flag to be set indicating that LSI clock is stable and can
 385:emWin/config/stm32f4xx_rcc.c ****   *         be used to clock the IWDG and/or the RTC.
 386:emWin/config/stm32f4xx_rcc.c ****   * @note   LSI can not be disabled if the IWDG is running.  
 387:emWin/config/stm32f4xx_rcc.c ****   * @param  NewState: new state of the LSI.
 388:emWin/config/stm32f4xx_rcc.c ****   *          This parameter can be: ENABLE or DISABLE.
 389:emWin/config/stm32f4xx_rcc.c ****   * @note   When the LSI is stopped, LSIRDY flag goes low after 6 LSI oscillator
 390:emWin/config/stm32f4xx_rcc.c ****   *         clock cycles. 
 391:emWin/config/stm32f4xx_rcc.c ****   * @retval None
 392:emWin/config/stm32f4xx_rcc.c ****   */
ARM GAS  C:\cygwin\tmp\cclI5f77.s 			page 14


 393:emWin/config/stm32f4xx_rcc.c **** void RCC_LSICmd(FunctionalState NewState)
 394:emWin/config/stm32f4xx_rcc.c **** {
 339              		.loc 1 394 0
 340              		.cfi_startproc
 341              		@ args = 0, pretend = 0, frame = 0
 342              		@ frame_needed = 0, uses_anonymous_args = 0
 343              	.LVL15:
 395:emWin/config/stm32f4xx_rcc.c ****   /* Check the parameters */
 396:emWin/config/stm32f4xx_rcc.c ****   assert_param(IS_FUNCTIONAL_STATE(NewState));
 344              		.loc 1 396 0
 345 0000 0128     		cmp	r0, #1	@ NewState,
 394:emWin/config/stm32f4xx_rcc.c ****   /* Check the parameters */
 346              		.loc 1 394 0
 347 0002 10B5     		push	{r4, lr}	@
 348              		.cfi_def_cfa_offset 8
 349              		.cfi_offset 4, -8
 350              		.cfi_offset 14, -4
 394:emWin/config/stm32f4xx_rcc.c ****   /* Check the parameters */
 351              		.loc 1 394 0
 352 0004 0446     		mov	r4, r0	@ NewState, NewState
 353              		.loc 1 396 0
 354 0006 04D9     		bls	.L31	@,
 355              		.loc 1 396 0 is_stmt 0 discriminator 1
 356 0008 0348     		ldr	r0, .L32	@,
 357              	.LVL16:
 358 000a 4FF4C671 		mov	r1, #396	@,
 359 000e FFF7FEFF 		bl	assert_failed	@
 360              	.LVL17:
 361              	.L31:
 397:emWin/config/stm32f4xx_rcc.c **** 
 398:emWin/config/stm32f4xx_rcc.c ****   *(__IO uint32_t *) CSR_LSION_BB = (uint32_t)NewState;
 362              		.loc 1 398 0 is_stmt 1
 363 0012 024B     		ldr	r3, .L32+4	@ tmp113,
 364 0014 1C60     		str	r4, [r3]	@ NewState, MEM[(volatile uint32_t *)1111953024B]
 365 0016 10BD     		pop	{r4, pc}	@
 366              	.L33:
 367              		.align	2
 368              	.L32:
 369 0018 00000000 		.word	.LC0
 370 001c 800E4742 		.word	1111953024
 371              		.cfi_endproc
 372              	.LFE129:
 373              		.size	RCC_LSICmd, .-RCC_LSICmd
 374              		.section	.text.RCC_PLLConfig,"ax",%progbits
 375              		.align	1
 376              		.global	RCC_PLLConfig
 377              		.thumb
 378              		.thumb_func
 379              		.type	RCC_PLLConfig, %function
 380              	RCC_PLLConfig:
 381              	.LFB130:
 399:emWin/config/stm32f4xx_rcc.c **** }
 400:emWin/config/stm32f4xx_rcc.c **** 
 401:emWin/config/stm32f4xx_rcc.c **** /**
 402:emWin/config/stm32f4xx_rcc.c ****   * @brief  Configures the main PLL clock source, multiplication and division factors.
 403:emWin/config/stm32f4xx_rcc.c ****   * @note   This function must be used only when the main PLL is disabled.
 404:emWin/config/stm32f4xx_rcc.c ****   *  
ARM GAS  C:\cygwin\tmp\cclI5f77.s 			page 15


 405:emWin/config/stm32f4xx_rcc.c ****   * @param  RCC_PLLSource: specifies the PLL entry clock source.
 406:emWin/config/stm32f4xx_rcc.c ****   *          This parameter can be one of the following values:
 407:emWin/config/stm32f4xx_rcc.c ****   *            @arg RCC_PLLSource_HSI: HSI oscillator clock selected as PLL clock entry
 408:emWin/config/stm32f4xx_rcc.c ****   *            @arg RCC_PLLSource_HSE: HSE oscillator clock selected as PLL clock entry
 409:emWin/config/stm32f4xx_rcc.c ****   * @note   This clock source (RCC_PLLSource) is common for the main PLL and PLLI2S.  
 410:emWin/config/stm32f4xx_rcc.c ****   *  
 411:emWin/config/stm32f4xx_rcc.c ****   * @param  PLLM: specifies the division factor for PLL VCO input clock
 412:emWin/config/stm32f4xx_rcc.c ****   *          This parameter must be a number between 0 and 63.
 413:emWin/config/stm32f4xx_rcc.c ****   * @note   You have to set the PLLM parameter correctly to ensure that the VCO input
 414:emWin/config/stm32f4xx_rcc.c ****   *         frequency ranges from 1 to 2 MHz. It is recommended to select a frequency
 415:emWin/config/stm32f4xx_rcc.c ****   *         of 2 MHz to limit PLL jitter.
 416:emWin/config/stm32f4xx_rcc.c ****   *  
 417:emWin/config/stm32f4xx_rcc.c ****   * @param  PLLN: specifies the multiplication factor for PLL VCO output clock
 418:emWin/config/stm32f4xx_rcc.c ****   *          This parameter must be a number between 192 and 432.
 419:emWin/config/stm32f4xx_rcc.c ****   * @note   You have to set the PLLN parameter correctly to ensure that the VCO
 420:emWin/config/stm32f4xx_rcc.c ****   *         output frequency is between 192 and 432 MHz.
 421:emWin/config/stm32f4xx_rcc.c ****   *   
 422:emWin/config/stm32f4xx_rcc.c ****   * @param  PLLP: specifies the division factor for main system clock (SYSCLK)
 423:emWin/config/stm32f4xx_rcc.c ****   *          This parameter must be a number in the range {2, 4, 6, or 8}.
 424:emWin/config/stm32f4xx_rcc.c ****   * @note   You have to set the PLLP parameter correctly to not exceed 168 MHz on
 425:emWin/config/stm32f4xx_rcc.c ****   *         the System clock frequency.
 426:emWin/config/stm32f4xx_rcc.c ****   *  
 427:emWin/config/stm32f4xx_rcc.c ****   * @param  PLLQ: specifies the division factor for OTG FS, SDIO and RNG clocks
 428:emWin/config/stm32f4xx_rcc.c ****   *          This parameter must be a number between 4 and 15.
 429:emWin/config/stm32f4xx_rcc.c ****   * @note   If the USB OTG FS is used in your application, you have to set the
 430:emWin/config/stm32f4xx_rcc.c ****   *         PLLQ parameter correctly to have 48 MHz clock for the USB. However,
 431:emWin/config/stm32f4xx_rcc.c ****   *         the SDIO and RNG need a frequency lower than or equal to 48 MHz to work
 432:emWin/config/stm32f4xx_rcc.c ****   *         correctly.
 433:emWin/config/stm32f4xx_rcc.c ****   *   
 434:emWin/config/stm32f4xx_rcc.c ****   * @retval None
 435:emWin/config/stm32f4xx_rcc.c ****   */
 436:emWin/config/stm32f4xx_rcc.c **** void RCC_PLLConfig(uint32_t RCC_PLLSource, uint32_t PLLM, uint32_t PLLN, uint32_t PLLP, uint32_t PL
 437:emWin/config/stm32f4xx_rcc.c **** {
 382              		.loc 1 437 0
 383              		.cfi_startproc
 384              		@ args = 4, pretend = 0, frame = 0
 385              		@ frame_needed = 0, uses_anonymous_args = 0
 386              	.LVL18:
 387 0000 2DE9F041 		push	{r4, r5, r6, r7, r8, lr}	@
 388              		.cfi_def_cfa_offset 24
 389              		.cfi_offset 4, -24
 390              		.cfi_offset 5, -20
 391              		.cfi_offset 6, -16
 392              		.cfi_offset 7, -12
 393              		.cfi_offset 8, -8
 394              		.cfi_offset 14, -4
 395              		.loc 1 437 0
 396 0004 1D46     		mov	r5, r3	@ PLLP, PLLP
 438:emWin/config/stm32f4xx_rcc.c ****   /* Check the parameters */
 439:emWin/config/stm32f4xx_rcc.c ****   assert_param(IS_RCC_PLL_SOURCE(RCC_PLLSource));
 397              		.loc 1 439 0
 398 0006 30F48003 		bics	r3, r0, #4194304	@ tmp146, RCC_PLLSource,
 399              	.LVL19:
 437:emWin/config/stm32f4xx_rcc.c ****   /* Check the parameters */
 400              		.loc 1 437 0
 401 000a 0646     		mov	r6, r0	@ RCC_PLLSource, RCC_PLLSource
 402 000c 0C46     		mov	r4, r1	@ PLLM, PLLM
ARM GAS  C:\cygwin\tmp\cclI5f77.s 			page 16


 403 000e 9046     		mov	r8, r2	@ PLLN, PLLN
 404 0010 069F     		ldr	r7, [sp, #24]	@ PLLQ, PLLQ
 405              		.loc 1 439 0
 406 0012 04D0     		beq	.L35	@,
 407              		.loc 1 439 0 is_stmt 0 discriminator 2
 408 0014 1B48     		ldr	r0, .L52	@,
 409              	.LVL20:
 410 0016 40F2B711 		movw	r1, #439	@,
 411              	.LVL21:
 412 001a FFF7FEFF 		bl	assert_failed	@
 413              	.LVL22:
 414              	.L35:
 440:emWin/config/stm32f4xx_rcc.c ****   assert_param(IS_RCC_PLLM_VALUE(PLLM));
 415              		.loc 1 440 0 is_stmt 1
 416 001e 3F2C     		cmp	r4, #63	@ PLLM,
 417 0020 04D9     		bls	.L36	@,
 418              		.loc 1 440 0 is_stmt 0 discriminator 1
 419 0022 1848     		ldr	r0, .L52	@,
 420 0024 4FF4DC71 		mov	r1, #440	@,
 421 0028 FFF7FEFF 		bl	assert_failed	@
 422              	.LVL23:
 423              	.L36:
 441:emWin/config/stm32f4xx_rcc.c ****   assert_param(IS_RCC_PLLN_VALUE(PLLN));
 424              		.loc 1 441 0 is_stmt 1
 425 002c A8F1C003 		sub	r3, r8, #192	@ D.8386, PLLN,
 426 0030 F02B     		cmp	r3, #240	@ D.8386,
 427 0032 04D9     		bls	.L37	@,
 428              		.loc 1 441 0 is_stmt 0 discriminator 1
 429 0034 1348     		ldr	r0, .L52	@,
 430 0036 40F2B911 		movw	r1, #441	@,
 431 003a FFF7FEFF 		bl	assert_failed	@
 432              	.LVL24:
 433              	.L37:
 442:emWin/config/stm32f4xx_rcc.c ****   assert_param(IS_RCC_PLLP_VALUE(PLLP));
 434              		.loc 1 442 0 is_stmt 1
 435 003e 25F00403 		bic	r3, r5, #4	@ D.8386, PLLP,
 436 0042 022B     		cmp	r3, #2	@ D.8386,
 437 0044 08D0     		beq	.L38	@,
 438              		.loc 1 442 0 is_stmt 0 discriminator 1
 439 0046 042D     		cmp	r5, #4	@ PLLP,
 440 0048 06D0     		beq	.L38	@,
 441              		.loc 1 442 0 discriminator 3
 442 004a 082D     		cmp	r5, #8	@ PLLP,
 443 004c 04D0     		beq	.L38	@,
 444              		.loc 1 442 0 discriminator 4
 445 004e 0D48     		ldr	r0, .L52	@,
 446 0050 4FF4DD71 		mov	r1, #442	@,
 447 0054 FFF7FEFF 		bl	assert_failed	@
 448              	.LVL25:
 449              	.L38:
 443:emWin/config/stm32f4xx_rcc.c ****   assert_param(IS_RCC_PLLQ_VALUE(PLLQ));
 450              		.loc 1 443 0 is_stmt 1
 451 0058 3B1F     		subs	r3, r7, #4	@ D.8386, PLLQ,
 452 005a 0B2B     		cmp	r3, #11	@ D.8386,
 453 005c 04D9     		bls	.L39	@,
 454              		.loc 1 443 0 is_stmt 0 discriminator 1
 455 005e 0948     		ldr	r0, .L52	@,
ARM GAS  C:\cygwin\tmp\cclI5f77.s 			page 17


 456 0060 40F2BB11 		movw	r1, #443	@,
 457 0064 FFF7FEFF 		bl	assert_failed	@
 458              	.LVL26:
 459              	.L39:
 444:emWin/config/stm32f4xx_rcc.c **** 
 445:emWin/config/stm32f4xx_rcc.c ****   RCC->PLLCFGR = PLLM | (PLLN << 6) | (((PLLP >> 1) -1) << 16) | (RCC_PLLSource) |
 460              		.loc 1 445 0 is_stmt 1
 461 0068 44EA8812 		orr	r2, r4, r8, lsl #6	@, D.8386, PLLM, PLLN,
 462 006c 6C08     		lsrs	r4, r5, #1	@ D.8386, PLLP,
 463              	.LVL27:
 464 006e 42EA0762 		orr	r2, r2, r7, lsl #24	@, D.8386, D.8386, PLLQ,
 465 0072 013C     		subs	r4, r4, #1	@ D.8386, D.8386,
 466 0074 42EA0444 		orr	r4, r2, r4, lsl #16	@, D.8386, D.8386, D.8386,
 467 0078 034B     		ldr	r3, .L52+4	@ tmp145,
 468 007a 3443     		orrs	r4, r4, r6	@, D.8386, D.8386, RCC_PLLSource
 469 007c 5C60     		str	r4, [r3, #4]	@ D.8386, MEM[(struct RCC_TypeDef *)1073887232B].PLLCFGR
 470 007e BDE8F081 		pop	{r4, r5, r6, r7, r8, pc}	@
 471              	.LVL28:
 472              	.L53:
 473 0082 00BF     		.align	2
 474              	.L52:
 475 0084 00000000 		.word	.LC0
 476 0088 00380240 		.word	1073887232
 477              		.cfi_endproc
 478              	.LFE130:
 479              		.size	RCC_PLLConfig, .-RCC_PLLConfig
 480              		.section	.text.RCC_PLLCmd,"ax",%progbits
 481              		.align	1
 482              		.global	RCC_PLLCmd
 483              		.thumb
 484              		.thumb_func
 485              		.type	RCC_PLLCmd, %function
 486              	RCC_PLLCmd:
 487              	.LFB131:
 446:emWin/config/stm32f4xx_rcc.c ****                  (PLLQ << 24);
 447:emWin/config/stm32f4xx_rcc.c **** }
 448:emWin/config/stm32f4xx_rcc.c **** 
 449:emWin/config/stm32f4xx_rcc.c **** /**
 450:emWin/config/stm32f4xx_rcc.c ****   * @brief  Enables or disables the main PLL.
 451:emWin/config/stm32f4xx_rcc.c ****   * @note   After enabling the main PLL, the application software should wait on 
 452:emWin/config/stm32f4xx_rcc.c ****   *         PLLRDY flag to be set indicating that PLL clock is stable and can
 453:emWin/config/stm32f4xx_rcc.c ****   *         be used as system clock source.
 454:emWin/config/stm32f4xx_rcc.c ****   * @note   The main PLL can not be disabled if it is used as system clock source
 455:emWin/config/stm32f4xx_rcc.c ****   * @note   The main PLL is disabled by hardware when entering STOP and STANDBY modes.
 456:emWin/config/stm32f4xx_rcc.c ****   * @param  NewState: new state of the main PLL. This parameter can be: ENABLE or DISABLE.
 457:emWin/config/stm32f4xx_rcc.c ****   * @retval None
 458:emWin/config/stm32f4xx_rcc.c ****   */
 459:emWin/config/stm32f4xx_rcc.c **** void RCC_PLLCmd(FunctionalState NewState)
 460:emWin/config/stm32f4xx_rcc.c **** {
 488              		.loc 1 460 0
 489              		.cfi_startproc
 490              		@ args = 0, pretend = 0, frame = 0
 491              		@ frame_needed = 0, uses_anonymous_args = 0
 492              	.LVL29:
 461:emWin/config/stm32f4xx_rcc.c ****   /* Check the parameters */
 462:emWin/config/stm32f4xx_rcc.c ****   assert_param(IS_FUNCTIONAL_STATE(NewState));
 493              		.loc 1 462 0
ARM GAS  C:\cygwin\tmp\cclI5f77.s 			page 18


 494 0000 0128     		cmp	r0, #1	@ NewState,
 460:emWin/config/stm32f4xx_rcc.c ****   /* Check the parameters */
 495              		.loc 1 460 0
 496 0002 10B5     		push	{r4, lr}	@
 497              		.cfi_def_cfa_offset 8
 498              		.cfi_offset 4, -8
 499              		.cfi_offset 14, -4
 460:emWin/config/stm32f4xx_rcc.c ****   /* Check the parameters */
 500              		.loc 1 460 0
 501 0004 0446     		mov	r4, r0	@ NewState, NewState
 502              		.loc 1 462 0
 503 0006 04D9     		bls	.L55	@,
 504              		.loc 1 462 0 is_stmt 0 discriminator 1
 505 0008 0348     		ldr	r0, .L56	@,
 506              	.LVL30:
 507 000a 4FF4E771 		mov	r1, #462	@,
 508 000e FFF7FEFF 		bl	assert_failed	@
 509              	.LVL31:
 510              	.L55:
 463:emWin/config/stm32f4xx_rcc.c ****   *(__IO uint32_t *) CR_PLLON_BB = (uint32_t)NewState;
 511              		.loc 1 463 0 is_stmt 1
 512 0012 024B     		ldr	r3, .L56+4	@ tmp113,
 513 0014 1C60     		str	r4, [r3]	@ NewState, MEM[(volatile uint32_t *)1111949408B]
 514 0016 10BD     		pop	{r4, pc}	@
 515              	.L57:
 516              		.align	2
 517              	.L56:
 518 0018 00000000 		.word	.LC0
 519 001c 60004742 		.word	1111949408
 520              		.cfi_endproc
 521              	.LFE131:
 522              		.size	RCC_PLLCmd, .-RCC_PLLCmd
 523              		.section	.text.RCC_PLLI2SConfig,"ax",%progbits
 524              		.align	1
 525              		.global	RCC_PLLI2SConfig
 526              		.thumb
 527              		.thumb_func
 528              		.type	RCC_PLLI2SConfig, %function
 529              	RCC_PLLI2SConfig:
 530              	.LFB132:
 464:emWin/config/stm32f4xx_rcc.c **** }
 465:emWin/config/stm32f4xx_rcc.c **** 
 466:emWin/config/stm32f4xx_rcc.c **** /**
 467:emWin/config/stm32f4xx_rcc.c ****   * @brief  Configures the PLLI2S clock multiplication and division factors.
 468:emWin/config/stm32f4xx_rcc.c ****   *  
 469:emWin/config/stm32f4xx_rcc.c ****   * @note   This function must be used only when the PLLI2S is disabled.
 470:emWin/config/stm32f4xx_rcc.c ****   * @note   PLLI2S clock source is common with the main PLL (configured in 
 471:emWin/config/stm32f4xx_rcc.c ****   *         RCC_PLLConfig function )  
 472:emWin/config/stm32f4xx_rcc.c ****   *             
 473:emWin/config/stm32f4xx_rcc.c ****   * @param  PLLI2SN: specifies the multiplication factor for PLLI2S VCO output clock
 474:emWin/config/stm32f4xx_rcc.c ****   *          This parameter must be a number between 192 and 432.
 475:emWin/config/stm32f4xx_rcc.c ****   * @note   You have to set the PLLI2SN parameter correctly to ensure that the VCO 
 476:emWin/config/stm32f4xx_rcc.c ****   *         output frequency is between 192 and 432 MHz.
 477:emWin/config/stm32f4xx_rcc.c ****   *    
 478:emWin/config/stm32f4xx_rcc.c ****   * @param  PLLI2SR: specifies the division factor for I2S clock
 479:emWin/config/stm32f4xx_rcc.c ****   *          This parameter must be a number between 2 and 7.
 480:emWin/config/stm32f4xx_rcc.c ****   * @note   You have to set the PLLI2SR parameter correctly to not exceed 192 MHz
ARM GAS  C:\cygwin\tmp\cclI5f77.s 			page 19


 481:emWin/config/stm32f4xx_rcc.c ****   *         on the I2S clock frequency.
 482:emWin/config/stm32f4xx_rcc.c ****   *   
 483:emWin/config/stm32f4xx_rcc.c ****   * @retval None
 484:emWin/config/stm32f4xx_rcc.c ****   */
 485:emWin/config/stm32f4xx_rcc.c **** void RCC_PLLI2SConfig(uint32_t PLLI2SN, uint32_t PLLI2SR)
 486:emWin/config/stm32f4xx_rcc.c **** {
 531              		.loc 1 486 0
 532              		.cfi_startproc
 533              		@ args = 0, pretend = 0, frame = 0
 534              		@ frame_needed = 0, uses_anonymous_args = 0
 535              	.LVL32:
 536 0000 38B5     		push	{r3, r4, r5, lr}	@
 537              		.cfi_def_cfa_offset 16
 538              		.cfi_offset 3, -16
 539              		.cfi_offset 4, -12
 540              		.cfi_offset 5, -8
 541              		.cfi_offset 14, -4
 487:emWin/config/stm32f4xx_rcc.c ****   /* Check the parameters */
 488:emWin/config/stm32f4xx_rcc.c ****   assert_param(IS_RCC_PLLI2SN_VALUE(PLLI2SN));
 542              		.loc 1 488 0
 543 0002 A0F1C003 		sub	r3, r0, #192	@ D.8392, PLLI2SN,
 544 0006 F02B     		cmp	r3, #240	@ D.8392,
 486:emWin/config/stm32f4xx_rcc.c ****   /* Check the parameters */
 545              		.loc 1 486 0
 546 0008 0546     		mov	r5, r0	@ PLLI2SN, PLLI2SN
 547 000a 0C46     		mov	r4, r1	@ PLLI2SR, PLLI2SR
 548              		.loc 1 488 0
 549 000c 04D9     		bls	.L59	@,
 550              		.loc 1 488 0 is_stmt 0 discriminator 1
 551 000e 0A48     		ldr	r0, .L61	@,
 552              	.LVL33:
 553 0010 4FF4F471 		mov	r1, #488	@,
 554              	.LVL34:
 555 0014 FFF7FEFF 		bl	assert_failed	@
 556              	.LVL35:
 557              	.L59:
 489:emWin/config/stm32f4xx_rcc.c ****   assert_param(IS_RCC_PLLI2SR_VALUE(PLLI2SR));
 558              		.loc 1 489 0 is_stmt 1
 559 0018 A31E     		subs	r3, r4, #2	@ D.8392, PLLI2SR,
 560 001a 052B     		cmp	r3, #5	@ D.8392,
 561 001c 04D9     		bls	.L60	@,
 562              		.loc 1 489 0 is_stmt 0 discriminator 1
 563 001e 0648     		ldr	r0, .L61	@,
 564 0020 40F2E911 		movw	r1, #489	@,
 565 0024 FFF7FEFF 		bl	assert_failed	@
 566              	.LVL36:
 567              	.L60:
 490:emWin/config/stm32f4xx_rcc.c **** 
 491:emWin/config/stm32f4xx_rcc.c ****   RCC->PLLI2SCFGR = (PLLI2SN << 6) | (PLLI2SR << 28);
 568              		.loc 1 491 0 is_stmt 1
 569 0028 2407     		lsls	r4, r4, #28	@ D.8392, PLLI2SR,
 570              	.LVL37:
 571 002a 044B     		ldr	r3, .L61+4	@ tmp123,
 572 002c 44EA8514 		orr	r4, r4, r5, lsl #6	@, D.8392, D.8392, PLLI2SN,
 573 0030 C3F88440 		str	r4, [r3, #132]	@ D.8392, MEM[(struct RCC_TypeDef *)1073887232B].PLLI2SCFGR
 574 0034 38BD     		pop	{r3, r4, r5, pc}	@
 575              	.LVL38:
ARM GAS  C:\cygwin\tmp\cclI5f77.s 			page 20


 576              	.L62:
 577 0036 00BF     		.align	2
 578              	.L61:
 579 0038 00000000 		.word	.LC0
 580 003c 00380240 		.word	1073887232
 581              		.cfi_endproc
 582              	.LFE132:
 583              		.size	RCC_PLLI2SConfig, .-RCC_PLLI2SConfig
 584              		.section	.text.RCC_PLLI2SCmd,"ax",%progbits
 585              		.align	1
 586              		.global	RCC_PLLI2SCmd
 587              		.thumb
 588              		.thumb_func
 589              		.type	RCC_PLLI2SCmd, %function
 590              	RCC_PLLI2SCmd:
 591              	.LFB133:
 492:emWin/config/stm32f4xx_rcc.c **** }
 493:emWin/config/stm32f4xx_rcc.c **** 
 494:emWin/config/stm32f4xx_rcc.c **** /**
 495:emWin/config/stm32f4xx_rcc.c ****   * @brief  Enables or disables the PLLI2S. 
 496:emWin/config/stm32f4xx_rcc.c ****   * @note   The PLLI2S is disabled by hardware when entering STOP and STANDBY modes.  
 497:emWin/config/stm32f4xx_rcc.c ****   * @param  NewState: new state of the PLLI2S. This parameter can be: ENABLE or DISABLE.
 498:emWin/config/stm32f4xx_rcc.c ****   * @retval None
 499:emWin/config/stm32f4xx_rcc.c ****   */
 500:emWin/config/stm32f4xx_rcc.c **** void RCC_PLLI2SCmd(FunctionalState NewState)
 501:emWin/config/stm32f4xx_rcc.c **** {
 592              		.loc 1 501 0
 593              		.cfi_startproc
 594              		@ args = 0, pretend = 0, frame = 0
 595              		@ frame_needed = 0, uses_anonymous_args = 0
 596              	.LVL39:
 502:emWin/config/stm32f4xx_rcc.c ****   /* Check the parameters */
 503:emWin/config/stm32f4xx_rcc.c ****   assert_param(IS_FUNCTIONAL_STATE(NewState));
 597              		.loc 1 503 0
 598 0000 0128     		cmp	r0, #1	@ NewState,
 501:emWin/config/stm32f4xx_rcc.c ****   /* Check the parameters */
 599              		.loc 1 501 0
 600 0002 10B5     		push	{r4, lr}	@
 601              		.cfi_def_cfa_offset 8
 602              		.cfi_offset 4, -8
 603              		.cfi_offset 14, -4
 501:emWin/config/stm32f4xx_rcc.c ****   /* Check the parameters */
 604              		.loc 1 501 0
 605 0004 0446     		mov	r4, r0	@ NewState, NewState
 606              		.loc 1 503 0
 607 0006 04D9     		bls	.L64	@,
 608              		.loc 1 503 0 is_stmt 0 discriminator 1
 609 0008 0348     		ldr	r0, .L65	@,
 610              	.LVL40:
 611 000a 40F2F711 		movw	r1, #503	@,
 612 000e FFF7FEFF 		bl	assert_failed	@
 613              	.LVL41:
 614              	.L64:
 504:emWin/config/stm32f4xx_rcc.c ****   *(__IO uint32_t *) CR_PLLI2SON_BB = (uint32_t)NewState;
 615              		.loc 1 504 0 is_stmt 1
 616 0012 024B     		ldr	r3, .L65+4	@ tmp113,
 617 0014 1C60     		str	r4, [r3]	@ NewState, MEM[(volatile uint32_t *)1111949416B]
ARM GAS  C:\cygwin\tmp\cclI5f77.s 			page 21


 618 0016 10BD     		pop	{r4, pc}	@
 619              	.L66:
 620              		.align	2
 621              	.L65:
 622 0018 00000000 		.word	.LC0
 623 001c 68004742 		.word	1111949416
 624              		.cfi_endproc
 625              	.LFE133:
 626              		.size	RCC_PLLI2SCmd, .-RCC_PLLI2SCmd
 627              		.section	.text.RCC_ClockSecuritySystemCmd,"ax",%progbits
 628              		.align	1
 629              		.global	RCC_ClockSecuritySystemCmd
 630              		.thumb
 631              		.thumb_func
 632              		.type	RCC_ClockSecuritySystemCmd, %function
 633              	RCC_ClockSecuritySystemCmd:
 634              	.LFB134:
 505:emWin/config/stm32f4xx_rcc.c **** }
 506:emWin/config/stm32f4xx_rcc.c **** 
 507:emWin/config/stm32f4xx_rcc.c **** /**
 508:emWin/config/stm32f4xx_rcc.c ****   * @brief  Enables or disables the Clock Security System.
 509:emWin/config/stm32f4xx_rcc.c ****   * @note   If a failure is detected on the HSE oscillator clock, this oscillator
 510:emWin/config/stm32f4xx_rcc.c ****   *         is automatically disabled and an interrupt is generated to inform the
 511:emWin/config/stm32f4xx_rcc.c ****   *         software about the failure (Clock Security System Interrupt, CSSI),
 512:emWin/config/stm32f4xx_rcc.c ****   *         allowing the MCU to perform rescue operations. The CSSI is linked to 
 513:emWin/config/stm32f4xx_rcc.c ****   *         the Cortex-M4 NMI (Non-Maskable Interrupt) exception vector.  
 514:emWin/config/stm32f4xx_rcc.c ****   * @param  NewState: new state of the Clock Security System.
 515:emWin/config/stm32f4xx_rcc.c ****   *         This parameter can be: ENABLE or DISABLE.
 516:emWin/config/stm32f4xx_rcc.c ****   * @retval None
 517:emWin/config/stm32f4xx_rcc.c ****   */
 518:emWin/config/stm32f4xx_rcc.c **** void RCC_ClockSecuritySystemCmd(FunctionalState NewState)
 519:emWin/config/stm32f4xx_rcc.c **** {
 635              		.loc 1 519 0
 636              		.cfi_startproc
 637              		@ args = 0, pretend = 0, frame = 0
 638              		@ frame_needed = 0, uses_anonymous_args = 0
 639              	.LVL42:
 520:emWin/config/stm32f4xx_rcc.c ****   /* Check the parameters */
 521:emWin/config/stm32f4xx_rcc.c ****   assert_param(IS_FUNCTIONAL_STATE(NewState));
 640              		.loc 1 521 0
 641 0000 0128     		cmp	r0, #1	@ NewState,
 519:emWin/config/stm32f4xx_rcc.c ****   /* Check the parameters */
 642              		.loc 1 519 0
 643 0002 10B5     		push	{r4, lr}	@
 644              		.cfi_def_cfa_offset 8
 645              		.cfi_offset 4, -8
 646              		.cfi_offset 14, -4
 519:emWin/config/stm32f4xx_rcc.c ****   /* Check the parameters */
 647              		.loc 1 519 0
 648 0004 0446     		mov	r4, r0	@ NewState, NewState
 649              		.loc 1 521 0
 650 0006 04D9     		bls	.L68	@,
 651              		.loc 1 521 0 is_stmt 0 discriminator 1
 652 0008 0348     		ldr	r0, .L69	@,
 653              	.LVL43:
 654 000a 40F20921 		movw	r1, #521	@,
 655 000e FFF7FEFF 		bl	assert_failed	@
ARM GAS  C:\cygwin\tmp\cclI5f77.s 			page 22


 656              	.LVL44:
 657              	.L68:
 522:emWin/config/stm32f4xx_rcc.c ****   *(__IO uint32_t *) CR_CSSON_BB = (uint32_t)NewState;
 658              		.loc 1 522 0 is_stmt 1
 659 0012 024B     		ldr	r3, .L69+4	@ tmp113,
 660 0014 1C60     		str	r4, [r3]	@ NewState, MEM[(volatile uint32_t *)1111949388B]
 661 0016 10BD     		pop	{r4, pc}	@
 662              	.L70:
 663              		.align	2
 664              	.L69:
 665 0018 00000000 		.word	.LC0
 666 001c 4C004742 		.word	1111949388
 667              		.cfi_endproc
 668              	.LFE134:
 669              		.size	RCC_ClockSecuritySystemCmd, .-RCC_ClockSecuritySystemCmd
 670              		.section	.text.RCC_MCO1Config,"ax",%progbits
 671              		.align	1
 672              		.global	RCC_MCO1Config
 673              		.thumb
 674              		.thumb_func
 675              		.type	RCC_MCO1Config, %function
 676              	RCC_MCO1Config:
 677              	.LFB135:
 523:emWin/config/stm32f4xx_rcc.c **** }
 524:emWin/config/stm32f4xx_rcc.c **** 
 525:emWin/config/stm32f4xx_rcc.c **** /**
 526:emWin/config/stm32f4xx_rcc.c ****   * @brief  Selects the clock source to output on MCO1 pin(PA8).
 527:emWin/config/stm32f4xx_rcc.c ****   * @note   PA8 should be configured in alternate function mode.
 528:emWin/config/stm32f4xx_rcc.c ****   * @param  RCC_MCO1Source: specifies the clock source to output.
 529:emWin/config/stm32f4xx_rcc.c ****   *          This parameter can be one of the following values:
 530:emWin/config/stm32f4xx_rcc.c ****   *            @arg RCC_MCO1Source_HSI: HSI clock selected as MCO1 source
 531:emWin/config/stm32f4xx_rcc.c ****   *            @arg RCC_MCO1Source_LSE: LSE clock selected as MCO1 source
 532:emWin/config/stm32f4xx_rcc.c ****   *            @arg RCC_MCO1Source_HSE: HSE clock selected as MCO1 source
 533:emWin/config/stm32f4xx_rcc.c ****   *            @arg RCC_MCO1Source_PLLCLK: main PLL clock selected as MCO1 source
 534:emWin/config/stm32f4xx_rcc.c ****   * @param  RCC_MCO1Div: specifies the MCO1 prescaler.
 535:emWin/config/stm32f4xx_rcc.c ****   *          This parameter can be one of the following values:
 536:emWin/config/stm32f4xx_rcc.c ****   *            @arg RCC_MCO1Div_1: no division applied to MCO1 clock
 537:emWin/config/stm32f4xx_rcc.c ****   *            @arg RCC_MCO1Div_2: division by 2 applied to MCO1 clock
 538:emWin/config/stm32f4xx_rcc.c ****   *            @arg RCC_MCO1Div_3: division by 3 applied to MCO1 clock
 539:emWin/config/stm32f4xx_rcc.c ****   *            @arg RCC_MCO1Div_4: division by 4 applied to MCO1 clock
 540:emWin/config/stm32f4xx_rcc.c ****   *            @arg RCC_MCO1Div_5: division by 5 applied to MCO1 clock
 541:emWin/config/stm32f4xx_rcc.c ****   * @retval None
 542:emWin/config/stm32f4xx_rcc.c ****   */
 543:emWin/config/stm32f4xx_rcc.c **** void RCC_MCO1Config(uint32_t RCC_MCO1Source, uint32_t RCC_MCO1Div)
 544:emWin/config/stm32f4xx_rcc.c **** {
 678              		.loc 1 544 0
 679              		.cfi_startproc
 680              		@ args = 0, pretend = 0, frame = 0
 681              		@ frame_needed = 0, uses_anonymous_args = 0
 682              	.LVL45:
 683 0000 38B5     		push	{r3, r4, r5, lr}	@
 684              		.cfi_def_cfa_offset 16
 685              		.cfi_offset 3, -16
 686              		.cfi_offset 4, -12
 687              		.cfi_offset 5, -8
 688              		.cfi_offset 14, -4
 545:emWin/config/stm32f4xx_rcc.c ****   uint32_t tmpreg = 0;
ARM GAS  C:\cygwin\tmp\cclI5f77.s 			page 23


 546:emWin/config/stm32f4xx_rcc.c ****   
 547:emWin/config/stm32f4xx_rcc.c ****   /* Check the parameters */
 548:emWin/config/stm32f4xx_rcc.c ****   assert_param(IS_RCC_MCO1SOURCE(RCC_MCO1Source));
 689              		.loc 1 548 0
 690 0002 30F4C003 		bics	r3, r0, #6291456	@ tmp127, RCC_MCO1Source,
 544:emWin/config/stm32f4xx_rcc.c ****   uint32_t tmpreg = 0;
 691              		.loc 1 544 0
 692 0006 0446     		mov	r4, r0	@ RCC_MCO1Source, RCC_MCO1Source
 693 0008 0D46     		mov	r5, r1	@ RCC_MCO1Div, RCC_MCO1Div
 694              		.loc 1 548 0
 695 000a 04D0     		beq	.L72	@,
 696              		.loc 1 548 0 is_stmt 0 discriminator 4
 697 000c 0E48     		ldr	r0, .L86	@,
 698              	.LVL46:
 699 000e 4FF40971 		mov	r1, #548	@,
 700              	.LVL47:
 701 0012 FFF7FEFF 		bl	assert_failed	@
 702              	.LVL48:
 703              	.L72:
 549:emWin/config/stm32f4xx_rcc.c ****   assert_param(IS_RCC_MCO1DIV(RCC_MCO1Div));  
 704              		.loc 1 549 0 is_stmt 1
 705 0016 35F08063 		bics	r3, r5, #67108864	@ tmp128, RCC_MCO1Div,
 706 001a 0CD0     		beq	.L73	@,
 707              		.loc 1 549 0 is_stmt 0 discriminator 2
 708 001c 25F00073 		bic	r3, r5, #33554432	@ D.8401, RCC_MCO1Div,
 709 0020 B3F1A06F 		cmp	r3, #83886080	@ D.8401,
 710 0024 07D0     		beq	.L73	@,
 711              		.loc 1 549 0 discriminator 3
 712 0026 B5F1C06F 		cmp	r5, #100663296	@ RCC_MCO1Div,
 713 002a 04D0     		beq	.L73	@,
 714              		.loc 1 549 0 discriminator 5
 715 002c 0648     		ldr	r0, .L86	@,
 716 002e 40F22521 		movw	r1, #549	@,
 717 0032 FFF7FEFF 		bl	assert_failed	@
 718              	.LVL49:
 719              	.L73:
 550:emWin/config/stm32f4xx_rcc.c **** 
 551:emWin/config/stm32f4xx_rcc.c ****   tmpreg = RCC->CFGR;
 720              		.loc 1 551 0 is_stmt 1
 721 0036 054B     		ldr	r3, .L86+4	@ tmp124,
 722 0038 9968     		ldr	r1, [r3, #8]	@ tmpreg, MEM[(struct RCC_TypeDef *)1073887232B].CFGR
 723              	.LVL50:
 552:emWin/config/stm32f4xx_rcc.c **** 
 553:emWin/config/stm32f4xx_rcc.c ****   /* Clear MCO1[1:0] and MCO1PRE[2:0] bits */
 554:emWin/config/stm32f4xx_rcc.c ****   tmpreg &= CFGR_MCO1_RESET_MASK;
 724              		.loc 1 554 0
 725 003a 21F0EC61 		bic	r1, r1, #123731968	@ tmpreg, tmpreg,
 726              	.LVL51:
 727 003e 2943     		orrs	r1, r1, r5	@, D.8401, tmpreg, RCC_MCO1Div
 728              	.LVL52:
 555:emWin/config/stm32f4xx_rcc.c **** 
 556:emWin/config/stm32f4xx_rcc.c ****   /* Select MCO1 clock source and prescaler */
 557:emWin/config/stm32f4xx_rcc.c ****   tmpreg |= RCC_MCO1Source | RCC_MCO1Div;
 729              		.loc 1 557 0
 730 0040 2143     		orrs	r1, r1, r4	@, tmpreg, D.8401, RCC_MCO1Source
 731              	.LVL53:
 558:emWin/config/stm32f4xx_rcc.c **** 
ARM GAS  C:\cygwin\tmp\cclI5f77.s 			page 24


 559:emWin/config/stm32f4xx_rcc.c ****   /* Store the new value */
 560:emWin/config/stm32f4xx_rcc.c ****   RCC->CFGR = tmpreg;  
 732              		.loc 1 560 0
 733 0042 9960     		str	r1, [r3, #8]	@ tmpreg, MEM[(struct RCC_TypeDef *)1073887232B].CFGR
 734 0044 38BD     		pop	{r3, r4, r5, pc}	@
 735              	.LVL54:
 736              	.L87:
 737 0046 00BF     		.align	2
 738              	.L86:
 739 0048 00000000 		.word	.LC0
 740 004c 00380240 		.word	1073887232
 741              		.cfi_endproc
 742              	.LFE135:
 743              		.size	RCC_MCO1Config, .-RCC_MCO1Config
 744              		.section	.text.RCC_MCO2Config,"ax",%progbits
 745              		.align	1
 746              		.global	RCC_MCO2Config
 747              		.thumb
 748              		.thumb_func
 749              		.type	RCC_MCO2Config, %function
 750              	RCC_MCO2Config:
 751              	.LFB136:
 561:emWin/config/stm32f4xx_rcc.c **** }
 562:emWin/config/stm32f4xx_rcc.c **** 
 563:emWin/config/stm32f4xx_rcc.c **** /**
 564:emWin/config/stm32f4xx_rcc.c ****   * @brief  Selects the clock source to output on MCO2 pin(PC9).
 565:emWin/config/stm32f4xx_rcc.c ****   * @note   PC9 should be configured in alternate function mode.
 566:emWin/config/stm32f4xx_rcc.c ****   * @param  RCC_MCO2Source: specifies the clock source to output.
 567:emWin/config/stm32f4xx_rcc.c ****   *          This parameter can be one of the following values:
 568:emWin/config/stm32f4xx_rcc.c ****   *            @arg RCC_MCO2Source_SYSCLK: System clock (SYSCLK) selected as MCO2 source
 569:emWin/config/stm32f4xx_rcc.c ****   *            @arg RCC_MCO2Source_PLLI2SCLK: PLLI2S clock selected as MCO2 source
 570:emWin/config/stm32f4xx_rcc.c ****   *            @arg RCC_MCO2Source_HSE: HSE clock selected as MCO2 source
 571:emWin/config/stm32f4xx_rcc.c ****   *            @arg RCC_MCO2Source_PLLCLK: main PLL clock selected as MCO2 source
 572:emWin/config/stm32f4xx_rcc.c ****   * @param  RCC_MCO2Div: specifies the MCO2 prescaler.
 573:emWin/config/stm32f4xx_rcc.c ****   *          This parameter can be one of the following values:
 574:emWin/config/stm32f4xx_rcc.c ****   *            @arg RCC_MCO2Div_1: no division applied to MCO2 clock
 575:emWin/config/stm32f4xx_rcc.c ****   *            @arg RCC_MCO2Div_2: division by 2 applied to MCO2 clock
 576:emWin/config/stm32f4xx_rcc.c ****   *            @arg RCC_MCO2Div_3: division by 3 applied to MCO2 clock
 577:emWin/config/stm32f4xx_rcc.c ****   *            @arg RCC_MCO2Div_4: division by 4 applied to MCO2 clock
 578:emWin/config/stm32f4xx_rcc.c ****   *            @arg RCC_MCO2Div_5: division by 5 applied to MCO2 clock
 579:emWin/config/stm32f4xx_rcc.c ****   * @retval None
 580:emWin/config/stm32f4xx_rcc.c ****   */
 581:emWin/config/stm32f4xx_rcc.c **** void RCC_MCO2Config(uint32_t RCC_MCO2Source, uint32_t RCC_MCO2Div)
 582:emWin/config/stm32f4xx_rcc.c **** {
 752              		.loc 1 582 0
 753              		.cfi_startproc
 754              		@ args = 0, pretend = 0, frame = 0
 755              		@ frame_needed = 0, uses_anonymous_args = 0
 756              	.LVL55:
 757 0000 38B5     		push	{r3, r4, r5, lr}	@
 758              		.cfi_def_cfa_offset 16
 759              		.cfi_offset 3, -16
 760              		.cfi_offset 4, -12
 761              		.cfi_offset 5, -8
 762              		.cfi_offset 14, -4
 583:emWin/config/stm32f4xx_rcc.c ****   uint32_t tmpreg = 0;
 584:emWin/config/stm32f4xx_rcc.c ****   
ARM GAS  C:\cygwin\tmp\cclI5f77.s 			page 25


 585:emWin/config/stm32f4xx_rcc.c ****   /* Check the parameters */
 586:emWin/config/stm32f4xx_rcc.c ****   assert_param(IS_RCC_MCO2SOURCE(RCC_MCO2Source));
 763              		.loc 1 586 0
 764 0002 20F04043 		bic	r3, r0, #-1073741824	@ D.8404, RCC_MCO2Source,
 582:emWin/config/stm32f4xx_rcc.c ****   uint32_t tmpreg = 0;
 765              		.loc 1 582 0
 766 0006 0446     		mov	r4, r0	@ RCC_MCO2Source, RCC_MCO2Source
 767 0008 0D46     		mov	r5, r1	@ RCC_MCO2Div, RCC_MCO2Div
 768              		.loc 1 586 0
 769 000a 23B1     		cbz	r3, .L89	@ D.8404,
 770              		.loc 1 586 0 is_stmt 0 discriminator 4
 771 000c 0E48     		ldr	r0, .L103	@,
 772              	.LVL56:
 773 000e 40F24A21 		movw	r1, #586	@,
 774              	.LVL57:
 775 0012 FFF7FEFF 		bl	assert_failed	@
 776              	.LVL58:
 777              	.L89:
 587:emWin/config/stm32f4xx_rcc.c ****   assert_param(IS_RCC_MCO2DIV(RCC_MCO2Div));
 778              		.loc 1 587 0 is_stmt 1
 779 0016 35F00053 		bics	r3, r5, #536870912	@ tmp127, RCC_MCO2Div,
 780 001a 0CD0     		beq	.L90	@,
 781              		.loc 1 587 0 is_stmt 0 discriminator 2
 782 001c 25F08053 		bic	r3, r5, #268435456	@ D.8404, RCC_MCO2Div,
 783 0020 B3F1205F 		cmp	r3, #671088640	@ D.8404,
 784 0024 07D0     		beq	.L90	@,
 785              		.loc 1 587 0 discriminator 3
 786 0026 B5F1405F 		cmp	r5, #805306368	@ RCC_MCO2Div,
 787 002a 04D0     		beq	.L90	@,
 788              		.loc 1 587 0 discriminator 5
 789 002c 0648     		ldr	r0, .L103	@,
 790 002e 40F24B21 		movw	r1, #587	@,
 791 0032 FFF7FEFF 		bl	assert_failed	@
 792              	.LVL59:
 793              	.L90:
 588:emWin/config/stm32f4xx_rcc.c ****   
 589:emWin/config/stm32f4xx_rcc.c ****   tmpreg = RCC->CFGR;
 794              		.loc 1 589 0 is_stmt 1
 795 0036 054B     		ldr	r3, .L103+4	@ tmp124,
 796 0038 9968     		ldr	r1, [r3, #8]	@ tmpreg, MEM[(struct RCC_TypeDef *)1073887232B].CFGR
 797              	.LVL60:
 590:emWin/config/stm32f4xx_rcc.c ****   
 591:emWin/config/stm32f4xx_rcc.c ****   /* Clear MCO2 and MCO2PRE[2:0] bits */
 592:emWin/config/stm32f4xx_rcc.c ****   tmpreg &= CFGR_MCO2_RESET_MASK;
 798              		.loc 1 592 0
 799 003a 21F07841 		bic	r1, r1, #-134217728	@ tmpreg, tmpreg,
 800              	.LVL61:
 801 003e 2943     		orrs	r1, r1, r5	@, D.8404, tmpreg, RCC_MCO2Div
 802              	.LVL62:
 593:emWin/config/stm32f4xx_rcc.c **** 
 594:emWin/config/stm32f4xx_rcc.c ****   /* Select MCO2 clock source and prescaler */
 595:emWin/config/stm32f4xx_rcc.c ****   tmpreg |= RCC_MCO2Source | RCC_MCO2Div;
 803              		.loc 1 595 0
 804 0040 2143     		orrs	r1, r1, r4	@, tmpreg, D.8404, RCC_MCO2Source
 805              	.LVL63:
 596:emWin/config/stm32f4xx_rcc.c **** 
 597:emWin/config/stm32f4xx_rcc.c ****   /* Store the new value */
ARM GAS  C:\cygwin\tmp\cclI5f77.s 			page 26


 598:emWin/config/stm32f4xx_rcc.c ****   RCC->CFGR = tmpreg;  
 806              		.loc 1 598 0
 807 0042 9960     		str	r1, [r3, #8]	@ tmpreg, MEM[(struct RCC_TypeDef *)1073887232B].CFGR
 808 0044 38BD     		pop	{r3, r4, r5, pc}	@
 809              	.LVL64:
 810              	.L104:
 811 0046 00BF     		.align	2
 812              	.L103:
 813 0048 00000000 		.word	.LC0
 814 004c 00380240 		.word	1073887232
 815              		.cfi_endproc
 816              	.LFE136:
 817              		.size	RCC_MCO2Config, .-RCC_MCO2Config
 818              		.section	.text.RCC_SYSCLKConfig,"ax",%progbits
 819              		.align	1
 820              		.global	RCC_SYSCLKConfig
 821              		.thumb
 822              		.thumb_func
 823              		.type	RCC_SYSCLKConfig, %function
 824              	RCC_SYSCLKConfig:
 825              	.LFB137:
 599:emWin/config/stm32f4xx_rcc.c **** }
 600:emWin/config/stm32f4xx_rcc.c **** 
 601:emWin/config/stm32f4xx_rcc.c **** /**
 602:emWin/config/stm32f4xx_rcc.c ****   * @}
 603:emWin/config/stm32f4xx_rcc.c ****   */
 604:emWin/config/stm32f4xx_rcc.c **** 
 605:emWin/config/stm32f4xx_rcc.c **** /** @defgroup RCC_Group2 System AHB and APB busses clocks configuration functions
 606:emWin/config/stm32f4xx_rcc.c ****  *  @brief   System, AHB and APB busses clocks configuration functions
 607:emWin/config/stm32f4xx_rcc.c ****  *
 608:emWin/config/stm32f4xx_rcc.c **** @verbatim   
 609:emWin/config/stm32f4xx_rcc.c ****  ===============================================================================
 610:emWin/config/stm32f4xx_rcc.c ****              System, AHB and APB busses clocks configuration functions
 611:emWin/config/stm32f4xx_rcc.c ****  ===============================================================================  
 612:emWin/config/stm32f4xx_rcc.c **** 
 613:emWin/config/stm32f4xx_rcc.c ****   This section provide functions allowing to configure the System, AHB, APB1 and 
 614:emWin/config/stm32f4xx_rcc.c ****   APB2 busses clocks.
 615:emWin/config/stm32f4xx_rcc.c ****   
 616:emWin/config/stm32f4xx_rcc.c ****   1. Several clock sources can be used to drive the System clock (SYSCLK): HSI,
 617:emWin/config/stm32f4xx_rcc.c ****      HSE and PLL.
 618:emWin/config/stm32f4xx_rcc.c ****      The AHB clock (HCLK) is derived from System clock through configurable prescaler
 619:emWin/config/stm32f4xx_rcc.c ****      and used to clock the CPU, memory and peripherals mapped on AHB bus (DMA, GPIO...).
 620:emWin/config/stm32f4xx_rcc.c ****      APB1 (PCLK1) and APB2 (PCLK2) clocks are derived from AHB clock through 
 621:emWin/config/stm32f4xx_rcc.c ****      configurable prescalers and used to clock the peripherals mapped on these busses.
 622:emWin/config/stm32f4xx_rcc.c ****      You can use "RCC_GetClocksFreq()" function to retrieve the frequencies of these clocks.  
 623:emWin/config/stm32f4xx_rcc.c **** 
 624:emWin/config/stm32f4xx_rcc.c **** @note All the peripheral clocks are derived from the System clock (SYSCLK) except:
 625:emWin/config/stm32f4xx_rcc.c ****        - I2S: the I2S clock can be derived either from a specific PLL (PLLI2S) or
 626:emWin/config/stm32f4xx_rcc.c ****           from an external clock mapped on the I2S_CKIN pin. 
 627:emWin/config/stm32f4xx_rcc.c ****           You have to use RCC_I2SCLKConfig() function to configure this clock. 
 628:emWin/config/stm32f4xx_rcc.c ****        - RTC: the RTC clock can be derived either from the LSI, LSE or HSE clock
 629:emWin/config/stm32f4xx_rcc.c ****           divided by 2 to 31. You have to use RCC_RTCCLKConfig() and RCC_RTCCLKCmd()
 630:emWin/config/stm32f4xx_rcc.c ****           functions to configure this clock. 
 631:emWin/config/stm32f4xx_rcc.c ****        - USB OTG FS, SDIO and RTC: USB OTG FS require a frequency equal to 48 MHz
 632:emWin/config/stm32f4xx_rcc.c ****           to work correctly, while the SDIO require a frequency equal or lower than
 633:emWin/config/stm32f4xx_rcc.c ****           to 48. This clock is derived of the main PLL through PLLQ divider.
 634:emWin/config/stm32f4xx_rcc.c ****        - IWDG clock which is always the LSI clock.
ARM GAS  C:\cygwin\tmp\cclI5f77.s 			page 27


 635:emWin/config/stm32f4xx_rcc.c ****        
 636:emWin/config/stm32f4xx_rcc.c ****   2. The maximum frequency of the SYSCLK and HCLK is 168 MHz, PCLK2 82 MHz and PCLK1 42 MHz.
 637:emWin/config/stm32f4xx_rcc.c ****      Depending on the device voltage range, the maximum frequency should be 
 638:emWin/config/stm32f4xx_rcc.c ****      adapted accordingly:
 639:emWin/config/stm32f4xx_rcc.c ****  +-------------------------------------------------------------------------------------+     
 640:emWin/config/stm32f4xx_rcc.c ****  | Latency       |                HCLK clock frequency (MHz)                           |
 641:emWin/config/stm32f4xx_rcc.c ****  |               |---------------------------------------------------------------------|     
 642:emWin/config/stm32f4xx_rcc.c ****  |               | voltage range  | voltage range  | voltage range   | voltage range   |
 643:emWin/config/stm32f4xx_rcc.c ****  |               | 2.7 V - 3.6 V  | 2.4 V - 2.7 V  | 2.1 V - 2.4 V   | 1.8 V - 2.1 V   |
 644:emWin/config/stm32f4xx_rcc.c ****  |---------------|----------------|----------------|-----------------|-----------------|           
 645:emWin/config/stm32f4xx_rcc.c ****  |0WS(1CPU cycle)|0 < HCLK <= 30  |0 < HCLK <= 24  |0 < HCLK <= 18   |0 < HCLK <= 16   |
 646:emWin/config/stm32f4xx_rcc.c ****  |---------------|----------------|----------------|-----------------|-----------------|   
 647:emWin/config/stm32f4xx_rcc.c ****  |1WS(2CPU cycle)|30 < HCLK <= 60 |24 < HCLK <= 48 |18 < HCLK <= 36  |16 < HCLK <= 32  | 
 648:emWin/config/stm32f4xx_rcc.c ****  |---------------|----------------|----------------|-----------------|-----------------|   
 649:emWin/config/stm32f4xx_rcc.c ****  |2WS(3CPU cycle)|60 < HCLK <= 90 |48 < HCLK <= 72 |36 < HCLK <= 54  |32 < HCLK <= 48  |
 650:emWin/config/stm32f4xx_rcc.c ****  |---------------|----------------|----------------|-----------------|-----------------| 
 651:emWin/config/stm32f4xx_rcc.c ****  |3WS(4CPU cycle)|90 < HCLK <= 120|72 < HCLK <= 96 |54 < HCLK <= 72  |48 < HCLK <= 64  |
 652:emWin/config/stm32f4xx_rcc.c ****  |---------------|----------------|----------------|-----------------|-----------------| 
 653:emWin/config/stm32f4xx_rcc.c ****  |4WS(5CPU cycle)|120< HCLK <= 150|96 < HCLK <= 120|72 < HCLK <= 90  |64 < HCLK <= 80  |
 654:emWin/config/stm32f4xx_rcc.c ****  |---------------|----------------|----------------|-----------------|-----------------| 
 655:emWin/config/stm32f4xx_rcc.c ****  |5WS(6CPU cycle)|120< HCLK <= 168|120< HCLK <= 144|90 < HCLK <= 108 |80 < HCLK <= 96  | 
 656:emWin/config/stm32f4xx_rcc.c ****  |---------------|----------------|----------------|-----------------|-----------------| 
 657:emWin/config/stm32f4xx_rcc.c ****  |6WS(7CPU cycle)|      NA        |144< HCLK <= 168|108 < HCLK <= 120|96 < HCLK <= 112 | 
 658:emWin/config/stm32f4xx_rcc.c ****  |---------------|----------------|----------------|-----------------|-----------------| 
 659:emWin/config/stm32f4xx_rcc.c ****  |7WS(8CPU cycle)|      NA        |      NA        |120 < HCLK <= 138|112 < HCLK <= 120| 
 660:emWin/config/stm32f4xx_rcc.c ****  +-------------------------------------------------------------------------------------+    
 661:emWin/config/stm32f4xx_rcc.c ****    @note When VOS bit (in PWR_CR register) is reset to '0, the maximum value of HCLK is 144 MHz.
 662:emWin/config/stm32f4xx_rcc.c ****          You can use PWR_MainRegulatorModeConfig() function to set or reset this bit.
 663:emWin/config/stm32f4xx_rcc.c **** 
 664:emWin/config/stm32f4xx_rcc.c **** @endverbatim
 665:emWin/config/stm32f4xx_rcc.c ****   * @{
 666:emWin/config/stm32f4xx_rcc.c ****   */
 667:emWin/config/stm32f4xx_rcc.c **** 
 668:emWin/config/stm32f4xx_rcc.c **** /**
 669:emWin/config/stm32f4xx_rcc.c ****   * @brief  Configures the system clock (SYSCLK).
 670:emWin/config/stm32f4xx_rcc.c ****   * @note   The HSI is used (enabled by hardware) as system clock source after
 671:emWin/config/stm32f4xx_rcc.c ****   *         startup from Reset, wake-up from STOP and STANDBY mode, or in case
 672:emWin/config/stm32f4xx_rcc.c ****   *         of failure of the HSE used directly or indirectly as system clock
 673:emWin/config/stm32f4xx_rcc.c ****   *         (if the Clock Security System CSS is enabled).
 674:emWin/config/stm32f4xx_rcc.c ****   * @note   A switch from one clock source to another occurs only if the target
 675:emWin/config/stm32f4xx_rcc.c ****   *         clock source is ready (clock stable after startup delay or PLL locked). 
 676:emWin/config/stm32f4xx_rcc.c ****   *         If a clock source which is not yet ready is selected, the switch will
 677:emWin/config/stm32f4xx_rcc.c ****   *         occur when the clock source will be ready. 
 678:emWin/config/stm32f4xx_rcc.c ****   *         You can use RCC_GetSYSCLKSource() function to know which clock is
 679:emWin/config/stm32f4xx_rcc.c ****   *         currently used as system clock source. 
 680:emWin/config/stm32f4xx_rcc.c ****   * @param  RCC_SYSCLKSource: specifies the clock source used as system clock.
 681:emWin/config/stm32f4xx_rcc.c ****   *          This parameter can be one of the following values:
 682:emWin/config/stm32f4xx_rcc.c ****   *            @arg RCC_SYSCLKSource_HSI:    HSI selected as system clock source
 683:emWin/config/stm32f4xx_rcc.c ****   *            @arg RCC_SYSCLKSource_HSE:    HSE selected as system clock source
 684:emWin/config/stm32f4xx_rcc.c ****   *            @arg RCC_SYSCLKSource_PLLCLK: PLL selected as system clock source
 685:emWin/config/stm32f4xx_rcc.c ****   * @retval None
 686:emWin/config/stm32f4xx_rcc.c ****   */
 687:emWin/config/stm32f4xx_rcc.c **** void RCC_SYSCLKConfig(uint32_t RCC_SYSCLKSource)
 688:emWin/config/stm32f4xx_rcc.c **** {
 826              		.loc 1 688 0
 827              		.cfi_startproc
 828              		@ args = 0, pretend = 0, frame = 0
ARM GAS  C:\cygwin\tmp\cclI5f77.s 			page 28


 829              		@ frame_needed = 0, uses_anonymous_args = 0
 830              	.LVL65:
 689:emWin/config/stm32f4xx_rcc.c ****   uint32_t tmpreg = 0;
 690:emWin/config/stm32f4xx_rcc.c **** 
 691:emWin/config/stm32f4xx_rcc.c ****   /* Check the parameters */
 692:emWin/config/stm32f4xx_rcc.c ****   assert_param(IS_RCC_SYSCLK_SOURCE(RCC_SYSCLKSource));
 831              		.loc 1 692 0
 832 0000 0228     		cmp	r0, #2	@ RCC_SYSCLKSource,
 688:emWin/config/stm32f4xx_rcc.c ****   uint32_t tmpreg = 0;
 833              		.loc 1 688 0
 834 0002 10B5     		push	{r4, lr}	@
 835              		.cfi_def_cfa_offset 8
 836              		.cfi_offset 4, -8
 837              		.cfi_offset 14, -4
 688:emWin/config/stm32f4xx_rcc.c ****   uint32_t tmpreg = 0;
 838              		.loc 1 688 0
 839 0004 0446     		mov	r4, r0	@ RCC_SYSCLKSource, RCC_SYSCLKSource
 840              		.loc 1 692 0
 841 0006 04D9     		bls	.L106	@,
 842              		.loc 1 692 0 is_stmt 0 discriminator 1
 843 0008 0548     		ldr	r0, .L107	@,
 844              	.LVL66:
 845 000a 4FF42D71 		mov	r1, #692	@,
 846 000e FFF7FEFF 		bl	assert_failed	@
 847              	.LVL67:
 848              	.L106:
 693:emWin/config/stm32f4xx_rcc.c **** 
 694:emWin/config/stm32f4xx_rcc.c ****   tmpreg = RCC->CFGR;
 849              		.loc 1 694 0 is_stmt 1
 850 0012 044B     		ldr	r3, .L107+4	@ tmp115,
 851 0014 9868     		ldr	r0, [r3, #8]	@ tmpreg, MEM[(struct RCC_TypeDef *)1073887232B].CFGR
 852              	.LVL68:
 695:emWin/config/stm32f4xx_rcc.c **** 
 696:emWin/config/stm32f4xx_rcc.c ****   /* Clear SW[1:0] bits */
 697:emWin/config/stm32f4xx_rcc.c ****   tmpreg &= ~RCC_CFGR_SW;
 853              		.loc 1 697 0
 854 0016 20F00300 		bic	r0, r0, #3	@ tmpreg, tmpreg,
 855              	.LVL69:
 698:emWin/config/stm32f4xx_rcc.c **** 
 699:emWin/config/stm32f4xx_rcc.c ****   /* Set SW[1:0] bits according to RCC_SYSCLKSource value */
 700:emWin/config/stm32f4xx_rcc.c ****   tmpreg |= RCC_SYSCLKSource;
 856              		.loc 1 700 0
 857 001a 2043     		orrs	r0, r0, r4	@, tmpreg, tmpreg, RCC_SYSCLKSource
 858              	.LVL70:
 701:emWin/config/stm32f4xx_rcc.c **** 
 702:emWin/config/stm32f4xx_rcc.c ****   /* Store the new value */
 703:emWin/config/stm32f4xx_rcc.c ****   RCC->CFGR = tmpreg;
 859              		.loc 1 703 0
 860 001c 9860     		str	r0, [r3, #8]	@ tmpreg, MEM[(struct RCC_TypeDef *)1073887232B].CFGR
 861 001e 10BD     		pop	{r4, pc}	@
 862              	.LVL71:
 863              	.L108:
 864              		.align	2
 865              	.L107:
 866 0020 00000000 		.word	.LC0
 867 0024 00380240 		.word	1073887232
 868              		.cfi_endproc
ARM GAS  C:\cygwin\tmp\cclI5f77.s 			page 29


 869              	.LFE137:
 870              		.size	RCC_SYSCLKConfig, .-RCC_SYSCLKConfig
 871              		.section	.text.RCC_GetSYSCLKSource,"ax",%progbits
 872              		.align	1
 873              		.global	RCC_GetSYSCLKSource
 874              		.thumb
 875              		.thumb_func
 876              		.type	RCC_GetSYSCLKSource, %function
 877              	RCC_GetSYSCLKSource:
 878              	.LFB138:
 704:emWin/config/stm32f4xx_rcc.c **** }
 705:emWin/config/stm32f4xx_rcc.c **** 
 706:emWin/config/stm32f4xx_rcc.c **** /**
 707:emWin/config/stm32f4xx_rcc.c ****   * @brief  Returns the clock source used as system clock.
 708:emWin/config/stm32f4xx_rcc.c ****   * @param  None
 709:emWin/config/stm32f4xx_rcc.c ****   * @retval The clock source used as system clock. The returned value can be one
 710:emWin/config/stm32f4xx_rcc.c ****   *         of the following:
 711:emWin/config/stm32f4xx_rcc.c ****   *              - 0x00: HSI used as system clock
 712:emWin/config/stm32f4xx_rcc.c ****   *              - 0x04: HSE used as system clock
 713:emWin/config/stm32f4xx_rcc.c ****   *              - 0x08: PLL used as system clock
 714:emWin/config/stm32f4xx_rcc.c ****   */
 715:emWin/config/stm32f4xx_rcc.c **** uint8_t RCC_GetSYSCLKSource(void)
 716:emWin/config/stm32f4xx_rcc.c **** {
 879              		.loc 1 716 0
 880              		.cfi_startproc
 881              		@ args = 0, pretend = 0, frame = 0
 882              		@ frame_needed = 0, uses_anonymous_args = 0
 883              		@ link register save eliminated.
 717:emWin/config/stm32f4xx_rcc.c ****   return ((uint8_t)(RCC->CFGR & RCC_CFGR_SWS));
 884              		.loc 1 717 0
 885 0000 024B     		ldr	r3, .L110	@ tmp114,
 886 0002 9868     		ldr	r0, [r3, #8]	@ D.8409, MEM[(struct RCC_TypeDef *)1073887232B].CFGR
 718:emWin/config/stm32f4xx_rcc.c **** }
 887              		.loc 1 718 0
 888 0004 00F00C00 		and	r0, r0, #12	@, D.8409,
 889 0008 7047     		bx	lr	@
 890              	.L111:
 891 000a 00BF     		.align	2
 892              	.L110:
 893 000c 00380240 		.word	1073887232
 894              		.cfi_endproc
 895              	.LFE138:
 896              		.size	RCC_GetSYSCLKSource, .-RCC_GetSYSCLKSource
 897              		.section	.text.RCC_HCLKConfig,"ax",%progbits
 898              		.align	1
 899              		.global	RCC_HCLKConfig
 900              		.thumb
 901              		.thumb_func
 902              		.type	RCC_HCLKConfig, %function
 903              	RCC_HCLKConfig:
 904              	.LFB139:
 719:emWin/config/stm32f4xx_rcc.c **** 
 720:emWin/config/stm32f4xx_rcc.c **** /**
 721:emWin/config/stm32f4xx_rcc.c ****   * @brief  Configures the AHB clock (HCLK).
 722:emWin/config/stm32f4xx_rcc.c ****   * @note   Depending on the device voltage range, the software has to set correctly
 723:emWin/config/stm32f4xx_rcc.c ****   *         these bits to ensure that HCLK not exceed the maximum allowed frequency
 724:emWin/config/stm32f4xx_rcc.c ****   *         (for more details refer to section above
ARM GAS  C:\cygwin\tmp\cclI5f77.s 			page 30


 725:emWin/config/stm32f4xx_rcc.c ****   *           "CPU, AHB and APB busses clocks configuration functions")
 726:emWin/config/stm32f4xx_rcc.c ****   * @param  RCC_SYSCLK: defines the AHB clock divider. This clock is derived from 
 727:emWin/config/stm32f4xx_rcc.c ****   *         the system clock (SYSCLK).
 728:emWin/config/stm32f4xx_rcc.c ****   *          This parameter can be one of the following values:
 729:emWin/config/stm32f4xx_rcc.c ****   *            @arg RCC_SYSCLK_Div1: AHB clock = SYSCLK
 730:emWin/config/stm32f4xx_rcc.c ****   *            @arg RCC_SYSCLK_Div2: AHB clock = SYSCLK/2
 731:emWin/config/stm32f4xx_rcc.c ****   *            @arg RCC_SYSCLK_Div4: AHB clock = SYSCLK/4
 732:emWin/config/stm32f4xx_rcc.c ****   *            @arg RCC_SYSCLK_Div8: AHB clock = SYSCLK/8
 733:emWin/config/stm32f4xx_rcc.c ****   *            @arg RCC_SYSCLK_Div16: AHB clock = SYSCLK/16
 734:emWin/config/stm32f4xx_rcc.c ****   *            @arg RCC_SYSCLK_Div64: AHB clock = SYSCLK/64
 735:emWin/config/stm32f4xx_rcc.c ****   *            @arg RCC_SYSCLK_Div128: AHB clock = SYSCLK/128
 736:emWin/config/stm32f4xx_rcc.c ****   *            @arg RCC_SYSCLK_Div256: AHB clock = SYSCLK/256
 737:emWin/config/stm32f4xx_rcc.c ****   *            @arg RCC_SYSCLK_Div512: AHB clock = SYSCLK/512
 738:emWin/config/stm32f4xx_rcc.c ****   * @retval None
 739:emWin/config/stm32f4xx_rcc.c ****   */
 740:emWin/config/stm32f4xx_rcc.c **** void RCC_HCLKConfig(uint32_t RCC_SYSCLK)
 741:emWin/config/stm32f4xx_rcc.c **** {
 905              		.loc 1 741 0
 906              		.cfi_startproc
 907              		@ args = 0, pretend = 0, frame = 0
 908              		@ frame_needed = 0, uses_anonymous_args = 0
 909              	.LVL72:
 742:emWin/config/stm32f4xx_rcc.c ****   uint32_t tmpreg = 0;
 743:emWin/config/stm32f4xx_rcc.c ****   
 744:emWin/config/stm32f4xx_rcc.c ****   /* Check the parameters */
 745:emWin/config/stm32f4xx_rcc.c ****   assert_param(IS_RCC_HCLK(RCC_SYSCLK));
 910              		.loc 1 745 0
 911 0000 30F08003 		bics	r3, r0, #128	@ tmp125, RCC_SYSCLK,
 741:emWin/config/stm32f4xx_rcc.c ****   uint32_t tmpreg = 0;
 912              		.loc 1 741 0
 913 0004 10B5     		push	{r4, lr}	@
 914              		.cfi_def_cfa_offset 8
 915              		.cfi_offset 4, -8
 916              		.cfi_offset 14, -4
 741:emWin/config/stm32f4xx_rcc.c ****   uint32_t tmpreg = 0;
 917              		.loc 1 741 0
 918 0006 0446     		mov	r4, r0	@ RCC_SYSCLK, RCC_SYSCLK
 919              		.loc 1 745 0
 920 0008 12D0     		beq	.L113	@,
 921              		.loc 1 745 0 is_stmt 0 discriminator 2
 922 000a 20F02003 		bic	r3, r0, #32	@ D.8414, RCC_SYSCLK,
 923 000e 902B     		cmp	r3, #144	@ D.8414,
 924 0010 0ED0     		beq	.L113	@,
 925              		.loc 1 745 0 discriminator 3
 926 0012 20F04003 		bic	r3, r0, #64	@ D.8414, RCC_SYSCLK,
 927 0016 A02B     		cmp	r3, #160	@ D.8414,
 928 0018 0AD0     		beq	.L113	@,
 929              		.loc 1 745 0 discriminator 5
 930 001a 20F01003 		bic	r3, r0, #16	@ D.8414, RCC_SYSCLK,
 931 001e C02B     		cmp	r3, #192	@ D.8414,
 932 0020 06D0     		beq	.L113	@,
 933              		.loc 1 745 0 discriminator 8
 934 0022 F028     		cmp	r0, #240	@ RCC_SYSCLK,
 935 0024 04D0     		beq	.L113	@,
 936              		.loc 1 745 0 discriminator 9
 937 0026 0648     		ldr	r0, .L129	@,
 938              	.LVL73:
ARM GAS  C:\cygwin\tmp\cclI5f77.s 			page 31


 939 0028 40F2E921 		movw	r1, #745	@,
 940 002c FFF7FEFF 		bl	assert_failed	@
 941              	.LVL74:
 942              	.L113:
 746:emWin/config/stm32f4xx_rcc.c **** 
 747:emWin/config/stm32f4xx_rcc.c ****   tmpreg = RCC->CFGR;
 943              		.loc 1 747 0 is_stmt 1
 944 0030 044A     		ldr	r2, .L129+4	@ tmp123,
 945 0032 9368     		ldr	r3, [r2, #8]	@ tmpreg, MEM[(struct RCC_TypeDef *)1073887232B].CFGR
 946              	.LVL75:
 748:emWin/config/stm32f4xx_rcc.c **** 
 749:emWin/config/stm32f4xx_rcc.c ****   /* Clear HPRE[3:0] bits */
 750:emWin/config/stm32f4xx_rcc.c ****   tmpreg &= ~RCC_CFGR_HPRE;
 947              		.loc 1 750 0
 948 0034 23F0F003 		bic	r3, r3, #240	@ tmpreg, tmpreg,
 949              	.LVL76:
 751:emWin/config/stm32f4xx_rcc.c **** 
 752:emWin/config/stm32f4xx_rcc.c ****   /* Set HPRE[3:0] bits according to RCC_SYSCLK value */
 753:emWin/config/stm32f4xx_rcc.c ****   tmpreg |= RCC_SYSCLK;
 950              		.loc 1 753 0
 951 0038 1C43     		orrs	r4, r4, r3	@, tmpreg, RCC_SYSCLK, tmpreg
 952              	.LVL77:
 754:emWin/config/stm32f4xx_rcc.c **** 
 755:emWin/config/stm32f4xx_rcc.c ****   /* Store the new value */
 756:emWin/config/stm32f4xx_rcc.c ****   RCC->CFGR = tmpreg;
 953              		.loc 1 756 0
 954 003a 9460     		str	r4, [r2, #8]	@ tmpreg, MEM[(struct RCC_TypeDef *)1073887232B].CFGR
 955 003c 10BD     		pop	{r4, pc}	@
 956              	.LVL78:
 957              	.L130:
 958 003e 00BF     		.align	2
 959              	.L129:
 960 0040 00000000 		.word	.LC0
 961 0044 00380240 		.word	1073887232
 962              		.cfi_endproc
 963              	.LFE139:
 964              		.size	RCC_HCLKConfig, .-RCC_HCLKConfig
 965              		.section	.text.RCC_PCLK1Config,"ax",%progbits
 966              		.align	1
 967              		.global	RCC_PCLK1Config
 968              		.thumb
 969              		.thumb_func
 970              		.type	RCC_PCLK1Config, %function
 971              	RCC_PCLK1Config:
 972              	.LFB140:
 757:emWin/config/stm32f4xx_rcc.c **** }
 758:emWin/config/stm32f4xx_rcc.c **** 
 759:emWin/config/stm32f4xx_rcc.c **** 
 760:emWin/config/stm32f4xx_rcc.c **** /**
 761:emWin/config/stm32f4xx_rcc.c ****   * @brief  Configures the Low Speed APB clock (PCLK1).
 762:emWin/config/stm32f4xx_rcc.c ****   * @param  RCC_HCLK: defines the APB1 clock divider. This clock is derived from 
 763:emWin/config/stm32f4xx_rcc.c ****   *         the AHB clock (HCLK).
 764:emWin/config/stm32f4xx_rcc.c ****   *          This parameter can be one of the following values:
 765:emWin/config/stm32f4xx_rcc.c ****   *            @arg RCC_HCLK_Div1:  APB1 clock = HCLK
 766:emWin/config/stm32f4xx_rcc.c ****   *            @arg RCC_HCLK_Div2:  APB1 clock = HCLK/2
 767:emWin/config/stm32f4xx_rcc.c ****   *            @arg RCC_HCLK_Div4:  APB1 clock = HCLK/4
 768:emWin/config/stm32f4xx_rcc.c ****   *            @arg RCC_HCLK_Div8:  APB1 clock = HCLK/8
ARM GAS  C:\cygwin\tmp\cclI5f77.s 			page 32


 769:emWin/config/stm32f4xx_rcc.c ****   *            @arg RCC_HCLK_Div16: APB1 clock = HCLK/16
 770:emWin/config/stm32f4xx_rcc.c ****   * @retval None
 771:emWin/config/stm32f4xx_rcc.c ****   */
 772:emWin/config/stm32f4xx_rcc.c **** void RCC_PCLK1Config(uint32_t RCC_HCLK)
 773:emWin/config/stm32f4xx_rcc.c **** {
 973              		.loc 1 773 0
 974              		.cfi_startproc
 975              		@ args = 0, pretend = 0, frame = 0
 976              		@ frame_needed = 0, uses_anonymous_args = 0
 977              	.LVL79:
 774:emWin/config/stm32f4xx_rcc.c ****   uint32_t tmpreg = 0;
 775:emWin/config/stm32f4xx_rcc.c **** 
 776:emWin/config/stm32f4xx_rcc.c ****   /* Check the parameters */
 777:emWin/config/stm32f4xx_rcc.c ****   assert_param(IS_RCC_PCLK(RCC_HCLK));
 978              		.loc 1 777 0
 979 0000 30F48053 		bics	r3, r0, #4096	@ tmp121, RCC_HCLK,
 773:emWin/config/stm32f4xx_rcc.c ****   uint32_t tmpreg = 0;
 980              		.loc 1 773 0
 981 0004 10B5     		push	{r4, lr}	@
 982              		.cfi_def_cfa_offset 8
 983              		.cfi_offset 4, -8
 984              		.cfi_offset 14, -4
 773:emWin/config/stm32f4xx_rcc.c ****   uint32_t tmpreg = 0;
 985              		.loc 1 773 0
 986 0006 0446     		mov	r4, r0	@ RCC_HCLK, RCC_HCLK
 987              		.loc 1 777 0
 988 0008 0CD0     		beq	.L132	@,
 989              		.loc 1 777 0 is_stmt 0 discriminator 2
 990 000a 20F40063 		bic	r3, r0, #2048	@ D.8417, RCC_HCLK,
 991 000e B3F5A05F 		cmp	r3, #5120	@ D.8417,
 992 0012 07D0     		beq	.L132	@,
 993              		.loc 1 777 0 discriminator 3
 994 0014 B0F5C05F 		cmp	r0, #6144	@ RCC_HCLK,
 995 0018 04D0     		beq	.L132	@,
 996              		.loc 1 777 0 discriminator 5
 997 001a 0648     		ldr	r0, .L142	@,
 998              	.LVL80:
 999 001c 40F20931 		movw	r1, #777	@,
 1000 0020 FFF7FEFF 		bl	assert_failed	@
 1001              	.LVL81:
 1002              	.L132:
 778:emWin/config/stm32f4xx_rcc.c **** 
 779:emWin/config/stm32f4xx_rcc.c ****   tmpreg = RCC->CFGR;
 1003              		.loc 1 779 0 is_stmt 1
 1004 0024 044B     		ldr	r3, .L142+4	@ tmp119,
 1005 0026 9868     		ldr	r0, [r3, #8]	@ tmpreg, MEM[(struct RCC_TypeDef *)1073887232B].CFGR
 1006              	.LVL82:
 780:emWin/config/stm32f4xx_rcc.c **** 
 781:emWin/config/stm32f4xx_rcc.c ****   /* Clear PPRE1[2:0] bits */
 782:emWin/config/stm32f4xx_rcc.c ****   tmpreg &= ~RCC_CFGR_PPRE1;
 1007              		.loc 1 782 0
 1008 0028 20F4E050 		bic	r0, r0, #7168	@ tmpreg, tmpreg,
 1009              	.LVL83:
 783:emWin/config/stm32f4xx_rcc.c **** 
 784:emWin/config/stm32f4xx_rcc.c ****   /* Set PPRE1[2:0] bits according to RCC_HCLK value */
 785:emWin/config/stm32f4xx_rcc.c ****   tmpreg |= RCC_HCLK;
 1010              		.loc 1 785 0
ARM GAS  C:\cygwin\tmp\cclI5f77.s 			page 33


 1011 002c 2043     		orrs	r0, r0, r4	@, tmpreg, tmpreg, RCC_HCLK
 1012              	.LVL84:
 786:emWin/config/stm32f4xx_rcc.c **** 
 787:emWin/config/stm32f4xx_rcc.c ****   /* Store the new value */
 788:emWin/config/stm32f4xx_rcc.c ****   RCC->CFGR = tmpreg;
 1013              		.loc 1 788 0
 1014 002e 9860     		str	r0, [r3, #8]	@ tmpreg, MEM[(struct RCC_TypeDef *)1073887232B].CFGR
 1015 0030 10BD     		pop	{r4, pc}	@
 1016              	.LVL85:
 1017              	.L143:
 1018 0032 00BF     		.align	2
 1019              	.L142:
 1020 0034 00000000 		.word	.LC0
 1021 0038 00380240 		.word	1073887232
 1022              		.cfi_endproc
 1023              	.LFE140:
 1024              		.size	RCC_PCLK1Config, .-RCC_PCLK1Config
 1025              		.section	.text.RCC_PCLK2Config,"ax",%progbits
 1026              		.align	1
 1027              		.global	RCC_PCLK2Config
 1028              		.thumb
 1029              		.thumb_func
 1030              		.type	RCC_PCLK2Config, %function
 1031              	RCC_PCLK2Config:
 1032              	.LFB141:
 789:emWin/config/stm32f4xx_rcc.c **** }
 790:emWin/config/stm32f4xx_rcc.c **** 
 791:emWin/config/stm32f4xx_rcc.c **** /**
 792:emWin/config/stm32f4xx_rcc.c ****   * @brief  Configures the High Speed APB clock (PCLK2).
 793:emWin/config/stm32f4xx_rcc.c ****   * @param  RCC_HCLK: defines the APB2 clock divider. This clock is derived from 
 794:emWin/config/stm32f4xx_rcc.c ****   *         the AHB clock (HCLK).
 795:emWin/config/stm32f4xx_rcc.c ****   *          This parameter can be one of the following values:
 796:emWin/config/stm32f4xx_rcc.c ****   *            @arg RCC_HCLK_Div1:  APB2 clock = HCLK
 797:emWin/config/stm32f4xx_rcc.c ****   *            @arg RCC_HCLK_Div2:  APB2 clock = HCLK/2
 798:emWin/config/stm32f4xx_rcc.c ****   *            @arg RCC_HCLK_Div4:  APB2 clock = HCLK/4
 799:emWin/config/stm32f4xx_rcc.c ****   *            @arg RCC_HCLK_Div8:  APB2 clock = HCLK/8
 800:emWin/config/stm32f4xx_rcc.c ****   *            @arg RCC_HCLK_Div16: APB2 clock = HCLK/16
 801:emWin/config/stm32f4xx_rcc.c ****   * @retval None
 802:emWin/config/stm32f4xx_rcc.c ****   */
 803:emWin/config/stm32f4xx_rcc.c **** void RCC_PCLK2Config(uint32_t RCC_HCLK)
 804:emWin/config/stm32f4xx_rcc.c **** {
 1033              		.loc 1 804 0
 1034              		.cfi_startproc
 1035              		@ args = 0, pretend = 0, frame = 0
 1036              		@ frame_needed = 0, uses_anonymous_args = 0
 1037              	.LVL86:
 805:emWin/config/stm32f4xx_rcc.c ****   uint32_t tmpreg = 0;
 806:emWin/config/stm32f4xx_rcc.c **** 
 807:emWin/config/stm32f4xx_rcc.c ****   /* Check the parameters */
 808:emWin/config/stm32f4xx_rcc.c ****   assert_param(IS_RCC_PCLK(RCC_HCLK));
 1038              		.loc 1 808 0
 1039 0000 30F48053 		bics	r3, r0, #4096	@ tmp123, RCC_HCLK,
 804:emWin/config/stm32f4xx_rcc.c ****   uint32_t tmpreg = 0;
 1040              		.loc 1 804 0
 1041 0004 10B5     		push	{r4, lr}	@
 1042              		.cfi_def_cfa_offset 8
 1043              		.cfi_offset 4, -8
ARM GAS  C:\cygwin\tmp\cclI5f77.s 			page 34


 1044              		.cfi_offset 14, -4
 804:emWin/config/stm32f4xx_rcc.c ****   uint32_t tmpreg = 0;
 1045              		.loc 1 804 0
 1046 0006 0446     		mov	r4, r0	@ RCC_HCLK, RCC_HCLK
 1047              		.loc 1 808 0
 1048 0008 0CD0     		beq	.L145	@,
 1049              		.loc 1 808 0 is_stmt 0 discriminator 2
 1050 000a 20F40063 		bic	r3, r0, #2048	@ D.8420, RCC_HCLK,
 1051 000e B3F5A05F 		cmp	r3, #5120	@ D.8420,
 1052 0012 07D0     		beq	.L145	@,
 1053              		.loc 1 808 0 discriminator 3
 1054 0014 B0F5C05F 		cmp	r0, #6144	@ RCC_HCLK,
 1055 0018 04D0     		beq	.L145	@,
 1056              		.loc 1 808 0 discriminator 5
 1057 001a 0648     		ldr	r0, .L155	@,
 1058              	.LVL87:
 1059 001c 4FF44A71 		mov	r1, #808	@,
 1060 0020 FFF7FEFF 		bl	assert_failed	@
 1061              	.LVL88:
 1062              	.L145:
 809:emWin/config/stm32f4xx_rcc.c **** 
 810:emWin/config/stm32f4xx_rcc.c ****   tmpreg = RCC->CFGR;
 1063              		.loc 1 810 0 is_stmt 1
 1064 0024 044B     		ldr	r3, .L155+4	@ tmp120,
 1065 0026 9868     		ldr	r0, [r3, #8]	@ tmpreg, MEM[(struct RCC_TypeDef *)1073887232B].CFGR
 1066              	.LVL89:
 811:emWin/config/stm32f4xx_rcc.c **** 
 812:emWin/config/stm32f4xx_rcc.c ****   /* Clear PPRE2[2:0] bits */
 813:emWin/config/stm32f4xx_rcc.c ****   tmpreg &= ~RCC_CFGR_PPRE2;
 1067              		.loc 1 813 0
 1068 0028 20F46040 		bic	r0, r0, #57344	@ tmpreg, tmpreg,
 1069              	.LVL90:
 814:emWin/config/stm32f4xx_rcc.c **** 
 815:emWin/config/stm32f4xx_rcc.c ****   /* Set PPRE2[2:0] bits according to RCC_HCLK value */
 816:emWin/config/stm32f4xx_rcc.c ****   tmpreg |= RCC_HCLK << 3;
 1070              		.loc 1 816 0
 1071 002c 40EAC400 		orr	r0, r0, r4, lsl #3	@, tmpreg, tmpreg, RCC_HCLK,
 1072              	.LVL91:
 817:emWin/config/stm32f4xx_rcc.c **** 
 818:emWin/config/stm32f4xx_rcc.c ****   /* Store the new value */
 819:emWin/config/stm32f4xx_rcc.c ****   RCC->CFGR = tmpreg;
 1073              		.loc 1 819 0
 1074 0030 9860     		str	r0, [r3, #8]	@ tmpreg, MEM[(struct RCC_TypeDef *)1073887232B].CFGR
 1075 0032 10BD     		pop	{r4, pc}	@
 1076              	.LVL92:
 1077              	.L156:
 1078              		.align	2
 1079              	.L155:
 1080 0034 00000000 		.word	.LC0
 1081 0038 00380240 		.word	1073887232
 1082              		.cfi_endproc
 1083              	.LFE141:
 1084              		.size	RCC_PCLK2Config, .-RCC_PCLK2Config
 1085              		.section	.text.RCC_GetClocksFreq,"ax",%progbits
 1086              		.align	1
 1087              		.global	RCC_GetClocksFreq
 1088              		.thumb
ARM GAS  C:\cygwin\tmp\cclI5f77.s 			page 35


 1089              		.thumb_func
 1090              		.type	RCC_GetClocksFreq, %function
 1091              	RCC_GetClocksFreq:
 1092              	.LFB142:
 820:emWin/config/stm32f4xx_rcc.c **** }
 821:emWin/config/stm32f4xx_rcc.c **** 
 822:emWin/config/stm32f4xx_rcc.c **** /**
 823:emWin/config/stm32f4xx_rcc.c ****   * @brief  Returns the frequencies of different on chip clocks; SYSCLK, HCLK, 
 824:emWin/config/stm32f4xx_rcc.c ****   *         PCLK1 and PCLK2.       
 825:emWin/config/stm32f4xx_rcc.c ****   * 
 826:emWin/config/stm32f4xx_rcc.c ****   * @note   The system frequency computed by this function is not the real 
 827:emWin/config/stm32f4xx_rcc.c ****   *         frequency in the chip. It is calculated based on the predefined 
 828:emWin/config/stm32f4xx_rcc.c ****   *         constant and the selected clock source:
 829:emWin/config/stm32f4xx_rcc.c ****   * @note     If SYSCLK source is HSI, function returns values based on HSI_VALUE(*)
 830:emWin/config/stm32f4xx_rcc.c ****   * @note     If SYSCLK source is HSE, function returns values based on HSE_VALUE(**)
 831:emWin/config/stm32f4xx_rcc.c ****   * @note     If SYSCLK source is PLL, function returns values based on HSE_VALUE(**) 
 832:emWin/config/stm32f4xx_rcc.c ****   *           or HSI_VALUE(*) multiplied/divided by the PLL factors.         
 833:emWin/config/stm32f4xx_rcc.c ****   * @note     (*) HSI_VALUE is a constant defined in stm32f4xx.h file (default value
 834:emWin/config/stm32f4xx_rcc.c ****   *               16 MHz) but the real value may vary depending on the variations
 835:emWin/config/stm32f4xx_rcc.c ****   *               in voltage and temperature.
 836:emWin/config/stm32f4xx_rcc.c ****   * @note     (**) HSE_VALUE is a constant defined in stm32f4xx.h file (default value
 837:emWin/config/stm32f4xx_rcc.c ****   *                25 MHz), user has to ensure that HSE_VALUE is same as the real
 838:emWin/config/stm32f4xx_rcc.c ****   *                frequency of the crystal used. Otherwise, this function may
 839:emWin/config/stm32f4xx_rcc.c ****   *                have wrong result.
 840:emWin/config/stm32f4xx_rcc.c ****   *                
 841:emWin/config/stm32f4xx_rcc.c ****   * @note   The result of this function could be not correct when using fractional
 842:emWin/config/stm32f4xx_rcc.c ****   *         value for HSE crystal.
 843:emWin/config/stm32f4xx_rcc.c ****   *   
 844:emWin/config/stm32f4xx_rcc.c ****   * @param  RCC_Clocks: pointer to a RCC_ClocksTypeDef structure which will hold
 845:emWin/config/stm32f4xx_rcc.c ****   *          the clocks frequencies.
 846:emWin/config/stm32f4xx_rcc.c ****   *     
 847:emWin/config/stm32f4xx_rcc.c ****   * @note   This function can be used by the user application to compute the 
 848:emWin/config/stm32f4xx_rcc.c ****   *         baudrate for the communication peripherals or configure other parameters.
 849:emWin/config/stm32f4xx_rcc.c ****   * @note   Each time SYSCLK, HCLK, PCLK1 and/or PCLK2 clock changes, this function
 850:emWin/config/stm32f4xx_rcc.c ****   *         must be called to update the structure's field. Otherwise, any
 851:emWin/config/stm32f4xx_rcc.c ****   *         configuration based on this function will be incorrect.
 852:emWin/config/stm32f4xx_rcc.c ****   *    
 853:emWin/config/stm32f4xx_rcc.c ****   * @retval None
 854:emWin/config/stm32f4xx_rcc.c ****   */
 855:emWin/config/stm32f4xx_rcc.c **** void RCC_GetClocksFreq(RCC_ClocksTypeDef* RCC_Clocks)
 856:emWin/config/stm32f4xx_rcc.c **** {
 1093              		.loc 1 856 0
 1094              		.cfi_startproc
 1095              		@ args = 0, pretend = 0, frame = 0
 1096              		@ frame_needed = 0, uses_anonymous_args = 0
 1097              	.LVL93:
 857:emWin/config/stm32f4xx_rcc.c ****   uint32_t tmp = 0, presc = 0, pllvco = 0, pllp = 2, pllsource = 0, pllm = 2;
 858:emWin/config/stm32f4xx_rcc.c **** 
 859:emWin/config/stm32f4xx_rcc.c ****   /* Get SYSCLK source -------------------------------------------------------*/
 860:emWin/config/stm32f4xx_rcc.c ****   tmp = RCC->CFGR & RCC_CFGR_SWS;
 1098              		.loc 1 860 0
 1099 0000 1D4A     		ldr	r2, .L167	@ tmp152,
 1100 0002 9368     		ldr	r3, [r2, #8]	@ D.8423, MEM[(struct RCC_TypeDef *)1073887232B].CFGR
 1101              	.LVL94:
 1102 0004 03F00C03 		and	r3, r3, #12	@ tmp, D.8423,
 1103              	.LVL95:
 861:emWin/config/stm32f4xx_rcc.c **** 
ARM GAS  C:\cygwin\tmp\cclI5f77.s 			page 36


 862:emWin/config/stm32f4xx_rcc.c ****   switch (tmp)
 1104              		.loc 1 862 0
 1105 0008 042B     		cmp	r3, #4	@ tmp,
 856:emWin/config/stm32f4xx_rcc.c ****   uint32_t tmp = 0, presc = 0, pllvco = 0, pllp = 2, pllsource = 0, pllm = 2;
 1106              		.loc 1 856 0
 1107 000a 10B5     		push	{r4, lr}	@
 1108              		.cfi_def_cfa_offset 8
 1109              		.cfi_offset 4, -8
 1110              		.cfi_offset 14, -4
 1111              		.loc 1 862 0
 1112 000c 03D0     		beq	.L159	@,
 1113 000e 082B     		cmp	r3, #8	@ tmp,
 1114 0010 03D0     		beq	.L160	@,
 1115 0012 1A4B     		ldr	r3, .L167+4	@ tmp199,
 1116              	.LVL96:
 1117 0014 18E0     		b	.L166	@
 1118              	.LVL97:
 1119              	.L159:
 863:emWin/config/stm32f4xx_rcc.c ****   {
 864:emWin/config/stm32f4xx_rcc.c ****     case 0x00:  /* HSI used as system clock source */
 865:emWin/config/stm32f4xx_rcc.c ****       RCC_Clocks->SYSCLK_Frequency = HSI_VALUE;
 866:emWin/config/stm32f4xx_rcc.c ****       break;
 867:emWin/config/stm32f4xx_rcc.c ****     case 0x04:  /* HSE used as system clock  source */
 868:emWin/config/stm32f4xx_rcc.c ****       RCC_Clocks->SYSCLK_Frequency = HSE_VALUE;
 1120              		.loc 1 868 0
 1121 0016 1A4B     		ldr	r3, .L167+8	@ tmp155,
 1122              	.LVL98:
 1123 0018 16E0     		b	.L166	@
 1124              	.LVL99:
 1125              	.L160:
 869:emWin/config/stm32f4xx_rcc.c ****       break;
 870:emWin/config/stm32f4xx_rcc.c ****     case 0x08:  /* PLL used as system clock  source */
 871:emWin/config/stm32f4xx_rcc.c **** 
 872:emWin/config/stm32f4xx_rcc.c ****       /* PLL_VCO = (HSE_VALUE or HSI_VALUE / PLLM) * PLLN
 873:emWin/config/stm32f4xx_rcc.c ****          SYSCLK = PLL_VCO / PLLP
 874:emWin/config/stm32f4xx_rcc.c ****          */    
 875:emWin/config/stm32f4xx_rcc.c ****       pllsource = (RCC->PLLCFGR & RCC_PLLCFGR_PLLSRC) >> 22;
 1126              		.loc 1 875 0
 1127 001a 5168     		ldr	r1, [r2, #4]	@ D.8423, MEM[(struct RCC_TypeDef *)1073887232B].PLLCFGR
 1128              	.LVL100:
 876:emWin/config/stm32f4xx_rcc.c ****       pllm = RCC->PLLCFGR & RCC_PLLCFGR_PLLM;
 1129              		.loc 1 876 0
 1130 001c 5368     		ldr	r3, [r2, #4]	@ D.8423, MEM[(struct RCC_TypeDef *)1073887232B].PLLCFGR
 1131              	.LVL101:
 877:emWin/config/stm32f4xx_rcc.c ****       
 878:emWin/config/stm32f4xx_rcc.c ****       if (pllsource != 0)
 1132              		.loc 1 878 0
 1133 001e 11F4800F 		tst	r1, #4194304	@ D.8423,
 876:emWin/config/stm32f4xx_rcc.c ****       pllm = RCC->PLLCFGR & RCC_PLLCFGR_PLLM;
 1134              		.loc 1 876 0
 1135 0022 03F03F03 		and	r3, r3, #63	@ pllm, D.8423,
 1136              	.LVL102:
 879:emWin/config/stm32f4xx_rcc.c ****       {
 880:emWin/config/stm32f4xx_rcc.c ****         /* HSE used as PLL clock source */
 881:emWin/config/stm32f4xx_rcc.c ****         pllvco = (HSE_VALUE / pllm) * ((RCC->PLLCFGR & RCC_PLLCFGR_PLLN) >> 6);
 1137              		.loc 1 881 0
 1138 0026 5168     		ldr	r1, [r2, #4]	@ D.8423,
ARM GAS  C:\cygwin\tmp\cclI5f77.s 			page 37


 1139              	.LVL103:
 1140 0028 14BF     		ite	ne
 1141 002a 154A     		ldrne	r2, .L167+8	@ tmp166,
 882:emWin/config/stm32f4xx_rcc.c ****       }
 883:emWin/config/stm32f4xx_rcc.c ****       else
 884:emWin/config/stm32f4xx_rcc.c ****       {
 885:emWin/config/stm32f4xx_rcc.c ****         /* HSI used as PLL clock source */
 886:emWin/config/stm32f4xx_rcc.c ****         pllvco = (HSI_VALUE / pllm) * ((RCC->PLLCFGR & RCC_PLLCFGR_PLLN) >> 6);      
 1142              		.loc 1 886 0
 1143 002c 134A     		ldreq	r2, .L167+4	@ tmp173,
 1144 002e B2FBF3F3 		udiv	r3, r2, r3	@ D.8423, tmp173, pllm
 1145              	.LVL104:
 887:emWin/config/stm32f4xx_rcc.c ****       }
 888:emWin/config/stm32f4xx_rcc.c **** 
 889:emWin/config/stm32f4xx_rcc.c ****       pllp = (((RCC->PLLCFGR & RCC_PLLCFGR_PLLP) >>16) + 1 ) *2;
 1146              		.loc 1 889 0
 1147 0032 114A     		ldr	r2, .L167	@ tmp174,
 1148 0034 5268     		ldr	r2, [r2, #4]	@ D.8423, MEM[(struct RCC_TypeDef *)1073887232B].PLLCFGR
 1149 0036 C2F30142 		ubfx	r2, r2, #16, #2	@ D.8423, D.8423,,
 881:emWin/config/stm32f4xx_rcc.c ****       }
 1150              		.loc 1 881 0
 1151 003a C1F38811 		ubfx	r1, r1, #6, #9	@ D.8423, D.8423,,
 1152              		.loc 1 889 0
 1153 003e 0132     		adds	r2, r2, #1	@ D.8423, D.8423,
 886:emWin/config/stm32f4xx_rcc.c ****       }
 1154              		.loc 1 886 0
 1155 0040 4B43     		muls	r3, r1, r3	@ pllvco, D.8423
 1156              	.LVL105:
 1157              		.loc 1 889 0
 1158 0042 5200     		lsls	r2, r2, #1	@ pllp, D.8423,
 890:emWin/config/stm32f4xx_rcc.c ****       RCC_Clocks->SYSCLK_Frequency = pllvco/pllp;
 1159              		.loc 1 890 0
 1160 0044 B3FBF2F3 		udiv	r3, r3, r2	@ D.8423, pllvco, pllp
 1161              	.LVL106:
 1162              	.L166:
 891:emWin/config/stm32f4xx_rcc.c ****       break;
 892:emWin/config/stm32f4xx_rcc.c ****     default:
 893:emWin/config/stm32f4xx_rcc.c ****       RCC_Clocks->SYSCLK_Frequency = HSI_VALUE;
 894:emWin/config/stm32f4xx_rcc.c ****       break;
 895:emWin/config/stm32f4xx_rcc.c ****   }
 896:emWin/config/stm32f4xx_rcc.c ****   /* Compute HCLK, PCLK1 and PCLK2 clocks frequencies ------------------------*/
 897:emWin/config/stm32f4xx_rcc.c **** 
 898:emWin/config/stm32f4xx_rcc.c ****   /* Get HCLK prescaler */
 899:emWin/config/stm32f4xx_rcc.c ****   tmp = RCC->CFGR & RCC_CFGR_HPRE;
 1163              		.loc 1 899 0
 1164 0048 0B4A     		ldr	r2, .L167	@ tmp181,
 890:emWin/config/stm32f4xx_rcc.c ****       RCC_Clocks->SYSCLK_Frequency = pllvco/pllp;
 1165              		.loc 1 890 0
 1166 004a 0360     		str	r3, [r0]	@ D.8423, RCC_Clocks_6(D)->SYSCLK_Frequency
 1167              		.loc 1 899 0
 1168 004c 9368     		ldr	r3, [r2, #8]	@ D.8423, MEM[(struct RCC_TypeDef *)1073887232B].CFGR
 1169              	.LVL107:
 900:emWin/config/stm32f4xx_rcc.c ****   tmp = tmp >> 4;
 901:emWin/config/stm32f4xx_rcc.c ****   presc = APBAHBPrescTable[tmp];
 1170              		.loc 1 901 0
 1171 004e 0D49     		ldr	r1, .L167+12	@ tmp182,
 900:emWin/config/stm32f4xx_rcc.c ****   tmp = tmp >> 4;
ARM GAS  C:\cygwin\tmp\cclI5f77.s 			page 38


 1172              		.loc 1 900 0
 1173 0050 C3F30313 		ubfx	r3, r3, #4, #4	@ tmp, D.8423,,
 1174              	.LVL108:
 1175              		.loc 1 901 0
 1176 0054 CC5C     		ldrb	r4, [r1, r3]	@ zero_extendqisi2	@ tmp185, APBAHBPrescTable
 1177              	.LVL109:
 902:emWin/config/stm32f4xx_rcc.c ****   /* HCLK clock frequency */
 903:emWin/config/stm32f4xx_rcc.c ****   RCC_Clocks->HCLK_Frequency = RCC_Clocks->SYSCLK_Frequency >> presc;
 1178              		.loc 1 903 0
 1179 0056 0368     		ldr	r3, [r0]	@ RCC_Clocks_6(D)->SYSCLK_Frequency, RCC_Clocks_6(D)->SYSCLK_Frequency
 1180              	.LVL110:
 1181 0058 E340     		lsrs	r3, r3, r4	@ D.8423, RCC_Clocks_6(D)->SYSCLK_Frequency, tmp185
 1182 005a 4360     		str	r3, [r0, #4]	@ D.8423, RCC_Clocks_6(D)->HCLK_Frequency
 904:emWin/config/stm32f4xx_rcc.c **** 
 905:emWin/config/stm32f4xx_rcc.c ****   /* Get PCLK1 prescaler */
 906:emWin/config/stm32f4xx_rcc.c ****   tmp = RCC->CFGR & RCC_CFGR_PPRE1;
 1183              		.loc 1 906 0
 1184 005c 9468     		ldr	r4, [r2, #8]	@ D.8423, MEM[(struct RCC_TypeDef *)1073887232B].CFGR
 1185              	.LVL111:
 907:emWin/config/stm32f4xx_rcc.c ****   tmp = tmp >> 10;
 1186              		.loc 1 907 0
 1187 005e C4F38224 		ubfx	r4, r4, #10, #3	@ tmp, D.8423,,
 1188              	.LVL112:
 908:emWin/config/stm32f4xx_rcc.c ****   presc = APBAHBPrescTable[tmp];
 1189              		.loc 1 908 0
 1190 0062 0C5D     		ldrb	r4, [r1, r4]	@ zero_extendqisi2	@ tmp191, APBAHBPrescTable
 1191              	.LVL113:
 909:emWin/config/stm32f4xx_rcc.c ****   /* PCLK1 clock frequency */
 910:emWin/config/stm32f4xx_rcc.c ****   RCC_Clocks->PCLK1_Frequency = RCC_Clocks->HCLK_Frequency >> presc;
 1192              		.loc 1 910 0
 1193 0064 23FA04F4 		lsr	r4, r3, r4	@ D.8423, D.8423, tmp191
 1194              	.LVL114:
 1195 0068 8460     		str	r4, [r0, #8]	@ D.8423, RCC_Clocks_6(D)->PCLK1_Frequency
 911:emWin/config/stm32f4xx_rcc.c **** 
 912:emWin/config/stm32f4xx_rcc.c ****   /* Get PCLK2 prescaler */
 913:emWin/config/stm32f4xx_rcc.c ****   tmp = RCC->CFGR & RCC_CFGR_PPRE2;
 1196              		.loc 1 913 0
 1197 006a 9268     		ldr	r2, [r2, #8]	@ D.8423, MEM[(struct RCC_TypeDef *)1073887232B].CFGR
 1198              	.LVL115:
 914:emWin/config/stm32f4xx_rcc.c ****   tmp = tmp >> 13;
 1199              		.loc 1 914 0
 1200 006c C2F34232 		ubfx	r2, r2, #13, #3	@ tmp, D.8423,,
 1201              	.LVL116:
 915:emWin/config/stm32f4xx_rcc.c ****   presc = APBAHBPrescTable[tmp];
 1202              		.loc 1 915 0
 1203 0070 8A5C     		ldrb	r2, [r1, r2]	@ zero_extendqisi2	@ tmp197, APBAHBPrescTable
 1204              	.LVL117:
 916:emWin/config/stm32f4xx_rcc.c ****   /* PCLK2 clock frequency */
 917:emWin/config/stm32f4xx_rcc.c ****   RCC_Clocks->PCLK2_Frequency = RCC_Clocks->HCLK_Frequency >> presc;
 1205              		.loc 1 917 0
 1206 0072 D340     		lsrs	r3, r3, r2	@ D.8423, D.8423, tmp197
 1207 0074 C360     		str	r3, [r0, #12]	@ D.8423, RCC_Clocks_6(D)->PCLK2_Frequency
 1208 0076 10BD     		pop	{r4, pc}	@
 1209              	.L168:
 1210              		.align	2
 1211              	.L167:
 1212 0078 00380240 		.word	1073887232
ARM GAS  C:\cygwin\tmp\cclI5f77.s 			page 39


 1213 007c 0024F400 		.word	16000000
 1214 0080 00127A00 		.word	8000000
 1215 0084 00000000 		.word	.LANCHOR0
 1216              		.cfi_endproc
 1217              	.LFE142:
 1218              		.size	RCC_GetClocksFreq, .-RCC_GetClocksFreq
 1219              		.section	.text.RCC_RTCCLKConfig,"ax",%progbits
 1220              		.align	1
 1221              		.global	RCC_RTCCLKConfig
 1222              		.thumb
 1223              		.thumb_func
 1224              		.type	RCC_RTCCLKConfig, %function
 1225              	RCC_RTCCLKConfig:
 1226              	.LFB143:
 918:emWin/config/stm32f4xx_rcc.c **** }
 919:emWin/config/stm32f4xx_rcc.c **** 
 920:emWin/config/stm32f4xx_rcc.c **** /**
 921:emWin/config/stm32f4xx_rcc.c ****   * @}
 922:emWin/config/stm32f4xx_rcc.c ****   */
 923:emWin/config/stm32f4xx_rcc.c **** 
 924:emWin/config/stm32f4xx_rcc.c **** /** @defgroup RCC_Group3 Peripheral clocks configuration functions
 925:emWin/config/stm32f4xx_rcc.c ****  *  @brief   Peripheral clocks configuration functions 
 926:emWin/config/stm32f4xx_rcc.c ****  *
 927:emWin/config/stm32f4xx_rcc.c **** @verbatim   
 928:emWin/config/stm32f4xx_rcc.c ****  ===============================================================================
 929:emWin/config/stm32f4xx_rcc.c ****                    Peripheral clocks configuration functions
 930:emWin/config/stm32f4xx_rcc.c ****  ===============================================================================  
 931:emWin/config/stm32f4xx_rcc.c **** 
 932:emWin/config/stm32f4xx_rcc.c ****   This section provide functions allowing to configure the Peripheral clocks. 
 933:emWin/config/stm32f4xx_rcc.c ****   
 934:emWin/config/stm32f4xx_rcc.c ****   1. The RTC clock which is derived from the LSI, LSE or HSE clock divided by 2 to 31.
 935:emWin/config/stm32f4xx_rcc.c ****      
 936:emWin/config/stm32f4xx_rcc.c ****   2. After restart from Reset or wakeup from STANDBY, all peripherals are off
 937:emWin/config/stm32f4xx_rcc.c ****      except internal SRAM, Flash and JTAG. Before to start using a peripheral you
 938:emWin/config/stm32f4xx_rcc.c ****      have to enable its interface clock. You can do this using RCC_AHBPeriphClockCmd()
 939:emWin/config/stm32f4xx_rcc.c ****      , RCC_APB2PeriphClockCmd() and RCC_APB1PeriphClockCmd() functions.
 940:emWin/config/stm32f4xx_rcc.c **** 
 941:emWin/config/stm32f4xx_rcc.c ****   3. To reset the peripherals configuration (to the default state after device reset)
 942:emWin/config/stm32f4xx_rcc.c ****      you can use RCC_AHBPeriphResetCmd(), RCC_APB2PeriphResetCmd() and 
 943:emWin/config/stm32f4xx_rcc.c ****      RCC_APB1PeriphResetCmd() functions.
 944:emWin/config/stm32f4xx_rcc.c ****      
 945:emWin/config/stm32f4xx_rcc.c ****   4. To further reduce power consumption in SLEEP mode the peripheral clocks can
 946:emWin/config/stm32f4xx_rcc.c ****      be disabled prior to executing the WFI or WFE instructions. You can do this
 947:emWin/config/stm32f4xx_rcc.c ****      using RCC_AHBPeriphClockLPModeCmd(), RCC_APB2PeriphClockLPModeCmd() and
 948:emWin/config/stm32f4xx_rcc.c ****      RCC_APB1PeriphClockLPModeCmd() functions.  
 949:emWin/config/stm32f4xx_rcc.c **** 
 950:emWin/config/stm32f4xx_rcc.c **** @endverbatim
 951:emWin/config/stm32f4xx_rcc.c ****   * @{
 952:emWin/config/stm32f4xx_rcc.c ****   */
 953:emWin/config/stm32f4xx_rcc.c **** 
 954:emWin/config/stm32f4xx_rcc.c **** /**
 955:emWin/config/stm32f4xx_rcc.c ****   * @brief  Configures the RTC clock (RTCCLK).
 956:emWin/config/stm32f4xx_rcc.c ****   * @note   As the RTC clock configuration bits are in the Backup domain and write
 957:emWin/config/stm32f4xx_rcc.c ****   *         access is denied to this domain after reset, you have to enable write
 958:emWin/config/stm32f4xx_rcc.c ****   *         access using PWR_BackupAccessCmd(ENABLE) function before to configure
 959:emWin/config/stm32f4xx_rcc.c ****   *         the RTC clock source (to be done once after reset).    
 960:emWin/config/stm32f4xx_rcc.c ****   * @note   Once the RTC clock is configured it can't be changed unless the  
ARM GAS  C:\cygwin\tmp\cclI5f77.s 			page 40


 961:emWin/config/stm32f4xx_rcc.c ****   *         Backup domain is reset using RCC_BackupResetCmd() function, or by
 962:emWin/config/stm32f4xx_rcc.c ****   *         a Power On Reset (POR).
 963:emWin/config/stm32f4xx_rcc.c ****   *    
 964:emWin/config/stm32f4xx_rcc.c ****   * @param  RCC_RTCCLKSource: specifies the RTC clock source.
 965:emWin/config/stm32f4xx_rcc.c ****   *          This parameter can be one of the following values:
 966:emWin/config/stm32f4xx_rcc.c ****   *            @arg RCC_RTCCLKSource_LSE: LSE selected as RTC clock
 967:emWin/config/stm32f4xx_rcc.c ****   *            @arg RCC_RTCCLKSource_LSI: LSI selected as RTC clock
 968:emWin/config/stm32f4xx_rcc.c ****   *            @arg RCC_RTCCLKSource_HSE_Divx: HSE clock divided by x selected
 969:emWin/config/stm32f4xx_rcc.c ****   *                                            as RTC clock, where x:[2,31]
 970:emWin/config/stm32f4xx_rcc.c ****   *  
 971:emWin/config/stm32f4xx_rcc.c ****   * @note   If the LSE or LSI is used as RTC clock source, the RTC continues to
 972:emWin/config/stm32f4xx_rcc.c ****   *         work in STOP and STANDBY modes, and can be used as wakeup source.
 973:emWin/config/stm32f4xx_rcc.c ****   *         However, when the HSE clock is used as RTC clock source, the RTC
 974:emWin/config/stm32f4xx_rcc.c ****   *         cannot be used in STOP and STANDBY modes.    
 975:emWin/config/stm32f4xx_rcc.c ****   * @note   The maximum input clock frequency for RTC is 1MHz (when using HSE as
 976:emWin/config/stm32f4xx_rcc.c ****   *         RTC clock source).
 977:emWin/config/stm32f4xx_rcc.c ****   *  
 978:emWin/config/stm32f4xx_rcc.c ****   * @retval None
 979:emWin/config/stm32f4xx_rcc.c ****   */
 980:emWin/config/stm32f4xx_rcc.c **** void RCC_RTCCLKConfig(uint32_t RCC_RTCCLKSource)
 981:emWin/config/stm32f4xx_rcc.c **** {
 1227              		.loc 1 981 0
 1228              		.cfi_startproc
 1229              		@ args = 0, pretend = 0, frame = 0
 1230              		@ frame_needed = 0, uses_anonymous_args = 0
 1231              	.LVL118:
 982:emWin/config/stm32f4xx_rcc.c ****   uint32_t tmpreg = 0;
 983:emWin/config/stm32f4xx_rcc.c **** 
 984:emWin/config/stm32f4xx_rcc.c ****   /* Check the parameters */
 985:emWin/config/stm32f4xx_rcc.c ****   assert_param(IS_RCC_RTCCLK_SOURCE(RCC_RTCCLKSource));
 1232              		.loc 1 985 0
 1233 0000 B0F5807F 		cmp	r0, #256	@ RCC_RTCCLKSource,
 981:emWin/config/stm32f4xx_rcc.c ****   uint32_t tmpreg = 0;
 1234              		.loc 1 981 0
 1235 0004 10B5     		push	{r4, lr}	@
 1236              		.cfi_def_cfa_offset 8
 1237              		.cfi_offset 4, -8
 1238              		.cfi_offset 14, -4
 981:emWin/config/stm32f4xx_rcc.c ****   uint32_t tmpreg = 0;
 1239              		.loc 1 981 0
 1240 0006 0446     		mov	r4, r0	@ RCC_RTCCLKSource, RCC_RTCCLKSource
 1241              		.loc 1 985 0
 1242 0008 2ED0     		beq	.L170	@,
 1243              		.loc 1 985 0 is_stmt 0 discriminator 1
 1244 000a B0F5007F 		cmp	r0, #512	@ RCC_RTCCLKSource,
 1245 000e 2BD0     		beq	.L170	@,
 1246              		.loc 1 985 0 discriminator 2
 1247 0010 204B     		ldr	r3, .L178	@ tmp125,
 1248 0012 20F4A021 		bic	r1, r0, #327680	@ D.8428, RCC_RTCCLKSource,
 1249 0016 9942     		cmp	r1, r3	@ D.8428, tmp125
 1250 0018 20F48032 		bic	r2, r0, #65536	@ D.8428, RCC_RTCCLKSource,
 1251 001c 24D0     		beq	.L170	@,
 1252              		.loc 1 985 0 discriminator 4
 1253 001e 20F41021 		bic	r1, r0, #589824	@ D.8428, RCC_RTCCLKSource,
 1254 0022 03F50033 		add	r3, r3, #131072	@ tmp127, tmp127,
 1255 0026 9942     		cmp	r1, r3	@ D.8428, tmp127
 1256 0028 1ED0     		beq	.L170	@,
ARM GAS  C:\cygwin\tmp\cclI5f77.s 			page 41


 1257              		.loc 1 985 0 discriminator 8
 1258 002a 1B49     		ldr	r1, .L178+4	@ tmp128,
 1259 002c 20F44033 		bic	r3, r0, #196608	@ D.8428, RCC_RTCCLKSource,
 1260 0030 8B42     		cmp	r3, r1	@ D.8428, tmp128
 1261 0032 19D0     		beq	.L170	@,
 1262              		.loc 1 985 0 discriminator 14
 1263 0034 20F48810 		bic	r0, r0, #1114112	@ D.8428, RCC_RTCCLKSource,
 1264              	.LVL119:
 1265 0038 01F5C021 		add	r1, r1, #393216	@ tmp130, tmp130,
 1266 003c 8842     		cmp	r0, r1	@ D.8428, tmp130
 1267 003e 13D0     		beq	.L170	@,
 1268              		.loc 1 985 0 discriminator 16
 1269 0040 01F50031 		add	r1, r1, #131072	@ tmp131, tmp131,
 1270 0044 8B42     		cmp	r3, r1	@ D.8428, tmp131
 1271 0046 0FD0     		beq	.L170	@,
 1272              		.loc 1 985 0 discriminator 20
 1273 0048 01F58021 		add	r1, r1, #262144	@ tmp132, tmp132,
 1274 004c 8B42     		cmp	r3, r1	@ D.8428, tmp132
 1275 004e 0BD0     		beq	.L170	@,
 1276              		.loc 1 985 0 discriminator 24
 1277 0050 01F58021 		add	r1, r1, #262144	@ tmp133, tmp133,
 1278 0054 8B42     		cmp	r3, r1	@ D.8428, tmp133
 1279 0056 07D0     		beq	.L170	@,
 1280              		.loc 1 985 0 discriminator 28
 1281 0058 104B     		ldr	r3, .L178+8	@ tmp134,
 1282 005a 9A42     		cmp	r2, r3	@ D.8428, tmp134
 1283 005c 04D0     		beq	.L170	@,
 1284              		.loc 1 985 0 discriminator 32
 1285 005e 1048     		ldr	r0, .L178+12	@,
 1286 0060 40F2D931 		movw	r1, #985	@,
 1287 0064 FFF7FEFF 		bl	assert_failed	@
 1288              	.LVL120:
 1289              	.L170:
 986:emWin/config/stm32f4xx_rcc.c **** 
 987:emWin/config/stm32f4xx_rcc.c ****   if ((RCC_RTCCLKSource & 0x00000300) == 0x00000300)
 1290              		.loc 1 987 0 is_stmt 1
 1291 0068 04F44073 		and	r3, r4, #768	@ D.8428, RCC_RTCCLKSource,
 1292 006c 0D4A     		ldr	r2, .L178+16	@ tmp144,
 1293 006e B3F5407F 		cmp	r3, #768	@ D.8428,
 988:emWin/config/stm32f4xx_rcc.c ****   { /* If HSE is selected as RTC clock source, configure HSE division factor for RTC clock */
 989:emWin/config/stm32f4xx_rcc.c ****     tmpreg = RCC->CFGR;
 1294              		.loc 1 989 0
 1295 0072 01BF     		itttt	eq
 1296 0074 9368     		ldreq	r3, [r2, #8]	@ tmpreg, MEM[(struct RCC_TypeDef *)1073887232B].CFGR
 1297              	.LVL121:
 990:emWin/config/stm32f4xx_rcc.c **** 
 991:emWin/config/stm32f4xx_rcc.c ****     /* Clear RTCPRE[4:0] bits */
 992:emWin/config/stm32f4xx_rcc.c ****     tmpreg &= ~RCC_CFGR_RTCPRE;
 993:emWin/config/stm32f4xx_rcc.c **** 
 994:emWin/config/stm32f4xx_rcc.c ****     /* Configure HSE division factor for RTC clock */
 995:emWin/config/stm32f4xx_rcc.c ****     tmpreg |= (RCC_RTCCLKSource & 0xFFFFCFF);
 1298              		.loc 1 995 0
 1299 0076 24F07041 		biceq	r1, r4, #-268435456	@ D.8428, RCC_RTCCLKSource,
 992:emWin/config/stm32f4xx_rcc.c **** 
 1300              		.loc 1 992 0
 1301 007a 23F4F813 		biceq	r3, r3, #2031616	@ tmpreg, tmpreg,
 1302              	.LVL122:
ARM GAS  C:\cygwin\tmp\cclI5f77.s 			page 42


 1303              		.loc 1 995 0
 1304 007e 21F44071 		biceq	r1, r1, #768	@ D.8428, D.8428,
 1305 0082 04BF     		itt	eq
 1306 0084 0B43     		orreq	r3, r3, r1	@ tmpreg, tmpreg, D.8428
 1307              	.LVL123:
 996:emWin/config/stm32f4xx_rcc.c **** 
 997:emWin/config/stm32f4xx_rcc.c ****     /* Store the new value */
 998:emWin/config/stm32f4xx_rcc.c ****     RCC->CFGR = tmpreg;
 1308              		.loc 1 998 0
 1309 0086 9360     		streq	r3, [r2, #8]	@ tmpreg, MEM[(struct RCC_TypeDef *)1073887232B].CFGR
 999:emWin/config/stm32f4xx_rcc.c ****   }
1000:emWin/config/stm32f4xx_rcc.c ****     
1001:emWin/config/stm32f4xx_rcc.c ****   /* Select the RTC clock source */
1002:emWin/config/stm32f4xx_rcc.c ****   RCC->BDCR |= (RCC_RTCCLKSource & 0x00000FFF);
 1310              		.loc 1 1002 0
 1311 0088 136F     		ldr	r3, [r2, #112]	@ D.8428, MEM[(struct RCC_TypeDef *)1073887232B].BDCR
 1312              	.LVL124:
 1313 008a C4F30B04 		ubfx	r4, r4, #0, #12	@ D.8428, RCC_RTCCLKSource,,
 1314              	.LVL125:
 1315 008e 1C43     		orrs	r4, r4, r3	@, D.8428, D.8428, D.8428
 1316 0090 1467     		str	r4, [r2, #112]	@ D.8428, MEM[(struct RCC_TypeDef *)1073887232B].BDCR
 1317 0092 10BD     		pop	{r4, pc}	@
 1318              	.L179:
 1319              		.align	2
 1320              	.L178:
 1321 0094 00030200 		.word	131840
 1322 0098 00030800 		.word	525056
 1323 009c 00031C00 		.word	1835776
 1324 00a0 00000000 		.word	.LC0
 1325 00a4 00380240 		.word	1073887232
 1326              		.cfi_endproc
 1327              	.LFE143:
 1328              		.size	RCC_RTCCLKConfig, .-RCC_RTCCLKConfig
 1329              		.section	.text.RCC_RTCCLKCmd,"ax",%progbits
 1330              		.align	1
 1331              		.global	RCC_RTCCLKCmd
 1332              		.thumb
 1333              		.thumb_func
 1334              		.type	RCC_RTCCLKCmd, %function
 1335              	RCC_RTCCLKCmd:
 1336              	.LFB144:
1003:emWin/config/stm32f4xx_rcc.c **** }
1004:emWin/config/stm32f4xx_rcc.c **** 
1005:emWin/config/stm32f4xx_rcc.c **** /**
1006:emWin/config/stm32f4xx_rcc.c ****   * @brief  Enables or disables the RTC clock.
1007:emWin/config/stm32f4xx_rcc.c ****   * @note   This function must be used only after the RTC clock source was selected
1008:emWin/config/stm32f4xx_rcc.c ****   *         using the RCC_RTCCLKConfig function.
1009:emWin/config/stm32f4xx_rcc.c ****   * @param  NewState: new state of the RTC clock. This parameter can be: ENABLE or DISABLE.
1010:emWin/config/stm32f4xx_rcc.c ****   * @retval None
1011:emWin/config/stm32f4xx_rcc.c ****   */
1012:emWin/config/stm32f4xx_rcc.c **** void RCC_RTCCLKCmd(FunctionalState NewState)
1013:emWin/config/stm32f4xx_rcc.c **** {
 1337              		.loc 1 1013 0
 1338              		.cfi_startproc
 1339              		@ args = 0, pretend = 0, frame = 0
 1340              		@ frame_needed = 0, uses_anonymous_args = 0
 1341              	.LVL126:
ARM GAS  C:\cygwin\tmp\cclI5f77.s 			page 43


1014:emWin/config/stm32f4xx_rcc.c ****   /* Check the parameters */
1015:emWin/config/stm32f4xx_rcc.c ****   assert_param(IS_FUNCTIONAL_STATE(NewState));
 1342              		.loc 1 1015 0
 1343 0000 0128     		cmp	r0, #1	@ NewState,
1013:emWin/config/stm32f4xx_rcc.c ****   /* Check the parameters */
 1344              		.loc 1 1013 0
 1345 0002 10B5     		push	{r4, lr}	@
 1346              		.cfi_def_cfa_offset 8
 1347              		.cfi_offset 4, -8
 1348              		.cfi_offset 14, -4
1013:emWin/config/stm32f4xx_rcc.c ****   /* Check the parameters */
 1349              		.loc 1 1013 0
 1350 0004 0446     		mov	r4, r0	@ NewState, NewState
 1351              		.loc 1 1015 0
 1352 0006 04D9     		bls	.L181	@,
 1353              		.loc 1 1015 0 is_stmt 0 discriminator 1
 1354 0008 0348     		ldr	r0, .L182	@,
 1355              	.LVL127:
 1356 000a 40F2F731 		movw	r1, #1015	@,
 1357 000e FFF7FEFF 		bl	assert_failed	@
 1358              	.LVL128:
 1359              	.L181:
1016:emWin/config/stm32f4xx_rcc.c **** 
1017:emWin/config/stm32f4xx_rcc.c ****   *(__IO uint32_t *) BDCR_RTCEN_BB = (uint32_t)NewState;
 1360              		.loc 1 1017 0 is_stmt 1
 1361 0012 024B     		ldr	r3, .L182+4	@ tmp113,
 1362 0014 1C60     		str	r4, [r3]	@ NewState, MEM[(volatile uint32_t *)1111952956B]
 1363 0016 10BD     		pop	{r4, pc}	@
 1364              	.L183:
 1365              		.align	2
 1366              	.L182:
 1367 0018 00000000 		.word	.LC0
 1368 001c 3C0E4742 		.word	1111952956
 1369              		.cfi_endproc
 1370              	.LFE144:
 1371              		.size	RCC_RTCCLKCmd, .-RCC_RTCCLKCmd
 1372              		.section	.text.RCC_BackupResetCmd,"ax",%progbits
 1373              		.align	1
 1374              		.global	RCC_BackupResetCmd
 1375              		.thumb
 1376              		.thumb_func
 1377              		.type	RCC_BackupResetCmd, %function
 1378              	RCC_BackupResetCmd:
 1379              	.LFB145:
1018:emWin/config/stm32f4xx_rcc.c **** }
1019:emWin/config/stm32f4xx_rcc.c **** 
1020:emWin/config/stm32f4xx_rcc.c **** /**
1021:emWin/config/stm32f4xx_rcc.c ****   * @brief  Forces or releases the Backup domain reset.
1022:emWin/config/stm32f4xx_rcc.c ****   * @note   This function resets the RTC peripheral (including the backup registers)
1023:emWin/config/stm32f4xx_rcc.c ****   *         and the RTC clock source selection in RCC_CSR register.
1024:emWin/config/stm32f4xx_rcc.c ****   * @note   The BKPSRAM is not affected by this reset.    
1025:emWin/config/stm32f4xx_rcc.c ****   * @param  NewState: new state of the Backup domain reset.
1026:emWin/config/stm32f4xx_rcc.c ****   *          This parameter can be: ENABLE or DISABLE.
1027:emWin/config/stm32f4xx_rcc.c ****   * @retval None
1028:emWin/config/stm32f4xx_rcc.c ****   */
1029:emWin/config/stm32f4xx_rcc.c **** void RCC_BackupResetCmd(FunctionalState NewState)
1030:emWin/config/stm32f4xx_rcc.c **** {
ARM GAS  C:\cygwin\tmp\cclI5f77.s 			page 44


 1380              		.loc 1 1030 0
 1381              		.cfi_startproc
 1382              		@ args = 0, pretend = 0, frame = 0
 1383              		@ frame_needed = 0, uses_anonymous_args = 0
 1384              	.LVL129:
1031:emWin/config/stm32f4xx_rcc.c ****   /* Check the parameters */
1032:emWin/config/stm32f4xx_rcc.c ****   assert_param(IS_FUNCTIONAL_STATE(NewState));
 1385              		.loc 1 1032 0
 1386 0000 0128     		cmp	r0, #1	@ NewState,
1030:emWin/config/stm32f4xx_rcc.c ****   /* Check the parameters */
 1387              		.loc 1 1030 0
 1388 0002 10B5     		push	{r4, lr}	@
 1389              		.cfi_def_cfa_offset 8
 1390              		.cfi_offset 4, -8
 1391              		.cfi_offset 14, -4
1030:emWin/config/stm32f4xx_rcc.c ****   /* Check the parameters */
 1392              		.loc 1 1030 0
 1393 0004 0446     		mov	r4, r0	@ NewState, NewState
 1394              		.loc 1 1032 0
 1395 0006 04D9     		bls	.L185	@,
 1396              		.loc 1 1032 0 is_stmt 0 discriminator 1
 1397 0008 0348     		ldr	r0, .L186	@,
 1398              	.LVL130:
 1399 000a 4FF48161 		mov	r1, #1032	@,
 1400 000e FFF7FEFF 		bl	assert_failed	@
 1401              	.LVL131:
 1402              	.L185:
1033:emWin/config/stm32f4xx_rcc.c ****   *(__IO uint32_t *) BDCR_BDRST_BB = (uint32_t)NewState;
 1403              		.loc 1 1033 0 is_stmt 1
 1404 0012 024B     		ldr	r3, .L186+4	@ tmp113,
 1405 0014 1C60     		str	r4, [r3]	@ NewState, MEM[(volatile uint32_t *)1111952960B]
 1406 0016 10BD     		pop	{r4, pc}	@
 1407              	.L187:
 1408              		.align	2
 1409              	.L186:
 1410 0018 00000000 		.word	.LC0
 1411 001c 400E4742 		.word	1111952960
 1412              		.cfi_endproc
 1413              	.LFE145:
 1414              		.size	RCC_BackupResetCmd, .-RCC_BackupResetCmd
 1415              		.section	.text.RCC_I2SCLKConfig,"ax",%progbits
 1416              		.align	1
 1417              		.global	RCC_I2SCLKConfig
 1418              		.thumb
 1419              		.thumb_func
 1420              		.type	RCC_I2SCLKConfig, %function
 1421              	RCC_I2SCLKConfig:
 1422              	.LFB146:
1034:emWin/config/stm32f4xx_rcc.c **** }
1035:emWin/config/stm32f4xx_rcc.c **** 
1036:emWin/config/stm32f4xx_rcc.c **** /**
1037:emWin/config/stm32f4xx_rcc.c ****   * @brief  Configures the I2S clock source (I2SCLK).
1038:emWin/config/stm32f4xx_rcc.c ****   * @note   This function must be called before enabling the I2S APB clock.
1039:emWin/config/stm32f4xx_rcc.c ****   * @param  RCC_I2SCLKSource: specifies the I2S clock source.
1040:emWin/config/stm32f4xx_rcc.c ****   *          This parameter can be one of the following values:
1041:emWin/config/stm32f4xx_rcc.c ****   *            @arg RCC_I2S2CLKSource_PLLI2S: PLLI2S clock used as I2S clock source
1042:emWin/config/stm32f4xx_rcc.c ****   *            @arg RCC_I2S2CLKSource_Ext: External clock mapped on the I2S_CKIN pin
ARM GAS  C:\cygwin\tmp\cclI5f77.s 			page 45


1043:emWin/config/stm32f4xx_rcc.c ****   *                                        used as I2S clock source
1044:emWin/config/stm32f4xx_rcc.c ****   * @retval None
1045:emWin/config/stm32f4xx_rcc.c ****   */
1046:emWin/config/stm32f4xx_rcc.c **** void RCC_I2SCLKConfig(uint32_t RCC_I2SCLKSource)
1047:emWin/config/stm32f4xx_rcc.c **** {
 1423              		.loc 1 1047 0
 1424              		.cfi_startproc
 1425              		@ args = 0, pretend = 0, frame = 0
 1426              		@ frame_needed = 0, uses_anonymous_args = 0
 1427              	.LVL132:
1048:emWin/config/stm32f4xx_rcc.c ****   /* Check the parameters */
1049:emWin/config/stm32f4xx_rcc.c ****   assert_param(IS_RCC_I2SCLK_SOURCE(RCC_I2SCLKSource));
 1428              		.loc 1 1049 0
 1429 0000 0128     		cmp	r0, #1	@ RCC_I2SCLKSource,
1047:emWin/config/stm32f4xx_rcc.c ****   /* Check the parameters */
 1430              		.loc 1 1047 0
 1431 0002 10B5     		push	{r4, lr}	@
 1432              		.cfi_def_cfa_offset 8
 1433              		.cfi_offset 4, -8
 1434              		.cfi_offset 14, -4
1047:emWin/config/stm32f4xx_rcc.c ****   /* Check the parameters */
 1435              		.loc 1 1047 0
 1436 0004 0446     		mov	r4, r0	@ RCC_I2SCLKSource, RCC_I2SCLKSource
 1437              		.loc 1 1049 0
 1438 0006 04D9     		bls	.L189	@,
 1439              		.loc 1 1049 0 is_stmt 0 discriminator 1
 1440 0008 0348     		ldr	r0, .L190	@,
 1441              	.LVL133:
 1442 000a 40F21941 		movw	r1, #1049	@,
 1443 000e FFF7FEFF 		bl	assert_failed	@
 1444              	.LVL134:
 1445              	.L189:
1050:emWin/config/stm32f4xx_rcc.c **** 
1051:emWin/config/stm32f4xx_rcc.c ****   *(__IO uint32_t *) CFGR_I2SSRC_BB = RCC_I2SCLKSource;
 1446              		.loc 1 1051 0 is_stmt 1
 1447 0012 024B     		ldr	r3, .L190+4	@ tmp112,
 1448 0014 1C60     		str	r4, [r3]	@ RCC_I2SCLKSource, MEM[(volatile uint32_t *)1111949660B]
 1449 0016 10BD     		pop	{r4, pc}	@
 1450              	.LVL135:
 1451              	.L191:
 1452              		.align	2
 1453              	.L190:
 1454 0018 00000000 		.word	.LC0
 1455 001c 5C014742 		.word	1111949660
 1456              		.cfi_endproc
 1457              	.LFE146:
 1458              		.size	RCC_I2SCLKConfig, .-RCC_I2SCLKConfig
 1459              		.section	.text.RCC_AHB1PeriphClockCmd,"ax",%progbits
 1460              		.align	1
 1461              		.global	RCC_AHB1PeriphClockCmd
 1462              		.thumb
 1463              		.thumb_func
 1464              		.type	RCC_AHB1PeriphClockCmd, %function
 1465              	RCC_AHB1PeriphClockCmd:
 1466              	.LFB147:
1052:emWin/config/stm32f4xx_rcc.c **** }
1053:emWin/config/stm32f4xx_rcc.c **** 
ARM GAS  C:\cygwin\tmp\cclI5f77.s 			page 46


1054:emWin/config/stm32f4xx_rcc.c **** /**
1055:emWin/config/stm32f4xx_rcc.c ****   * @brief  Enables or disables the AHB1 peripheral clock.
1056:emWin/config/stm32f4xx_rcc.c ****   * @note   After reset, the peripheral clock (used for registers read/write access)
1057:emWin/config/stm32f4xx_rcc.c ****   *         is disabled and the application software has to enable this clock before 
1058:emWin/config/stm32f4xx_rcc.c ****   *         using it.   
1059:emWin/config/stm32f4xx_rcc.c ****   * @param  RCC_AHBPeriph: specifies the AHB1 peripheral to gates its clock.
1060:emWin/config/stm32f4xx_rcc.c ****   *          This parameter can be any combination of the following values:
1061:emWin/config/stm32f4xx_rcc.c ****   *            @arg RCC_AHB1Periph_GPIOA:       GPIOA clock
1062:emWin/config/stm32f4xx_rcc.c ****   *            @arg RCC_AHB1Periph_GPIOB:       GPIOB clock 
1063:emWin/config/stm32f4xx_rcc.c ****   *            @arg RCC_AHB1Periph_GPIOC:       GPIOC clock
1064:emWin/config/stm32f4xx_rcc.c ****   *            @arg RCC_AHB1Periph_GPIOD:       GPIOD clock
1065:emWin/config/stm32f4xx_rcc.c ****   *            @arg RCC_AHB1Periph_GPIOE:       GPIOE clock
1066:emWin/config/stm32f4xx_rcc.c ****   *            @arg RCC_AHB1Periph_GPIOF:       GPIOF clock
1067:emWin/config/stm32f4xx_rcc.c ****   *            @arg RCC_AHB1Periph_GPIOG:       GPIOG clock
1068:emWin/config/stm32f4xx_rcc.c ****   *            @arg RCC_AHB1Periph_GPIOG:       GPIOG clock
1069:emWin/config/stm32f4xx_rcc.c ****   *            @arg RCC_AHB1Periph_GPIOI:       GPIOI clock
1070:emWin/config/stm32f4xx_rcc.c ****   *            @arg RCC_AHB1Periph_CRC:         CRC clock
1071:emWin/config/stm32f4xx_rcc.c ****   *            @arg RCC_AHB1Periph_BKPSRAM:     BKPSRAM interface clock
1072:emWin/config/stm32f4xx_rcc.c ****   *            @arg RCC_AHB1Periph_CCMDATARAMEN CCM data RAM interface clock
1073:emWin/config/stm32f4xx_rcc.c ****   *            @arg RCC_AHB1Periph_DMA1:        DMA1 clock
1074:emWin/config/stm32f4xx_rcc.c ****   *            @arg RCC_AHB1Periph_DMA2:        DMA2 clock
1075:emWin/config/stm32f4xx_rcc.c ****   *            @arg RCC_AHB1Periph_ETH_MAC:     Ethernet MAC clock
1076:emWin/config/stm32f4xx_rcc.c ****   *            @arg RCC_AHB1Periph_ETH_MAC_Tx:  Ethernet Transmission clock
1077:emWin/config/stm32f4xx_rcc.c ****   *            @arg RCC_AHB1Periph_ETH_MAC_Rx:  Ethernet Reception clock
1078:emWin/config/stm32f4xx_rcc.c ****   *            @arg RCC_AHB1Periph_ETH_MAC_PTP: Ethernet PTP clock
1079:emWin/config/stm32f4xx_rcc.c ****   *            @arg RCC_AHB1Periph_OTG_HS:      USB OTG HS clock
1080:emWin/config/stm32f4xx_rcc.c ****   *            @arg RCC_AHB1Periph_OTG_HS_ULPI: USB OTG HS ULPI clock
1081:emWin/config/stm32f4xx_rcc.c ****   * @param  NewState: new state of the specified peripheral clock.
1082:emWin/config/stm32f4xx_rcc.c ****   *          This parameter can be: ENABLE or DISABLE.
1083:emWin/config/stm32f4xx_rcc.c ****   * @retval None
1084:emWin/config/stm32f4xx_rcc.c ****   */
1085:emWin/config/stm32f4xx_rcc.c **** void RCC_AHB1PeriphClockCmd(uint32_t RCC_AHB1Periph, FunctionalState NewState)
1086:emWin/config/stm32f4xx_rcc.c **** {
 1467              		.loc 1 1086 0
 1468              		.cfi_startproc
 1469              		@ args = 0, pretend = 0, frame = 0
 1470              		@ frame_needed = 0, uses_anonymous_args = 0
 1471              	.LVL136:
1087:emWin/config/stm32f4xx_rcc.c ****   /* Check the parameters */
1088:emWin/config/stm32f4xx_rcc.c ****   assert_param(IS_RCC_AHB1_CLOCK_PERIPH(RCC_AHB1Periph));
 1472              		.loc 1 1088 0
 1473 0000 0E4B     		ldr	r3, .L200	@ D.8439,
 1474 0002 0340     		ands	r3, r3, r0	@, D.8439, D.8439, RCC_AHB1Periph
1086:emWin/config/stm32f4xx_rcc.c ****   /* Check the parameters */
 1475              		.loc 1 1086 0
 1476 0004 70B5     		push	{r4, r5, r6, lr}	@
 1477              		.cfi_def_cfa_offset 16
 1478              		.cfi_offset 4, -16
 1479              		.cfi_offset 5, -12
 1480              		.cfi_offset 6, -8
 1481              		.cfi_offset 14, -4
1086:emWin/config/stm32f4xx_rcc.c ****   /* Check the parameters */
 1482              		.loc 1 1086 0
 1483 0006 0546     		mov	r5, r0	@ RCC_AHB1Periph, RCC_AHB1Periph
 1484 0008 0E46     		mov	r6, r1	@ NewState, NewState
 1485              		.loc 1 1088 0
 1486 000a 03B9     		cbnz	r3, .L193	@ D.8439,
ARM GAS  C:\cygwin\tmp\cclI5f77.s 			page 47


 1487              		.loc 1 1088 0 is_stmt 0 discriminator 2
 1488 000c 20B9     		cbnz	r0, .L194	@ RCC_AHB1Periph,
 1489              	.L193:
 1490              		.loc 1 1088 0 discriminator 3
 1491 000e 0C48     		ldr	r0, .L200+4	@,
 1492              	.LVL137:
 1493 0010 4FF48861 		mov	r1, #1088	@,
 1494              	.LVL138:
 1495 0014 FFF7FEFF 		bl	assert_failed	@
 1496              	.LVL139:
 1497              	.L194:
1089:emWin/config/stm32f4xx_rcc.c **** 
1090:emWin/config/stm32f4xx_rcc.c ****   assert_param(IS_FUNCTIONAL_STATE(NewState));
 1498              		.loc 1 1090 0 is_stmt 1
 1499 0018 012E     		cmp	r6, #1	@ NewState,
 1500 001a 0A4C     		ldr	r4, .L200+8	@ tmp127,
 1501 001c 05D9     		bls	.L195	@,
 1502              		.loc 1 1090 0 is_stmt 0 discriminator 1
 1503 001e 0848     		ldr	r0, .L200+4	@,
 1504 0020 40F24241 		movw	r1, #1090	@,
 1505 0024 FFF7FEFF 		bl	assert_failed	@
 1506              	.LVL140:
 1507 0028 00E0     		b	.L196	@
 1508              	.L195:
1091:emWin/config/stm32f4xx_rcc.c ****   if (NewState != DISABLE)
 1509              		.loc 1 1091 0 is_stmt 1
 1510 002a 16B1     		cbz	r6, .L197	@ NewState,
 1511              	.L196:
1092:emWin/config/stm32f4xx_rcc.c ****   {
1093:emWin/config/stm32f4xx_rcc.c ****     RCC->AHB1ENR |= RCC_AHB1Periph;
 1512              		.loc 1 1093 0
 1513 002c 236B     		ldr	r3, [r4, #48]	@ D.8439, MEM[(struct RCC_TypeDef *)1073887232B].AHB1ENR
 1514 002e 1D43     		orrs	r5, r5, r3	@, D.8439, RCC_AHB1Periph, D.8439
 1515              	.LVL141:
 1516 0030 02E0     		b	.L199	@
 1517              	.LVL142:
 1518              	.L197:
1094:emWin/config/stm32f4xx_rcc.c ****   }
1095:emWin/config/stm32f4xx_rcc.c ****   else
1096:emWin/config/stm32f4xx_rcc.c ****   {
1097:emWin/config/stm32f4xx_rcc.c ****     RCC->AHB1ENR &= ~RCC_AHB1Periph;
 1519              		.loc 1 1097 0
 1520 0032 236B     		ldr	r3, [r4, #48]	@ D.8439, MEM[(struct RCC_TypeDef *)1073887232B].AHB1ENR
 1521 0034 23EA0505 		bic	r5, r3, r5	@ D.8439, D.8439, RCC_AHB1Periph
 1522              	.LVL143:
 1523              	.L199:
 1524 0038 2563     		str	r5, [r4, #48]	@ D.8439,
 1525 003a 70BD     		pop	{r4, r5, r6, pc}	@
 1526              	.L201:
 1527              		.align	2
 1528              	.L200:
 1529 003c 00EE8B81 		.word	-2121536000
 1530 0040 00000000 		.word	.LC0
 1531 0044 00380240 		.word	1073887232
 1532              		.cfi_endproc
 1533              	.LFE147:
 1534              		.size	RCC_AHB1PeriphClockCmd, .-RCC_AHB1PeriphClockCmd
ARM GAS  C:\cygwin\tmp\cclI5f77.s 			page 48


 1535              		.section	.text.RCC_AHB2PeriphClockCmd,"ax",%progbits
 1536              		.align	1
 1537              		.global	RCC_AHB2PeriphClockCmd
 1538              		.thumb
 1539              		.thumb_func
 1540              		.type	RCC_AHB2PeriphClockCmd, %function
 1541              	RCC_AHB2PeriphClockCmd:
 1542              	.LFB148:
1098:emWin/config/stm32f4xx_rcc.c ****   }
1099:emWin/config/stm32f4xx_rcc.c **** }
1100:emWin/config/stm32f4xx_rcc.c **** 
1101:emWin/config/stm32f4xx_rcc.c **** /**
1102:emWin/config/stm32f4xx_rcc.c ****   * @brief  Enables or disables the AHB2 peripheral clock.
1103:emWin/config/stm32f4xx_rcc.c ****   * @note   After reset, the peripheral clock (used for registers read/write access)
1104:emWin/config/stm32f4xx_rcc.c ****   *         is disabled and the application software has to enable this clock before 
1105:emWin/config/stm32f4xx_rcc.c ****   *         using it. 
1106:emWin/config/stm32f4xx_rcc.c ****   * @param  RCC_AHBPeriph: specifies the AHB2 peripheral to gates its clock.
1107:emWin/config/stm32f4xx_rcc.c ****   *          This parameter can be any combination of the following values:
1108:emWin/config/stm32f4xx_rcc.c ****   *            @arg RCC_AHB2Periph_DCMI:   DCMI clock
1109:emWin/config/stm32f4xx_rcc.c ****   *            @arg RCC_AHB2Periph_CRYP:   CRYP clock
1110:emWin/config/stm32f4xx_rcc.c ****   *            @arg RCC_AHB2Periph_HASH:   HASH clock
1111:emWin/config/stm32f4xx_rcc.c ****   *            @arg RCC_AHB2Periph_RNG:    RNG clock
1112:emWin/config/stm32f4xx_rcc.c ****   *            @arg RCC_AHB2Periph_OTG_FS: USB OTG FS clock
1113:emWin/config/stm32f4xx_rcc.c ****   * @param  NewState: new state of the specified peripheral clock.
1114:emWin/config/stm32f4xx_rcc.c ****   *          This parameter can be: ENABLE or DISABLE.
1115:emWin/config/stm32f4xx_rcc.c ****   * @retval None
1116:emWin/config/stm32f4xx_rcc.c ****   */
1117:emWin/config/stm32f4xx_rcc.c **** void RCC_AHB2PeriphClockCmd(uint32_t RCC_AHB2Periph, FunctionalState NewState)
1118:emWin/config/stm32f4xx_rcc.c **** {
 1543              		.loc 1 1118 0
 1544              		.cfi_startproc
 1545              		@ args = 0, pretend = 0, frame = 0
 1546              		@ frame_needed = 0, uses_anonymous_args = 0
 1547              	.LVL144:
1119:emWin/config/stm32f4xx_rcc.c ****   /* Check the parameters */
1120:emWin/config/stm32f4xx_rcc.c ****   assert_param(IS_RCC_AHB2_PERIPH(RCC_AHB2Periph));
 1548              		.loc 1 1120 0
 1549 0000 30F0F103 		bics	r3, r0, #241	@ tmp127, RCC_AHB2Periph,
1118:emWin/config/stm32f4xx_rcc.c ****   /* Check the parameters */
 1550              		.loc 1 1118 0
 1551 0004 70B5     		push	{r4, r5, r6, lr}	@
 1552              		.cfi_def_cfa_offset 16
 1553              		.cfi_offset 4, -16
 1554              		.cfi_offset 5, -12
 1555              		.cfi_offset 6, -8
 1556              		.cfi_offset 14, -4
1118:emWin/config/stm32f4xx_rcc.c ****   /* Check the parameters */
 1557              		.loc 1 1118 0
 1558 0006 0546     		mov	r5, r0	@ RCC_AHB2Periph, RCC_AHB2Periph
 1559 0008 0E46     		mov	r6, r1	@ NewState, NewState
 1560              		.loc 1 1120 0
 1561 000a 00D1     		bne	.L203	@,
 1562              		.loc 1 1120 0 is_stmt 0 discriminator 2
 1563 000c 20B9     		cbnz	r0, .L204	@ RCC_AHB2Periph,
 1564              	.L203:
 1565              		.loc 1 1120 0 discriminator 3
 1566 000e 0B48     		ldr	r0, .L210	@,
ARM GAS  C:\cygwin\tmp\cclI5f77.s 			page 49


 1567              	.LVL145:
 1568 0010 4FF48C61 		mov	r1, #1120	@,
 1569              	.LVL146:
 1570 0014 FFF7FEFF 		bl	assert_failed	@
 1571              	.LVL147:
 1572              	.L204:
1121:emWin/config/stm32f4xx_rcc.c ****   assert_param(IS_FUNCTIONAL_STATE(NewState));
 1573              		.loc 1 1121 0 is_stmt 1
 1574 0018 012E     		cmp	r6, #1	@ NewState,
 1575 001a 094C     		ldr	r4, .L210+4	@ tmp126,
 1576 001c 05D9     		bls	.L205	@,
 1577              		.loc 1 1121 0 is_stmt 0 discriminator 1
 1578 001e 0748     		ldr	r0, .L210	@,
 1579 0020 40F26141 		movw	r1, #1121	@,
 1580 0024 FFF7FEFF 		bl	assert_failed	@
 1581              	.LVL148:
 1582 0028 00E0     		b	.L206	@
 1583              	.L205:
1122:emWin/config/stm32f4xx_rcc.c **** 
1123:emWin/config/stm32f4xx_rcc.c ****   if (NewState != DISABLE)
 1584              		.loc 1 1123 0 is_stmt 1
 1585 002a 16B1     		cbz	r6, .L207	@ NewState,
 1586              	.L206:
1124:emWin/config/stm32f4xx_rcc.c ****   {
1125:emWin/config/stm32f4xx_rcc.c ****     RCC->AHB2ENR |= RCC_AHB2Periph;
 1587              		.loc 1 1125 0
 1588 002c 636B     		ldr	r3, [r4, #52]	@ D.8442, MEM[(struct RCC_TypeDef *)1073887232B].AHB2ENR
 1589 002e 1D43     		orrs	r5, r5, r3	@, D.8442, RCC_AHB2Periph, D.8442
 1590              	.LVL149:
 1591 0030 02E0     		b	.L209	@
 1592              	.LVL150:
 1593              	.L207:
1126:emWin/config/stm32f4xx_rcc.c ****   }
1127:emWin/config/stm32f4xx_rcc.c ****   else
1128:emWin/config/stm32f4xx_rcc.c ****   {
1129:emWin/config/stm32f4xx_rcc.c ****     RCC->AHB2ENR &= ~RCC_AHB2Periph;
 1594              		.loc 1 1129 0
 1595 0032 636B     		ldr	r3, [r4, #52]	@ D.8442, MEM[(struct RCC_TypeDef *)1073887232B].AHB2ENR
 1596 0034 23EA0505 		bic	r5, r3, r5	@ D.8442, D.8442, RCC_AHB2Periph
 1597              	.LVL151:
 1598              	.L209:
 1599 0038 6563     		str	r5, [r4, #52]	@ D.8442,
 1600 003a 70BD     		pop	{r4, r5, r6, pc}	@
 1601              	.L211:
 1602              		.align	2
 1603              	.L210:
 1604 003c 00000000 		.word	.LC0
 1605 0040 00380240 		.word	1073887232
 1606              		.cfi_endproc
 1607              	.LFE148:
 1608              		.size	RCC_AHB2PeriphClockCmd, .-RCC_AHB2PeriphClockCmd
 1609              		.section	.text.RCC_AHB3PeriphClockCmd,"ax",%progbits
 1610              		.align	1
 1611              		.global	RCC_AHB3PeriphClockCmd
 1612              		.thumb
 1613              		.thumb_func
 1614              		.type	RCC_AHB3PeriphClockCmd, %function
ARM GAS  C:\cygwin\tmp\cclI5f77.s 			page 50


 1615              	RCC_AHB3PeriphClockCmd:
 1616              	.LFB149:
1130:emWin/config/stm32f4xx_rcc.c ****   }
1131:emWin/config/stm32f4xx_rcc.c **** }
1132:emWin/config/stm32f4xx_rcc.c **** 
1133:emWin/config/stm32f4xx_rcc.c **** /**
1134:emWin/config/stm32f4xx_rcc.c ****   * @brief  Enables or disables the AHB3 peripheral clock.
1135:emWin/config/stm32f4xx_rcc.c ****   * @note   After reset, the peripheral clock (used for registers read/write access)
1136:emWin/config/stm32f4xx_rcc.c ****   *         is disabled and the application software has to enable this clock before 
1137:emWin/config/stm32f4xx_rcc.c ****   *         using it. 
1138:emWin/config/stm32f4xx_rcc.c ****   * @param  RCC_AHBPeriph: specifies the AHB3 peripheral to gates its clock.
1139:emWin/config/stm32f4xx_rcc.c ****   *          This parameter must be: RCC_AHB3Periph_FSMC
1140:emWin/config/stm32f4xx_rcc.c ****   * @param  NewState: new state of the specified peripheral clock.
1141:emWin/config/stm32f4xx_rcc.c ****   *          This parameter can be: ENABLE or DISABLE.
1142:emWin/config/stm32f4xx_rcc.c ****   * @retval None
1143:emWin/config/stm32f4xx_rcc.c ****   */
1144:emWin/config/stm32f4xx_rcc.c **** void RCC_AHB3PeriphClockCmd(uint32_t RCC_AHB3Periph, FunctionalState NewState)
1145:emWin/config/stm32f4xx_rcc.c **** {
 1617              		.loc 1 1145 0
 1618              		.cfi_startproc
 1619              		@ args = 0, pretend = 0, frame = 0
 1620              		@ frame_needed = 0, uses_anonymous_args = 0
 1621              	.LVL152:
1146:emWin/config/stm32f4xx_rcc.c ****   /* Check the parameters */
1147:emWin/config/stm32f4xx_rcc.c ****   assert_param(IS_RCC_AHB3_PERIPH(RCC_AHB3Periph));  
 1622              		.loc 1 1147 0
 1623 0000 30F00103 		bics	r3, r0, #1	@ tmp127, RCC_AHB3Periph,
1145:emWin/config/stm32f4xx_rcc.c ****   /* Check the parameters */
 1624              		.loc 1 1145 0
 1625 0004 70B5     		push	{r4, r5, r6, lr}	@
 1626              		.cfi_def_cfa_offset 16
 1627              		.cfi_offset 4, -16
 1628              		.cfi_offset 5, -12
 1629              		.cfi_offset 6, -8
 1630              		.cfi_offset 14, -4
1145:emWin/config/stm32f4xx_rcc.c ****   /* Check the parameters */
 1631              		.loc 1 1145 0
 1632 0006 0546     		mov	r5, r0	@ RCC_AHB3Periph, RCC_AHB3Periph
 1633 0008 0E46     		mov	r6, r1	@ NewState, NewState
 1634              		.loc 1 1147 0
 1635 000a 00D1     		bne	.L213	@,
 1636              		.loc 1 1147 0 is_stmt 0 discriminator 2
 1637 000c 20B9     		cbnz	r0, .L214	@ RCC_AHB3Periph,
 1638              	.L213:
 1639              		.loc 1 1147 0 discriminator 3
 1640 000e 0B48     		ldr	r0, .L220	@,
 1641              	.LVL153:
 1642 0010 40F27B41 		movw	r1, #1147	@,
 1643              	.LVL154:
 1644 0014 FFF7FEFF 		bl	assert_failed	@
 1645              	.LVL155:
 1646              	.L214:
1148:emWin/config/stm32f4xx_rcc.c ****   assert_param(IS_FUNCTIONAL_STATE(NewState));
 1647              		.loc 1 1148 0 is_stmt 1
 1648 0018 012E     		cmp	r6, #1	@ NewState,
 1649 001a 094C     		ldr	r4, .L220+4	@ tmp126,
 1650 001c 05D9     		bls	.L215	@,
ARM GAS  C:\cygwin\tmp\cclI5f77.s 			page 51


 1651              		.loc 1 1148 0 is_stmt 0 discriminator 1
 1652 001e 0748     		ldr	r0, .L220	@,
 1653 0020 40F27C41 		movw	r1, #1148	@,
 1654 0024 FFF7FEFF 		bl	assert_failed	@
 1655              	.LVL156:
 1656 0028 00E0     		b	.L216	@
 1657              	.L215:
1149:emWin/config/stm32f4xx_rcc.c **** 
1150:emWin/config/stm32f4xx_rcc.c ****   if (NewState != DISABLE)
 1658              		.loc 1 1150 0 is_stmt 1
 1659 002a 16B1     		cbz	r6, .L217	@ NewState,
 1660              	.L216:
1151:emWin/config/stm32f4xx_rcc.c ****   {
1152:emWin/config/stm32f4xx_rcc.c ****     RCC->AHB3ENR |= RCC_AHB3Periph;
 1661              		.loc 1 1152 0
 1662 002c A36B     		ldr	r3, [r4, #56]	@ D.8445, MEM[(struct RCC_TypeDef *)1073887232B].AHB3ENR
 1663 002e 1D43     		orrs	r5, r5, r3	@, D.8445, RCC_AHB3Periph, D.8445
 1664              	.LVL157:
 1665 0030 02E0     		b	.L219	@
 1666              	.LVL158:
 1667              	.L217:
1153:emWin/config/stm32f4xx_rcc.c ****   }
1154:emWin/config/stm32f4xx_rcc.c ****   else
1155:emWin/config/stm32f4xx_rcc.c ****   {
1156:emWin/config/stm32f4xx_rcc.c ****     RCC->AHB3ENR &= ~RCC_AHB3Periph;
 1668              		.loc 1 1156 0
 1669 0032 A36B     		ldr	r3, [r4, #56]	@ D.8445, MEM[(struct RCC_TypeDef *)1073887232B].AHB3ENR
 1670 0034 23EA0505 		bic	r5, r3, r5	@ D.8445, D.8445, RCC_AHB3Periph
 1671              	.LVL159:
 1672              	.L219:
 1673 0038 A563     		str	r5, [r4, #56]	@ D.8445,
 1674 003a 70BD     		pop	{r4, r5, r6, pc}	@
 1675              	.L221:
 1676              		.align	2
 1677              	.L220:
 1678 003c 00000000 		.word	.LC0
 1679 0040 00380240 		.word	1073887232
 1680              		.cfi_endproc
 1681              	.LFE149:
 1682              		.size	RCC_AHB3PeriphClockCmd, .-RCC_AHB3PeriphClockCmd
 1683              		.section	.text.RCC_APB1PeriphClockCmd,"ax",%progbits
 1684              		.align	1
 1685              		.global	RCC_APB1PeriphClockCmd
 1686              		.thumb
 1687              		.thumb_func
 1688              		.type	RCC_APB1PeriphClockCmd, %function
 1689              	RCC_APB1PeriphClockCmd:
 1690              	.LFB150:
1157:emWin/config/stm32f4xx_rcc.c ****   }
1158:emWin/config/stm32f4xx_rcc.c **** }
1159:emWin/config/stm32f4xx_rcc.c **** 
1160:emWin/config/stm32f4xx_rcc.c **** /**
1161:emWin/config/stm32f4xx_rcc.c ****   * @brief  Enables or disables the Low Speed APB (APB1) peripheral clock.
1162:emWin/config/stm32f4xx_rcc.c ****   * @note   After reset, the peripheral clock (used for registers read/write access)
1163:emWin/config/stm32f4xx_rcc.c ****   *         is disabled and the application software has to enable this clock before 
1164:emWin/config/stm32f4xx_rcc.c ****   *         using it. 
1165:emWin/config/stm32f4xx_rcc.c ****   * @param  RCC_APB1Periph: specifies the APB1 peripheral to gates its clock.
ARM GAS  C:\cygwin\tmp\cclI5f77.s 			page 52


1166:emWin/config/stm32f4xx_rcc.c ****   *          This parameter can be any combination of the following values:
1167:emWin/config/stm32f4xx_rcc.c ****   *            @arg RCC_APB1Periph_TIM2:   TIM2 clock
1168:emWin/config/stm32f4xx_rcc.c ****   *            @arg RCC_APB1Periph_TIM3:   TIM3 clock
1169:emWin/config/stm32f4xx_rcc.c ****   *            @arg RCC_APB1Periph_TIM4:   TIM4 clock
1170:emWin/config/stm32f4xx_rcc.c ****   *            @arg RCC_APB1Periph_TIM5:   TIM5 clock
1171:emWin/config/stm32f4xx_rcc.c ****   *            @arg RCC_APB1Periph_TIM6:   TIM6 clock
1172:emWin/config/stm32f4xx_rcc.c ****   *            @arg RCC_APB1Periph_TIM7:   TIM7 clock
1173:emWin/config/stm32f4xx_rcc.c ****   *            @arg RCC_APB1Periph_TIM12:  TIM12 clock
1174:emWin/config/stm32f4xx_rcc.c ****   *            @arg RCC_APB1Periph_TIM13:  TIM13 clock
1175:emWin/config/stm32f4xx_rcc.c ****   *            @arg RCC_APB1Periph_TIM14:  TIM14 clock
1176:emWin/config/stm32f4xx_rcc.c ****   *            @arg RCC_APB1Periph_WWDG:   WWDG clock
1177:emWin/config/stm32f4xx_rcc.c ****   *            @arg RCC_APB1Periph_SPI2:   SPI2 clock
1178:emWin/config/stm32f4xx_rcc.c ****   *            @arg RCC_APB1Periph_SPI3:   SPI3 clock
1179:emWin/config/stm32f4xx_rcc.c ****   *            @arg RCC_APB1Periph_USART2: USART2 clock
1180:emWin/config/stm32f4xx_rcc.c ****   *            @arg RCC_APB1Periph_USART3: USART3 clock
1181:emWin/config/stm32f4xx_rcc.c ****   *            @arg RCC_APB1Periph_UART4:  UART4 clock
1182:emWin/config/stm32f4xx_rcc.c ****   *            @arg RCC_APB1Periph_UART5:  UART5 clock
1183:emWin/config/stm32f4xx_rcc.c ****   *            @arg RCC_APB1Periph_I2C1:   I2C1 clock
1184:emWin/config/stm32f4xx_rcc.c ****   *            @arg RCC_APB1Periph_I2C2:   I2C2 clock
1185:emWin/config/stm32f4xx_rcc.c ****   *            @arg RCC_APB1Periph_I2C3:   I2C3 clock
1186:emWin/config/stm32f4xx_rcc.c ****   *            @arg RCC_APB1Periph_CAN1:   CAN1 clock
1187:emWin/config/stm32f4xx_rcc.c ****   *            @arg RCC_APB1Periph_CAN2:   CAN2 clock
1188:emWin/config/stm32f4xx_rcc.c ****   *            @arg RCC_APB1Periph_PWR:    PWR clock
1189:emWin/config/stm32f4xx_rcc.c ****   *            @arg RCC_APB1Periph_DAC:    DAC clock
1190:emWin/config/stm32f4xx_rcc.c ****   * @param  NewState: new state of the specified peripheral clock.
1191:emWin/config/stm32f4xx_rcc.c ****   *          This parameter can be: ENABLE or DISABLE.
1192:emWin/config/stm32f4xx_rcc.c ****   * @retval None
1193:emWin/config/stm32f4xx_rcc.c ****   */
1194:emWin/config/stm32f4xx_rcc.c **** void RCC_APB1PeriphClockCmd(uint32_t RCC_APB1Periph, FunctionalState NewState)
1195:emWin/config/stm32f4xx_rcc.c **** {
 1691              		.loc 1 1195 0
 1692              		.cfi_startproc
 1693              		@ args = 0, pretend = 0, frame = 0
 1694              		@ frame_needed = 0, uses_anonymous_args = 0
 1695              	.LVL160:
1196:emWin/config/stm32f4xx_rcc.c ****   /* Check the parameters */
1197:emWin/config/stm32f4xx_rcc.c ****   assert_param(IS_RCC_APB1_PERIPH(RCC_APB1Periph));  
 1696              		.loc 1 1197 0
 1697 0000 0E4B     		ldr	r3, .L230	@ D.8448,
 1698 0002 0340     		ands	r3, r3, r0	@, D.8448, D.8448, RCC_APB1Periph
1195:emWin/config/stm32f4xx_rcc.c ****   /* Check the parameters */
 1699              		.loc 1 1195 0
 1700 0004 70B5     		push	{r4, r5, r6, lr}	@
 1701              		.cfi_def_cfa_offset 16
 1702              		.cfi_offset 4, -16
 1703              		.cfi_offset 5, -12
 1704              		.cfi_offset 6, -8
 1705              		.cfi_offset 14, -4
1195:emWin/config/stm32f4xx_rcc.c ****   /* Check the parameters */
 1706              		.loc 1 1195 0
 1707 0006 0546     		mov	r5, r0	@ RCC_APB1Periph, RCC_APB1Periph
 1708 0008 0E46     		mov	r6, r1	@ NewState, NewState
 1709              		.loc 1 1197 0
 1710 000a 03B9     		cbnz	r3, .L223	@ D.8448,
 1711              		.loc 1 1197 0 is_stmt 0 discriminator 2
 1712 000c 20B9     		cbnz	r0, .L224	@ RCC_APB1Periph,
 1713              	.L223:
ARM GAS  C:\cygwin\tmp\cclI5f77.s 			page 53


 1714              		.loc 1 1197 0 discriminator 3
 1715 000e 0C48     		ldr	r0, .L230+4	@,
 1716              	.LVL161:
 1717 0010 40F2AD41 		movw	r1, #1197	@,
 1718              	.LVL162:
 1719 0014 FFF7FEFF 		bl	assert_failed	@
 1720              	.LVL163:
 1721              	.L224:
1198:emWin/config/stm32f4xx_rcc.c ****   assert_param(IS_FUNCTIONAL_STATE(NewState));
 1722              		.loc 1 1198 0 is_stmt 1
 1723 0018 012E     		cmp	r6, #1	@ NewState,
 1724 001a 0A4C     		ldr	r4, .L230+8	@ tmp127,
 1725 001c 05D9     		bls	.L225	@,
 1726              		.loc 1 1198 0 is_stmt 0 discriminator 1
 1727 001e 0848     		ldr	r0, .L230+4	@,
 1728 0020 40F2AE41 		movw	r1, #1198	@,
 1729 0024 FFF7FEFF 		bl	assert_failed	@
 1730              	.LVL164:
 1731 0028 00E0     		b	.L226	@
 1732              	.L225:
1199:emWin/config/stm32f4xx_rcc.c **** 
1200:emWin/config/stm32f4xx_rcc.c ****   if (NewState != DISABLE)
 1733              		.loc 1 1200 0 is_stmt 1
 1734 002a 16B1     		cbz	r6, .L227	@ NewState,
 1735              	.L226:
1201:emWin/config/stm32f4xx_rcc.c ****   {
1202:emWin/config/stm32f4xx_rcc.c ****     RCC->APB1ENR |= RCC_APB1Periph;
 1736              		.loc 1 1202 0
 1737 002c 236C     		ldr	r3, [r4, #64]	@ D.8448, MEM[(struct RCC_TypeDef *)1073887232B].APB1ENR
 1738 002e 1D43     		orrs	r5, r5, r3	@, D.8448, RCC_APB1Periph, D.8448
 1739              	.LVL165:
 1740 0030 02E0     		b	.L229	@
 1741              	.LVL166:
 1742              	.L227:
1203:emWin/config/stm32f4xx_rcc.c ****   }
1204:emWin/config/stm32f4xx_rcc.c ****   else
1205:emWin/config/stm32f4xx_rcc.c ****   {
1206:emWin/config/stm32f4xx_rcc.c ****     RCC->APB1ENR &= ~RCC_APB1Periph;
 1743              		.loc 1 1206 0
 1744 0032 236C     		ldr	r3, [r4, #64]	@ D.8448, MEM[(struct RCC_TypeDef *)1073887232B].APB1ENR
 1745 0034 23EA0505 		bic	r5, r3, r5	@ D.8448, D.8448, RCC_APB1Periph
 1746              	.LVL167:
 1747              	.L229:
 1748 0038 2564     		str	r5, [r4, #64]	@ D.8448,
 1749 003a 70BD     		pop	{r4, r5, r6, pc}	@
 1750              	.L231:
 1751              		.align	2
 1752              	.L230:
 1753 003c 003601C9 		.word	-922667520
 1754 0040 00000000 		.word	.LC0
 1755 0044 00380240 		.word	1073887232
 1756              		.cfi_endproc
 1757              	.LFE150:
 1758              		.size	RCC_APB1PeriphClockCmd, .-RCC_APB1PeriphClockCmd
 1759              		.section	.text.RCC_APB2PeriphClockCmd,"ax",%progbits
 1760              		.align	1
 1761              		.global	RCC_APB2PeriphClockCmd
ARM GAS  C:\cygwin\tmp\cclI5f77.s 			page 54


 1762              		.thumb
 1763              		.thumb_func
 1764              		.type	RCC_APB2PeriphClockCmd, %function
 1765              	RCC_APB2PeriphClockCmd:
 1766              	.LFB151:
1207:emWin/config/stm32f4xx_rcc.c ****   }
1208:emWin/config/stm32f4xx_rcc.c **** }
1209:emWin/config/stm32f4xx_rcc.c **** 
1210:emWin/config/stm32f4xx_rcc.c **** /**
1211:emWin/config/stm32f4xx_rcc.c ****   * @brief  Enables or disables the High Speed APB (APB2) peripheral clock.
1212:emWin/config/stm32f4xx_rcc.c ****   * @note   After reset, the peripheral clock (used for registers read/write access)
1213:emWin/config/stm32f4xx_rcc.c ****   *         is disabled and the application software has to enable this clock before 
1214:emWin/config/stm32f4xx_rcc.c ****   *         using it.
1215:emWin/config/stm32f4xx_rcc.c ****   * @param  RCC_APB2Periph: specifies the APB2 peripheral to gates its clock.
1216:emWin/config/stm32f4xx_rcc.c ****   *          This parameter can be any combination of the following values:
1217:emWin/config/stm32f4xx_rcc.c ****   *            @arg RCC_APB2Periph_TIM1:   TIM1 clock
1218:emWin/config/stm32f4xx_rcc.c ****   *            @arg RCC_APB2Periph_TIM8:   TIM8 clock
1219:emWin/config/stm32f4xx_rcc.c ****   *            @arg RCC_APB2Periph_USART1: USART1 clock
1220:emWin/config/stm32f4xx_rcc.c ****   *            @arg RCC_APB2Periph_USART6: USART6 clock
1221:emWin/config/stm32f4xx_rcc.c ****   *            @arg RCC_APB2Periph_ADC1:   ADC1 clock
1222:emWin/config/stm32f4xx_rcc.c ****   *            @arg RCC_APB2Periph_ADC2:   ADC2 clock
1223:emWin/config/stm32f4xx_rcc.c ****   *            @arg RCC_APB2Periph_ADC3:   ADC3 clock
1224:emWin/config/stm32f4xx_rcc.c ****   *            @arg RCC_APB2Periph_SDIO:   SDIO clock
1225:emWin/config/stm32f4xx_rcc.c ****   *            @arg RCC_APB2Periph_SPI1:   SPI1 clock
1226:emWin/config/stm32f4xx_rcc.c ****   *            @arg RCC_APB2Periph_SYSCFG: SYSCFG clock
1227:emWin/config/stm32f4xx_rcc.c ****   *            @arg RCC_APB2Periph_TIM9:   TIM9 clock
1228:emWin/config/stm32f4xx_rcc.c ****   *            @arg RCC_APB2Periph_TIM10:  TIM10 clock
1229:emWin/config/stm32f4xx_rcc.c ****   *            @arg RCC_APB2Periph_TIM11:  TIM11 clock
1230:emWin/config/stm32f4xx_rcc.c ****   * @param  NewState: new state of the specified peripheral clock.
1231:emWin/config/stm32f4xx_rcc.c ****   *          This parameter can be: ENABLE or DISABLE.
1232:emWin/config/stm32f4xx_rcc.c ****   * @retval None
1233:emWin/config/stm32f4xx_rcc.c ****   */
1234:emWin/config/stm32f4xx_rcc.c **** void RCC_APB2PeriphClockCmd(uint32_t RCC_APB2Periph, FunctionalState NewState)
1235:emWin/config/stm32f4xx_rcc.c **** {
 1767              		.loc 1 1235 0
 1768              		.cfi_startproc
 1769              		@ args = 0, pretend = 0, frame = 0
 1770              		@ frame_needed = 0, uses_anonymous_args = 0
 1771              	.LVL168:
1236:emWin/config/stm32f4xx_rcc.c ****   /* Check the parameters */
1237:emWin/config/stm32f4xx_rcc.c ****   assert_param(IS_RCC_APB2_PERIPH(RCC_APB2Periph));
 1772              		.loc 1 1237 0
 1773 0000 0E4B     		ldr	r3, .L240	@ D.8451,
 1774 0002 0340     		ands	r3, r3, r0	@, D.8451, D.8451, RCC_APB2Periph
1235:emWin/config/stm32f4xx_rcc.c ****   /* Check the parameters */
 1775              		.loc 1 1235 0
 1776 0004 70B5     		push	{r4, r5, r6, lr}	@
 1777              		.cfi_def_cfa_offset 16
 1778              		.cfi_offset 4, -16
 1779              		.cfi_offset 5, -12
 1780              		.cfi_offset 6, -8
 1781              		.cfi_offset 14, -4
1235:emWin/config/stm32f4xx_rcc.c ****   /* Check the parameters */
 1782              		.loc 1 1235 0
 1783 0006 0546     		mov	r5, r0	@ RCC_APB2Periph, RCC_APB2Periph
 1784 0008 0E46     		mov	r6, r1	@ NewState, NewState
 1785              		.loc 1 1237 0
ARM GAS  C:\cygwin\tmp\cclI5f77.s 			page 55


 1786 000a 03B9     		cbnz	r3, .L233	@ D.8451,
 1787              		.loc 1 1237 0 is_stmt 0 discriminator 2
 1788 000c 20B9     		cbnz	r0, .L234	@ RCC_APB2Periph,
 1789              	.L233:
 1790              		.loc 1 1237 0 discriminator 3
 1791 000e 0C48     		ldr	r0, .L240+4	@,
 1792              	.LVL169:
 1793 0010 40F2D541 		movw	r1, #1237	@,
 1794              	.LVL170:
 1795 0014 FFF7FEFF 		bl	assert_failed	@
 1796              	.LVL171:
 1797              	.L234:
1238:emWin/config/stm32f4xx_rcc.c ****   assert_param(IS_FUNCTIONAL_STATE(NewState));
 1798              		.loc 1 1238 0 is_stmt 1
 1799 0018 012E     		cmp	r6, #1	@ NewState,
 1800 001a 0A4C     		ldr	r4, .L240+8	@ tmp127,
 1801 001c 05D9     		bls	.L235	@,
 1802              		.loc 1 1238 0 is_stmt 0 discriminator 1
 1803 001e 0848     		ldr	r0, .L240+4	@,
 1804 0020 40F2D641 		movw	r1, #1238	@,
 1805 0024 FFF7FEFF 		bl	assert_failed	@
 1806              	.LVL172:
 1807 0028 00E0     		b	.L236	@
 1808              	.L235:
1239:emWin/config/stm32f4xx_rcc.c **** 
1240:emWin/config/stm32f4xx_rcc.c ****   if (NewState != DISABLE)
 1809              		.loc 1 1240 0 is_stmt 1
 1810 002a 16B1     		cbz	r6, .L237	@ NewState,
 1811              	.L236:
1241:emWin/config/stm32f4xx_rcc.c ****   {
1242:emWin/config/stm32f4xx_rcc.c ****     RCC->APB2ENR |= RCC_APB2Periph;
 1812              		.loc 1 1242 0
 1813 002c 636C     		ldr	r3, [r4, #68]	@ D.8451, MEM[(struct RCC_TypeDef *)1073887232B].APB2ENR
 1814 002e 1D43     		orrs	r5, r5, r3	@, D.8451, RCC_APB2Periph, D.8451
 1815              	.LVL173:
 1816 0030 02E0     		b	.L239	@
 1817              	.LVL174:
 1818              	.L237:
1243:emWin/config/stm32f4xx_rcc.c ****   }
1244:emWin/config/stm32f4xx_rcc.c ****   else
1245:emWin/config/stm32f4xx_rcc.c ****   {
1246:emWin/config/stm32f4xx_rcc.c ****     RCC->APB2ENR &= ~RCC_APB2Periph;
 1819              		.loc 1 1246 0
 1820 0032 636C     		ldr	r3, [r4, #68]	@ D.8451, MEM[(struct RCC_TypeDef *)1073887232B].APB2ENR
 1821 0034 23EA0505 		bic	r5, r3, r5	@ D.8451, D.8451, RCC_APB2Periph
 1822              	.LVL175:
 1823              	.L239:
 1824 0038 6564     		str	r5, [r4, #68]	@ D.8451,
 1825 003a 70BD     		pop	{r4, r5, r6, pc}	@
 1826              	.L241:
 1827              		.align	2
 1828              	.L240:
 1829 003c CCA0F8FF 		.word	-483124
 1830 0040 00000000 		.word	.LC0
 1831 0044 00380240 		.word	1073887232
 1832              		.cfi_endproc
 1833              	.LFE151:
ARM GAS  C:\cygwin\tmp\cclI5f77.s 			page 56


 1834              		.size	RCC_APB2PeriphClockCmd, .-RCC_APB2PeriphClockCmd
 1835              		.section	.text.RCC_AHB1PeriphResetCmd,"ax",%progbits
 1836              		.align	1
 1837              		.global	RCC_AHB1PeriphResetCmd
 1838              		.thumb
 1839              		.thumb_func
 1840              		.type	RCC_AHB1PeriphResetCmd, %function
 1841              	RCC_AHB1PeriphResetCmd:
 1842              	.LFB152:
1247:emWin/config/stm32f4xx_rcc.c ****   }
1248:emWin/config/stm32f4xx_rcc.c **** }
1249:emWin/config/stm32f4xx_rcc.c **** 
1250:emWin/config/stm32f4xx_rcc.c **** /**
1251:emWin/config/stm32f4xx_rcc.c ****   * @brief  Forces or releases AHB1 peripheral reset.
1252:emWin/config/stm32f4xx_rcc.c ****   * @param  RCC_AHB1Periph: specifies the AHB1 peripheral to reset.
1253:emWin/config/stm32f4xx_rcc.c ****   *          This parameter can be any combination of the following values:
1254:emWin/config/stm32f4xx_rcc.c ****   *            @arg RCC_AHB1Periph_GPIOA:   GPIOA clock
1255:emWin/config/stm32f4xx_rcc.c ****   *            @arg RCC_AHB1Periph_GPIOB:   GPIOB clock 
1256:emWin/config/stm32f4xx_rcc.c ****   *            @arg RCC_AHB1Periph_GPIOC:   GPIOC clock
1257:emWin/config/stm32f4xx_rcc.c ****   *            @arg RCC_AHB1Periph_GPIOD:   GPIOD clock
1258:emWin/config/stm32f4xx_rcc.c ****   *            @arg RCC_AHB1Periph_GPIOE:   GPIOE clock
1259:emWin/config/stm32f4xx_rcc.c ****   *            @arg RCC_AHB1Periph_GPIOF:   GPIOF clock
1260:emWin/config/stm32f4xx_rcc.c ****   *            @arg RCC_AHB1Periph_GPIOG:   GPIOG clock
1261:emWin/config/stm32f4xx_rcc.c ****   *            @arg RCC_AHB1Periph_GPIOG:   GPIOG clock
1262:emWin/config/stm32f4xx_rcc.c ****   *            @arg RCC_AHB1Periph_GPIOI:   GPIOI clock
1263:emWin/config/stm32f4xx_rcc.c ****   *            @arg RCC_AHB1Periph_CRC:     CRC clock
1264:emWin/config/stm32f4xx_rcc.c ****   *            @arg RCC_AHB1Periph_DMA1:    DMA1 clock
1265:emWin/config/stm32f4xx_rcc.c ****   *            @arg RCC_AHB1Periph_DMA2:    DMA2 clock
1266:emWin/config/stm32f4xx_rcc.c ****   *            @arg RCC_AHB1Periph_ETH_MAC: Ethernet MAC clock
1267:emWin/config/stm32f4xx_rcc.c ****   *            @arg RCC_AHB1Periph_OTG_HS:  USB OTG HS clock
1268:emWin/config/stm32f4xx_rcc.c ****   *                  
1269:emWin/config/stm32f4xx_rcc.c ****   * @param  NewState: new state of the specified peripheral reset.
1270:emWin/config/stm32f4xx_rcc.c ****   *          This parameter can be: ENABLE or DISABLE.
1271:emWin/config/stm32f4xx_rcc.c ****   * @retval None
1272:emWin/config/stm32f4xx_rcc.c ****   */
1273:emWin/config/stm32f4xx_rcc.c **** void RCC_AHB1PeriphResetCmd(uint32_t RCC_AHB1Periph, FunctionalState NewState)
1274:emWin/config/stm32f4xx_rcc.c **** {
 1843              		.loc 1 1274 0
 1844              		.cfi_startproc
 1845              		@ args = 0, pretend = 0, frame = 0
 1846              		@ frame_needed = 0, uses_anonymous_args = 0
 1847              	.LVL176:
1275:emWin/config/stm32f4xx_rcc.c ****   /* Check the parameters */
1276:emWin/config/stm32f4xx_rcc.c ****   assert_param(IS_RCC_AHB1_RESET_PERIPH(RCC_AHB1Periph));
 1848              		.loc 1 1276 0
 1849 0000 0E4B     		ldr	r3, .L250	@ D.8454,
 1850 0002 0340     		ands	r3, r3, r0	@, D.8454, D.8454, RCC_AHB1Periph
1274:emWin/config/stm32f4xx_rcc.c ****   /* Check the parameters */
 1851              		.loc 1 1274 0
 1852 0004 70B5     		push	{r4, r5, r6, lr}	@
 1853              		.cfi_def_cfa_offset 16
 1854              		.cfi_offset 4, -16
 1855              		.cfi_offset 5, -12
 1856              		.cfi_offset 6, -8
 1857              		.cfi_offset 14, -4
1274:emWin/config/stm32f4xx_rcc.c ****   /* Check the parameters */
 1858              		.loc 1 1274 0
ARM GAS  C:\cygwin\tmp\cclI5f77.s 			page 57


 1859 0006 0546     		mov	r5, r0	@ RCC_AHB1Periph, RCC_AHB1Periph
 1860 0008 0E46     		mov	r6, r1	@ NewState, NewState
 1861              		.loc 1 1276 0
 1862 000a 03B9     		cbnz	r3, .L243	@ D.8454,
 1863              		.loc 1 1276 0 is_stmt 0 discriminator 2
 1864 000c 20B9     		cbnz	r0, .L244	@ RCC_AHB1Periph,
 1865              	.L243:
 1866              		.loc 1 1276 0 discriminator 3
 1867 000e 0C48     		ldr	r0, .L250+4	@,
 1868              	.LVL177:
 1869 0010 40F2FC41 		movw	r1, #1276	@,
 1870              	.LVL178:
 1871 0014 FFF7FEFF 		bl	assert_failed	@
 1872              	.LVL179:
 1873              	.L244:
1277:emWin/config/stm32f4xx_rcc.c ****   assert_param(IS_FUNCTIONAL_STATE(NewState));
 1874              		.loc 1 1277 0 is_stmt 1
 1875 0018 012E     		cmp	r6, #1	@ NewState,
 1876 001a 0A4C     		ldr	r4, .L250+8	@ tmp127,
 1877 001c 05D9     		bls	.L245	@,
 1878              		.loc 1 1277 0 is_stmt 0 discriminator 1
 1879 001e 0848     		ldr	r0, .L250+4	@,
 1880 0020 40F2FD41 		movw	r1, #1277	@,
 1881 0024 FFF7FEFF 		bl	assert_failed	@
 1882              	.LVL180:
 1883 0028 00E0     		b	.L246	@
 1884              	.L245:
1278:emWin/config/stm32f4xx_rcc.c **** 
1279:emWin/config/stm32f4xx_rcc.c ****   if (NewState != DISABLE)
 1885              		.loc 1 1279 0 is_stmt 1
 1886 002a 16B1     		cbz	r6, .L247	@ NewState,
 1887              	.L246:
1280:emWin/config/stm32f4xx_rcc.c ****   {
1281:emWin/config/stm32f4xx_rcc.c ****     RCC->AHB1RSTR |= RCC_AHB1Periph;
 1888              		.loc 1 1281 0
 1889 002c 2369     		ldr	r3, [r4, #16]	@ D.8454, MEM[(struct RCC_TypeDef *)1073887232B].AHB1RSTR
 1890 002e 1D43     		orrs	r5, r5, r3	@, D.8454, RCC_AHB1Periph, D.8454
 1891              	.LVL181:
 1892 0030 02E0     		b	.L249	@
 1893              	.LVL182:
 1894              	.L247:
1282:emWin/config/stm32f4xx_rcc.c ****   }
1283:emWin/config/stm32f4xx_rcc.c ****   else
1284:emWin/config/stm32f4xx_rcc.c ****   {
1285:emWin/config/stm32f4xx_rcc.c ****     RCC->AHB1RSTR &= ~RCC_AHB1Periph;
 1895              		.loc 1 1285 0
 1896 0032 2369     		ldr	r3, [r4, #16]	@ D.8454, MEM[(struct RCC_TypeDef *)1073887232B].AHB1RSTR
 1897 0034 23EA0505 		bic	r5, r3, r5	@ D.8454, D.8454, RCC_AHB1Periph
 1898              	.LVL183:
 1899              	.L249:
 1900 0038 2561     		str	r5, [r4, #16]	@ D.8454,
 1901 003a 70BD     		pop	{r4, r5, r6, pc}	@
 1902              	.L251:
 1903              		.align	2
 1904              	.L250:
 1905 003c 00EE9FDD 		.word	-576721408
 1906 0040 00000000 		.word	.LC0
ARM GAS  C:\cygwin\tmp\cclI5f77.s 			page 58


 1907 0044 00380240 		.word	1073887232
 1908              		.cfi_endproc
 1909              	.LFE152:
 1910              		.size	RCC_AHB1PeriphResetCmd, .-RCC_AHB1PeriphResetCmd
 1911              		.section	.text.RCC_AHB2PeriphResetCmd,"ax",%progbits
 1912              		.align	1
 1913              		.global	RCC_AHB2PeriphResetCmd
 1914              		.thumb
 1915              		.thumb_func
 1916              		.type	RCC_AHB2PeriphResetCmd, %function
 1917              	RCC_AHB2PeriphResetCmd:
 1918              	.LFB153:
1286:emWin/config/stm32f4xx_rcc.c ****   }
1287:emWin/config/stm32f4xx_rcc.c **** }
1288:emWin/config/stm32f4xx_rcc.c **** 
1289:emWin/config/stm32f4xx_rcc.c **** /**
1290:emWin/config/stm32f4xx_rcc.c ****   * @brief  Forces or releases AHB2 peripheral reset.
1291:emWin/config/stm32f4xx_rcc.c ****   * @param  RCC_AHB2Periph: specifies the AHB2 peripheral to reset.
1292:emWin/config/stm32f4xx_rcc.c ****   *          This parameter can be any combination of the following values:
1293:emWin/config/stm32f4xx_rcc.c ****   *            @arg RCC_AHB2Periph_DCMI:   DCMI clock
1294:emWin/config/stm32f4xx_rcc.c ****   *            @arg RCC_AHB2Periph_CRYP:   CRYP clock
1295:emWin/config/stm32f4xx_rcc.c ****   *            @arg RCC_AHB2Periph_HASH:   HASH clock
1296:emWin/config/stm32f4xx_rcc.c ****   *            @arg RCC_AHB2Periph_RNG:    RNG clock
1297:emWin/config/stm32f4xx_rcc.c ****   *            @arg RCC_AHB2Periph_OTG_FS: USB OTG FS clock
1298:emWin/config/stm32f4xx_rcc.c ****   * @param  NewState: new state of the specified peripheral reset.
1299:emWin/config/stm32f4xx_rcc.c ****   *          This parameter can be: ENABLE or DISABLE.
1300:emWin/config/stm32f4xx_rcc.c ****   * @retval None
1301:emWin/config/stm32f4xx_rcc.c ****   */
1302:emWin/config/stm32f4xx_rcc.c **** void RCC_AHB2PeriphResetCmd(uint32_t RCC_AHB2Periph, FunctionalState NewState)
1303:emWin/config/stm32f4xx_rcc.c **** {
 1919              		.loc 1 1303 0
 1920              		.cfi_startproc
 1921              		@ args = 0, pretend = 0, frame = 0
 1922              		@ frame_needed = 0, uses_anonymous_args = 0
 1923              	.LVL184:
1304:emWin/config/stm32f4xx_rcc.c ****   /* Check the parameters */
1305:emWin/config/stm32f4xx_rcc.c ****   assert_param(IS_RCC_AHB2_PERIPH(RCC_AHB2Periph));
 1924              		.loc 1 1305 0
 1925 0000 30F0F103 		bics	r3, r0, #241	@ tmp127, RCC_AHB2Periph,
1303:emWin/config/stm32f4xx_rcc.c ****   /* Check the parameters */
 1926              		.loc 1 1303 0
 1927 0004 70B5     		push	{r4, r5, r6, lr}	@
 1928              		.cfi_def_cfa_offset 16
 1929              		.cfi_offset 4, -16
 1930              		.cfi_offset 5, -12
 1931              		.cfi_offset 6, -8
 1932              		.cfi_offset 14, -4
1303:emWin/config/stm32f4xx_rcc.c ****   /* Check the parameters */
 1933              		.loc 1 1303 0
 1934 0006 0546     		mov	r5, r0	@ RCC_AHB2Periph, RCC_AHB2Periph
 1935 0008 0E46     		mov	r6, r1	@ NewState, NewState
 1936              		.loc 1 1305 0
 1937 000a 00D1     		bne	.L253	@,
 1938              		.loc 1 1305 0 is_stmt 0 discriminator 2
 1939 000c 20B9     		cbnz	r0, .L254	@ RCC_AHB2Periph,
 1940              	.L253:
 1941              		.loc 1 1305 0 discriminator 3
ARM GAS  C:\cygwin\tmp\cclI5f77.s 			page 59


 1942 000e 0B48     		ldr	r0, .L260	@,
 1943              	.LVL185:
 1944 0010 40F21951 		movw	r1, #1305	@,
 1945              	.LVL186:
 1946 0014 FFF7FEFF 		bl	assert_failed	@
 1947              	.LVL187:
 1948              	.L254:
1306:emWin/config/stm32f4xx_rcc.c ****   assert_param(IS_FUNCTIONAL_STATE(NewState));
 1949              		.loc 1 1306 0 is_stmt 1
 1950 0018 012E     		cmp	r6, #1	@ NewState,
 1951 001a 094C     		ldr	r4, .L260+4	@ tmp126,
 1952 001c 05D9     		bls	.L255	@,
 1953              		.loc 1 1306 0 is_stmt 0 discriminator 1
 1954 001e 0748     		ldr	r0, .L260	@,
 1955 0020 40F21A51 		movw	r1, #1306	@,
 1956 0024 FFF7FEFF 		bl	assert_failed	@
 1957              	.LVL188:
 1958 0028 00E0     		b	.L256	@
 1959              	.L255:
1307:emWin/config/stm32f4xx_rcc.c **** 
1308:emWin/config/stm32f4xx_rcc.c ****   if (NewState != DISABLE)
 1960              		.loc 1 1308 0 is_stmt 1
 1961 002a 16B1     		cbz	r6, .L257	@ NewState,
 1962              	.L256:
1309:emWin/config/stm32f4xx_rcc.c ****   {
1310:emWin/config/stm32f4xx_rcc.c ****     RCC->AHB2RSTR |= RCC_AHB2Periph;
 1963              		.loc 1 1310 0
 1964 002c 6369     		ldr	r3, [r4, #20]	@ D.8457, MEM[(struct RCC_TypeDef *)1073887232B].AHB2RSTR
 1965 002e 1D43     		orrs	r5, r5, r3	@, D.8457, RCC_AHB2Periph, D.8457
 1966              	.LVL189:
 1967 0030 02E0     		b	.L259	@
 1968              	.LVL190:
 1969              	.L257:
1311:emWin/config/stm32f4xx_rcc.c ****   }
1312:emWin/config/stm32f4xx_rcc.c ****   else
1313:emWin/config/stm32f4xx_rcc.c ****   {
1314:emWin/config/stm32f4xx_rcc.c ****     RCC->AHB2RSTR &= ~RCC_AHB2Periph;
 1970              		.loc 1 1314 0
 1971 0032 6369     		ldr	r3, [r4, #20]	@ D.8457, MEM[(struct RCC_TypeDef *)1073887232B].AHB2RSTR
 1972 0034 23EA0505 		bic	r5, r3, r5	@ D.8457, D.8457, RCC_AHB2Periph
 1973              	.LVL191:
 1974              	.L259:
 1975 0038 6561     		str	r5, [r4, #20]	@ D.8457,
 1976 003a 70BD     		pop	{r4, r5, r6, pc}	@
 1977              	.L261:
 1978              		.align	2
 1979              	.L260:
 1980 003c 00000000 		.word	.LC0
 1981 0040 00380240 		.word	1073887232
 1982              		.cfi_endproc
 1983              	.LFE153:
 1984              		.size	RCC_AHB2PeriphResetCmd, .-RCC_AHB2PeriphResetCmd
 1985              		.section	.text.RCC_AHB3PeriphResetCmd,"ax",%progbits
 1986              		.align	1
 1987              		.global	RCC_AHB3PeriphResetCmd
 1988              		.thumb
 1989              		.thumb_func
ARM GAS  C:\cygwin\tmp\cclI5f77.s 			page 60


 1990              		.type	RCC_AHB3PeriphResetCmd, %function
 1991              	RCC_AHB3PeriphResetCmd:
 1992              	.LFB154:
1315:emWin/config/stm32f4xx_rcc.c ****   }
1316:emWin/config/stm32f4xx_rcc.c **** }
1317:emWin/config/stm32f4xx_rcc.c **** 
1318:emWin/config/stm32f4xx_rcc.c **** /**
1319:emWin/config/stm32f4xx_rcc.c ****   * @brief  Forces or releases AHB3 peripheral reset.
1320:emWin/config/stm32f4xx_rcc.c ****   * @param  RCC_AHB3Periph: specifies the AHB3 peripheral to reset.
1321:emWin/config/stm32f4xx_rcc.c ****   *          This parameter must be: RCC_AHB3Periph_FSMC
1322:emWin/config/stm32f4xx_rcc.c ****   * @param  NewState: new state of the specified peripheral reset.
1323:emWin/config/stm32f4xx_rcc.c ****   *          This parameter can be: ENABLE or DISABLE.
1324:emWin/config/stm32f4xx_rcc.c ****   * @retval None
1325:emWin/config/stm32f4xx_rcc.c ****   */
1326:emWin/config/stm32f4xx_rcc.c **** void RCC_AHB3PeriphResetCmd(uint32_t RCC_AHB3Periph, FunctionalState NewState)
1327:emWin/config/stm32f4xx_rcc.c **** {
 1993              		.loc 1 1327 0
 1994              		.cfi_startproc
 1995              		@ args = 0, pretend = 0, frame = 0
 1996              		@ frame_needed = 0, uses_anonymous_args = 0
 1997              	.LVL192:
1328:emWin/config/stm32f4xx_rcc.c ****   /* Check the parameters */
1329:emWin/config/stm32f4xx_rcc.c ****   assert_param(IS_RCC_AHB3_PERIPH(RCC_AHB3Periph));
 1998              		.loc 1 1329 0
 1999 0000 30F00103 		bics	r3, r0, #1	@ tmp127, RCC_AHB3Periph,
1327:emWin/config/stm32f4xx_rcc.c ****   /* Check the parameters */
 2000              		.loc 1 1327 0
 2001 0004 70B5     		push	{r4, r5, r6, lr}	@
 2002              		.cfi_def_cfa_offset 16
 2003              		.cfi_offset 4, -16
 2004              		.cfi_offset 5, -12
 2005              		.cfi_offset 6, -8
 2006              		.cfi_offset 14, -4
1327:emWin/config/stm32f4xx_rcc.c ****   /* Check the parameters */
 2007              		.loc 1 1327 0
 2008 0006 0546     		mov	r5, r0	@ RCC_AHB3Periph, RCC_AHB3Periph
 2009 0008 0E46     		mov	r6, r1	@ NewState, NewState
 2010              		.loc 1 1329 0
 2011 000a 00D1     		bne	.L263	@,
 2012              		.loc 1 1329 0 is_stmt 0 discriminator 2
 2013 000c 20B9     		cbnz	r0, .L264	@ RCC_AHB3Periph,
 2014              	.L263:
 2015              		.loc 1 1329 0 discriminator 3
 2016 000e 0B48     		ldr	r0, .L270	@,
 2017              	.LVL193:
 2018 0010 40F23151 		movw	r1, #1329	@,
 2019              	.LVL194:
 2020 0014 FFF7FEFF 		bl	assert_failed	@
 2021              	.LVL195:
 2022              	.L264:
1330:emWin/config/stm32f4xx_rcc.c ****   assert_param(IS_FUNCTIONAL_STATE(NewState));
 2023              		.loc 1 1330 0 is_stmt 1
 2024 0018 012E     		cmp	r6, #1	@ NewState,
 2025 001a 094C     		ldr	r4, .L270+4	@ tmp126,
 2026 001c 05D9     		bls	.L265	@,
 2027              		.loc 1 1330 0 is_stmt 0 discriminator 1
 2028 001e 0748     		ldr	r0, .L270	@,
ARM GAS  C:\cygwin\tmp\cclI5f77.s 			page 61


 2029 0020 40F23251 		movw	r1, #1330	@,
 2030 0024 FFF7FEFF 		bl	assert_failed	@
 2031              	.LVL196:
 2032 0028 00E0     		b	.L266	@
 2033              	.L265:
1331:emWin/config/stm32f4xx_rcc.c **** 
1332:emWin/config/stm32f4xx_rcc.c ****   if (NewState != DISABLE)
 2034              		.loc 1 1332 0 is_stmt 1
 2035 002a 16B1     		cbz	r6, .L267	@ NewState,
 2036              	.L266:
1333:emWin/config/stm32f4xx_rcc.c ****   {
1334:emWin/config/stm32f4xx_rcc.c ****     RCC->AHB3RSTR |= RCC_AHB3Periph;
 2037              		.loc 1 1334 0
 2038 002c A369     		ldr	r3, [r4, #24]	@ D.8460, MEM[(struct RCC_TypeDef *)1073887232B].AHB3RSTR
 2039 002e 1D43     		orrs	r5, r5, r3	@, D.8460, RCC_AHB3Periph, D.8460
 2040              	.LVL197:
 2041 0030 02E0     		b	.L269	@
 2042              	.LVL198:
 2043              	.L267:
1335:emWin/config/stm32f4xx_rcc.c ****   }
1336:emWin/config/stm32f4xx_rcc.c ****   else
1337:emWin/config/stm32f4xx_rcc.c ****   {
1338:emWin/config/stm32f4xx_rcc.c ****     RCC->AHB3RSTR &= ~RCC_AHB3Periph;
 2044              		.loc 1 1338 0
 2045 0032 A369     		ldr	r3, [r4, #24]	@ D.8460, MEM[(struct RCC_TypeDef *)1073887232B].AHB3RSTR
 2046 0034 23EA0505 		bic	r5, r3, r5	@ D.8460, D.8460, RCC_AHB3Periph
 2047              	.LVL199:
 2048              	.L269:
 2049 0038 A561     		str	r5, [r4, #24]	@ D.8460,
 2050 003a 70BD     		pop	{r4, r5, r6, pc}	@
 2051              	.L271:
 2052              		.align	2
 2053              	.L270:
 2054 003c 00000000 		.word	.LC0
 2055 0040 00380240 		.word	1073887232
 2056              		.cfi_endproc
 2057              	.LFE154:
 2058              		.size	RCC_AHB3PeriphResetCmd, .-RCC_AHB3PeriphResetCmd
 2059              		.section	.text.RCC_APB1PeriphResetCmd,"ax",%progbits
 2060              		.align	1
 2061              		.global	RCC_APB1PeriphResetCmd
 2062              		.thumb
 2063              		.thumb_func
 2064              		.type	RCC_APB1PeriphResetCmd, %function
 2065              	RCC_APB1PeriphResetCmd:
 2066              	.LFB155:
1339:emWin/config/stm32f4xx_rcc.c ****   }
1340:emWin/config/stm32f4xx_rcc.c **** }
1341:emWin/config/stm32f4xx_rcc.c **** 
1342:emWin/config/stm32f4xx_rcc.c **** /**
1343:emWin/config/stm32f4xx_rcc.c ****   * @brief  Forces or releases Low Speed APB (APB1) peripheral reset.
1344:emWin/config/stm32f4xx_rcc.c ****   * @param  RCC_APB1Periph: specifies the APB1 peripheral to reset.
1345:emWin/config/stm32f4xx_rcc.c ****   *          This parameter can be any combination of the following values:
1346:emWin/config/stm32f4xx_rcc.c ****   *            @arg RCC_APB1Periph_TIM2:   TIM2 clock
1347:emWin/config/stm32f4xx_rcc.c ****   *            @arg RCC_APB1Periph_TIM3:   TIM3 clock
1348:emWin/config/stm32f4xx_rcc.c ****   *            @arg RCC_APB1Periph_TIM4:   TIM4 clock
1349:emWin/config/stm32f4xx_rcc.c ****   *            @arg RCC_APB1Periph_TIM5:   TIM5 clock
ARM GAS  C:\cygwin\tmp\cclI5f77.s 			page 62


1350:emWin/config/stm32f4xx_rcc.c ****   *            @arg RCC_APB1Periph_TIM6:   TIM6 clock
1351:emWin/config/stm32f4xx_rcc.c ****   *            @arg RCC_APB1Periph_TIM7:   TIM7 clock
1352:emWin/config/stm32f4xx_rcc.c ****   *            @arg RCC_APB1Periph_TIM12:  TIM12 clock
1353:emWin/config/stm32f4xx_rcc.c ****   *            @arg RCC_APB1Periph_TIM13:  TIM13 clock
1354:emWin/config/stm32f4xx_rcc.c ****   *            @arg RCC_APB1Periph_TIM14:  TIM14 clock
1355:emWin/config/stm32f4xx_rcc.c ****   *            @arg RCC_APB1Periph_WWDG:   WWDG clock
1356:emWin/config/stm32f4xx_rcc.c ****   *            @arg RCC_APB1Periph_SPI2:   SPI2 clock
1357:emWin/config/stm32f4xx_rcc.c ****   *            @arg RCC_APB1Periph_SPI3:   SPI3 clock
1358:emWin/config/stm32f4xx_rcc.c ****   *            @arg RCC_APB1Periph_USART2: USART2 clock
1359:emWin/config/stm32f4xx_rcc.c ****   *            @arg RCC_APB1Periph_USART3: USART3 clock
1360:emWin/config/stm32f4xx_rcc.c ****   *            @arg RCC_APB1Periph_UART4:  UART4 clock
1361:emWin/config/stm32f4xx_rcc.c ****   *            @arg RCC_APB1Periph_UART5:  UART5 clock
1362:emWin/config/stm32f4xx_rcc.c ****   *            @arg RCC_APB1Periph_I2C1:   I2C1 clock
1363:emWin/config/stm32f4xx_rcc.c ****   *            @arg RCC_APB1Periph_I2C2:   I2C2 clock
1364:emWin/config/stm32f4xx_rcc.c ****   *            @arg RCC_APB1Periph_I2C3:   I2C3 clock
1365:emWin/config/stm32f4xx_rcc.c ****   *            @arg RCC_APB1Periph_CAN1:   CAN1 clock
1366:emWin/config/stm32f4xx_rcc.c ****   *            @arg RCC_APB1Periph_CAN2:   CAN2 clock
1367:emWin/config/stm32f4xx_rcc.c ****   *            @arg RCC_APB1Periph_PWR:    PWR clock
1368:emWin/config/stm32f4xx_rcc.c ****   *            @arg RCC_APB1Periph_DAC:    DAC clock
1369:emWin/config/stm32f4xx_rcc.c ****   * @param  NewState: new state of the specified peripheral reset.
1370:emWin/config/stm32f4xx_rcc.c ****   *          This parameter can be: ENABLE or DISABLE.
1371:emWin/config/stm32f4xx_rcc.c ****   * @retval None
1372:emWin/config/stm32f4xx_rcc.c ****   */
1373:emWin/config/stm32f4xx_rcc.c **** void RCC_APB1PeriphResetCmd(uint32_t RCC_APB1Periph, FunctionalState NewState)
1374:emWin/config/stm32f4xx_rcc.c **** {
 2067              		.loc 1 1374 0
 2068              		.cfi_startproc
 2069              		@ args = 0, pretend = 0, frame = 0
 2070              		@ frame_needed = 0, uses_anonymous_args = 0
 2071              	.LVL200:
1375:emWin/config/stm32f4xx_rcc.c ****   /* Check the parameters */
1376:emWin/config/stm32f4xx_rcc.c ****   assert_param(IS_RCC_APB1_PERIPH(RCC_APB1Periph));
 2072              		.loc 1 1376 0
 2073 0000 0E4B     		ldr	r3, .L280	@ D.8463,
 2074 0002 0340     		ands	r3, r3, r0	@, D.8463, D.8463, RCC_APB1Periph
1374:emWin/config/stm32f4xx_rcc.c ****   /* Check the parameters */
 2075              		.loc 1 1374 0
 2076 0004 70B5     		push	{r4, r5, r6, lr}	@
 2077              		.cfi_def_cfa_offset 16
 2078              		.cfi_offset 4, -16
 2079              		.cfi_offset 5, -12
 2080              		.cfi_offset 6, -8
 2081              		.cfi_offset 14, -4
1374:emWin/config/stm32f4xx_rcc.c ****   /* Check the parameters */
 2082              		.loc 1 1374 0
 2083 0006 0546     		mov	r5, r0	@ RCC_APB1Periph, RCC_APB1Periph
 2084 0008 0E46     		mov	r6, r1	@ NewState, NewState
 2085              		.loc 1 1376 0
 2086 000a 03B9     		cbnz	r3, .L273	@ D.8463,
 2087              		.loc 1 1376 0 is_stmt 0 discriminator 2
 2088 000c 20B9     		cbnz	r0, .L274	@ RCC_APB1Periph,
 2089              	.L273:
 2090              		.loc 1 1376 0 discriminator 3
 2091 000e 0C48     		ldr	r0, .L280+4	@,
 2092              	.LVL201:
 2093 0010 4FF4AC61 		mov	r1, #1376	@,
 2094              	.LVL202:
ARM GAS  C:\cygwin\tmp\cclI5f77.s 			page 63


 2095 0014 FFF7FEFF 		bl	assert_failed	@
 2096              	.LVL203:
 2097              	.L274:
1377:emWin/config/stm32f4xx_rcc.c ****   assert_param(IS_FUNCTIONAL_STATE(NewState));
 2098              		.loc 1 1377 0 is_stmt 1
 2099 0018 012E     		cmp	r6, #1	@ NewState,
 2100 001a 0A4C     		ldr	r4, .L280+8	@ tmp127,
 2101 001c 05D9     		bls	.L275	@,
 2102              		.loc 1 1377 0 is_stmt 0 discriminator 1
 2103 001e 0848     		ldr	r0, .L280+4	@,
 2104 0020 40F26151 		movw	r1, #1377	@,
 2105 0024 FFF7FEFF 		bl	assert_failed	@
 2106              	.LVL204:
 2107 0028 00E0     		b	.L276	@
 2108              	.L275:
1378:emWin/config/stm32f4xx_rcc.c ****   if (NewState != DISABLE)
 2109              		.loc 1 1378 0 is_stmt 1
 2110 002a 16B1     		cbz	r6, .L277	@ NewState,
 2111              	.L276:
1379:emWin/config/stm32f4xx_rcc.c ****   {
1380:emWin/config/stm32f4xx_rcc.c ****     RCC->APB1RSTR |= RCC_APB1Periph;
 2112              		.loc 1 1380 0
 2113 002c 236A     		ldr	r3, [r4, #32]	@ D.8463, MEM[(struct RCC_TypeDef *)1073887232B].APB1RSTR
 2114 002e 1D43     		orrs	r5, r5, r3	@, D.8463, RCC_APB1Periph, D.8463
 2115              	.LVL205:
 2116 0030 02E0     		b	.L279	@
 2117              	.LVL206:
 2118              	.L277:
1381:emWin/config/stm32f4xx_rcc.c ****   }
1382:emWin/config/stm32f4xx_rcc.c ****   else
1383:emWin/config/stm32f4xx_rcc.c ****   {
1384:emWin/config/stm32f4xx_rcc.c ****     RCC->APB1RSTR &= ~RCC_APB1Periph;
 2119              		.loc 1 1384 0
 2120 0032 236A     		ldr	r3, [r4, #32]	@ D.8463, MEM[(struct RCC_TypeDef *)1073887232B].APB1RSTR
 2121 0034 23EA0505 		bic	r5, r3, r5	@ D.8463, D.8463, RCC_APB1Periph
 2122              	.LVL207:
 2123              	.L279:
 2124 0038 2562     		str	r5, [r4, #32]	@ D.8463,
 2125 003a 70BD     		pop	{r4, r5, r6, pc}	@
 2126              	.L281:
 2127              		.align	2
 2128              	.L280:
 2129 003c 003601C9 		.word	-922667520
 2130 0040 00000000 		.word	.LC0
 2131 0044 00380240 		.word	1073887232
 2132              		.cfi_endproc
 2133              	.LFE155:
 2134              		.size	RCC_APB1PeriphResetCmd, .-RCC_APB1PeriphResetCmd
 2135              		.section	.text.RCC_APB2PeriphResetCmd,"ax",%progbits
 2136              		.align	1
 2137              		.global	RCC_APB2PeriphResetCmd
 2138              		.thumb
 2139              		.thumb_func
 2140              		.type	RCC_APB2PeriphResetCmd, %function
 2141              	RCC_APB2PeriphResetCmd:
 2142              	.LFB156:
1385:emWin/config/stm32f4xx_rcc.c ****   }
ARM GAS  C:\cygwin\tmp\cclI5f77.s 			page 64


1386:emWin/config/stm32f4xx_rcc.c **** }
1387:emWin/config/stm32f4xx_rcc.c **** 
1388:emWin/config/stm32f4xx_rcc.c **** /**
1389:emWin/config/stm32f4xx_rcc.c ****   * @brief  Forces or releases High Speed APB (APB2) peripheral reset.
1390:emWin/config/stm32f4xx_rcc.c ****   * @param  RCC_APB2Periph: specifies the APB2 peripheral to reset.
1391:emWin/config/stm32f4xx_rcc.c ****   *          This parameter can be any combination of the following values:
1392:emWin/config/stm32f4xx_rcc.c ****   *            @arg RCC_APB2Periph_TIM1:   TIM1 clock
1393:emWin/config/stm32f4xx_rcc.c ****   *            @arg RCC_APB2Periph_TIM8:   TIM8 clock
1394:emWin/config/stm32f4xx_rcc.c ****   *            @arg RCC_APB2Periph_USART1: USART1 clock
1395:emWin/config/stm32f4xx_rcc.c ****   *            @arg RCC_APB2Periph_USART6: USART6 clock
1396:emWin/config/stm32f4xx_rcc.c ****   *            @arg RCC_APB2Periph_ADC1:   ADC1 clock
1397:emWin/config/stm32f4xx_rcc.c ****   *            @arg RCC_APB2Periph_ADC2:   ADC2 clock
1398:emWin/config/stm32f4xx_rcc.c ****   *            @arg RCC_APB2Periph_ADC3:   ADC3 clock
1399:emWin/config/stm32f4xx_rcc.c ****   *            @arg RCC_APB2Periph_SDIO:   SDIO clock
1400:emWin/config/stm32f4xx_rcc.c ****   *            @arg RCC_APB2Periph_SPI1:   SPI1 clock
1401:emWin/config/stm32f4xx_rcc.c ****   *            @arg RCC_APB2Periph_SYSCFG: SYSCFG clock
1402:emWin/config/stm32f4xx_rcc.c ****   *            @arg RCC_APB2Periph_TIM9:   TIM9 clock
1403:emWin/config/stm32f4xx_rcc.c ****   *            @arg RCC_APB2Periph_TIM10:  TIM10 clock
1404:emWin/config/stm32f4xx_rcc.c ****   *            @arg RCC_APB2Periph_TIM11:  TIM11 clock
1405:emWin/config/stm32f4xx_rcc.c ****   * @param  NewState: new state of the specified peripheral reset.
1406:emWin/config/stm32f4xx_rcc.c ****   *          This parameter can be: ENABLE or DISABLE.
1407:emWin/config/stm32f4xx_rcc.c ****   * @retval None
1408:emWin/config/stm32f4xx_rcc.c ****   */
1409:emWin/config/stm32f4xx_rcc.c **** void RCC_APB2PeriphResetCmd(uint32_t RCC_APB2Periph, FunctionalState NewState)
1410:emWin/config/stm32f4xx_rcc.c **** {
 2143              		.loc 1 1410 0
 2144              		.cfi_startproc
 2145              		@ args = 0, pretend = 0, frame = 0
 2146              		@ frame_needed = 0, uses_anonymous_args = 0
 2147              	.LVL208:
1411:emWin/config/stm32f4xx_rcc.c ****   /* Check the parameters */
1412:emWin/config/stm32f4xx_rcc.c ****   assert_param(IS_RCC_APB2_RESET_PERIPH(RCC_APB2Periph));
 2148              		.loc 1 1412 0
 2149 0000 0E4B     		ldr	r3, .L290	@ D.8466,
 2150 0002 0340     		ands	r3, r3, r0	@, D.8466, D.8466, RCC_APB2Periph
1410:emWin/config/stm32f4xx_rcc.c ****   /* Check the parameters */
 2151              		.loc 1 1410 0
 2152 0004 70B5     		push	{r4, r5, r6, lr}	@
 2153              		.cfi_def_cfa_offset 16
 2154              		.cfi_offset 4, -16
 2155              		.cfi_offset 5, -12
 2156              		.cfi_offset 6, -8
 2157              		.cfi_offset 14, -4
1410:emWin/config/stm32f4xx_rcc.c ****   /* Check the parameters */
 2158              		.loc 1 1410 0
 2159 0006 0546     		mov	r5, r0	@ RCC_APB2Periph, RCC_APB2Periph
 2160 0008 0E46     		mov	r6, r1	@ NewState, NewState
 2161              		.loc 1 1412 0
 2162 000a 03B9     		cbnz	r3, .L283	@ D.8466,
 2163              		.loc 1 1412 0 is_stmt 0 discriminator 2
 2164 000c 20B9     		cbnz	r0, .L284	@ RCC_APB2Periph,
 2165              	.L283:
 2166              		.loc 1 1412 0 discriminator 3
 2167 000e 0C48     		ldr	r0, .L290+4	@,
 2168              	.LVL209:
 2169 0010 40F28451 		movw	r1, #1412	@,
 2170              	.LVL210:
ARM GAS  C:\cygwin\tmp\cclI5f77.s 			page 65


 2171 0014 FFF7FEFF 		bl	assert_failed	@
 2172              	.LVL211:
 2173              	.L284:
1413:emWin/config/stm32f4xx_rcc.c ****   assert_param(IS_FUNCTIONAL_STATE(NewState));
 2174              		.loc 1 1413 0 is_stmt 1
 2175 0018 012E     		cmp	r6, #1	@ NewState,
 2176 001a 0A4C     		ldr	r4, .L290+8	@ tmp127,
 2177 001c 05D9     		bls	.L285	@,
 2178              		.loc 1 1413 0 is_stmt 0 discriminator 1
 2179 001e 0848     		ldr	r0, .L290+4	@,
 2180 0020 40F28551 		movw	r1, #1413	@,
 2181 0024 FFF7FEFF 		bl	assert_failed	@
 2182              	.LVL212:
 2183 0028 00E0     		b	.L286	@
 2184              	.L285:
1414:emWin/config/stm32f4xx_rcc.c ****   if (NewState != DISABLE)
 2185              		.loc 1 1414 0 is_stmt 1
 2186 002a 16B1     		cbz	r6, .L287	@ NewState,
 2187              	.L286:
1415:emWin/config/stm32f4xx_rcc.c ****   {
1416:emWin/config/stm32f4xx_rcc.c ****     RCC->APB2RSTR |= RCC_APB2Periph;
 2188              		.loc 1 1416 0
 2189 002c 636A     		ldr	r3, [r4, #36]	@ D.8466, MEM[(struct RCC_TypeDef *)1073887232B].APB2RSTR
 2190 002e 1D43     		orrs	r5, r5, r3	@, D.8466, RCC_APB2Periph, D.8466
 2191              	.LVL213:
 2192 0030 02E0     		b	.L289	@
 2193              	.LVL214:
 2194              	.L287:
1417:emWin/config/stm32f4xx_rcc.c ****   }
1418:emWin/config/stm32f4xx_rcc.c ****   else
1419:emWin/config/stm32f4xx_rcc.c ****   {
1420:emWin/config/stm32f4xx_rcc.c ****     RCC->APB2RSTR &= ~RCC_APB2Periph;
 2195              		.loc 1 1420 0
 2196 0032 636A     		ldr	r3, [r4, #36]	@ D.8466, MEM[(struct RCC_TypeDef *)1073887232B].APB2RSTR
 2197 0034 23EA0505 		bic	r5, r3, r5	@ D.8466, D.8466, RCC_APB2Periph
 2198              	.LVL215:
 2199              	.L289:
 2200 0038 6562     		str	r5, [r4, #36]	@ D.8466,
 2201 003a 70BD     		pop	{r4, r5, r6, pc}	@
 2202              	.L291:
 2203              		.align	2
 2204              	.L290:
 2205 003c CCA6F8FF 		.word	-481588
 2206 0040 00000000 		.word	.LC0
 2207 0044 00380240 		.word	1073887232
 2208              		.cfi_endproc
 2209              	.LFE156:
 2210              		.size	RCC_APB2PeriphResetCmd, .-RCC_APB2PeriphResetCmd
 2211              		.section	.text.RCC_AHB1PeriphClockLPModeCmd,"ax",%progbits
 2212              		.align	1
 2213              		.global	RCC_AHB1PeriphClockLPModeCmd
 2214              		.thumb
 2215              		.thumb_func
 2216              		.type	RCC_AHB1PeriphClockLPModeCmd, %function
 2217              	RCC_AHB1PeriphClockLPModeCmd:
 2218              	.LFB157:
1421:emWin/config/stm32f4xx_rcc.c ****   }
ARM GAS  C:\cygwin\tmp\cclI5f77.s 			page 66


1422:emWin/config/stm32f4xx_rcc.c **** }
1423:emWin/config/stm32f4xx_rcc.c **** 
1424:emWin/config/stm32f4xx_rcc.c **** /**
1425:emWin/config/stm32f4xx_rcc.c ****   * @brief  Enables or disables the AHB1 peripheral clock during Low Power (Sleep) mode.
1426:emWin/config/stm32f4xx_rcc.c ****   * @note   Peripheral clock gating in SLEEP mode can be used to further reduce
1427:emWin/config/stm32f4xx_rcc.c ****   *         power consumption.
1428:emWin/config/stm32f4xx_rcc.c ****   * @note   After wakeup from SLEEP mode, the peripheral clock is enabled again.
1429:emWin/config/stm32f4xx_rcc.c ****   * @note   By default, all peripheral clocks are enabled during SLEEP mode.
1430:emWin/config/stm32f4xx_rcc.c ****   * @param  RCC_AHBPeriph: specifies the AHB1 peripheral to gates its clock.
1431:emWin/config/stm32f4xx_rcc.c ****   *          This parameter can be any combination of the following values:
1432:emWin/config/stm32f4xx_rcc.c ****   *            @arg RCC_AHB1Periph_GPIOA:       GPIOA clock
1433:emWin/config/stm32f4xx_rcc.c ****   *            @arg RCC_AHB1Periph_GPIOB:       GPIOB clock 
1434:emWin/config/stm32f4xx_rcc.c ****   *            @arg RCC_AHB1Periph_GPIOC:       GPIOC clock
1435:emWin/config/stm32f4xx_rcc.c ****   *            @arg RCC_AHB1Periph_GPIOD:       GPIOD clock
1436:emWin/config/stm32f4xx_rcc.c ****   *            @arg RCC_AHB1Periph_GPIOE:       GPIOE clock
1437:emWin/config/stm32f4xx_rcc.c ****   *            @arg RCC_AHB1Periph_GPIOF:       GPIOF clock
1438:emWin/config/stm32f4xx_rcc.c ****   *            @arg RCC_AHB1Periph_GPIOG:       GPIOG clock
1439:emWin/config/stm32f4xx_rcc.c ****   *            @arg RCC_AHB1Periph_GPIOG:       GPIOG clock
1440:emWin/config/stm32f4xx_rcc.c ****   *            @arg RCC_AHB1Periph_GPIOI:       GPIOI clock
1441:emWin/config/stm32f4xx_rcc.c ****   *            @arg RCC_AHB1Periph_CRC:         CRC clock
1442:emWin/config/stm32f4xx_rcc.c ****   *            @arg RCC_AHB1Periph_BKPSRAM:     BKPSRAM interface clock
1443:emWin/config/stm32f4xx_rcc.c ****   *            @arg RCC_AHB1Periph_DMA1:        DMA1 clock
1444:emWin/config/stm32f4xx_rcc.c ****   *            @arg RCC_AHB1Periph_DMA2:        DMA2 clock
1445:emWin/config/stm32f4xx_rcc.c ****   *            @arg RCC_AHB1Periph_ETH_MAC:     Ethernet MAC clock
1446:emWin/config/stm32f4xx_rcc.c ****   *            @arg RCC_AHB1Periph_ETH_MAC_Tx:  Ethernet Transmission clock
1447:emWin/config/stm32f4xx_rcc.c ****   *            @arg RCC_AHB1Periph_ETH_MAC_Rx:  Ethernet Reception clock
1448:emWin/config/stm32f4xx_rcc.c ****   *            @arg RCC_AHB1Periph_ETH_MAC_PTP: Ethernet PTP clock
1449:emWin/config/stm32f4xx_rcc.c ****   *            @arg RCC_AHB1Periph_OTG_HS:      USB OTG HS clock
1450:emWin/config/stm32f4xx_rcc.c ****   *            @arg RCC_AHB1Periph_OTG_HS_ULPI: USB OTG HS ULPI clock
1451:emWin/config/stm32f4xx_rcc.c ****   * @param  NewState: new state of the specified peripheral clock.
1452:emWin/config/stm32f4xx_rcc.c ****   *          This parameter can be: ENABLE or DISABLE.
1453:emWin/config/stm32f4xx_rcc.c ****   * @retval None
1454:emWin/config/stm32f4xx_rcc.c ****   */
1455:emWin/config/stm32f4xx_rcc.c **** void RCC_AHB1PeriphClockLPModeCmd(uint32_t RCC_AHB1Periph, FunctionalState NewState)
1456:emWin/config/stm32f4xx_rcc.c **** {
 2219              		.loc 1 1456 0
 2220              		.cfi_startproc
 2221              		@ args = 0, pretend = 0, frame = 0
 2222              		@ frame_needed = 0, uses_anonymous_args = 0
 2223              	.LVL216:
1457:emWin/config/stm32f4xx_rcc.c ****   /* Check the parameters */
1458:emWin/config/stm32f4xx_rcc.c ****   assert_param(IS_RCC_AHB1_LPMODE_PERIPH(RCC_AHB1Periph));
 2224              		.loc 1 1458 0
 2225 0000 0E4B     		ldr	r3, .L300	@ D.8469,
 2226 0002 0340     		ands	r3, r3, r0	@, D.8469, D.8469, RCC_AHB1Periph
1456:emWin/config/stm32f4xx_rcc.c ****   /* Check the parameters */
 2227              		.loc 1 1456 0
 2228 0004 70B5     		push	{r4, r5, r6, lr}	@
 2229              		.cfi_def_cfa_offset 16
 2230              		.cfi_offset 4, -16
 2231              		.cfi_offset 5, -12
 2232              		.cfi_offset 6, -8
 2233              		.cfi_offset 14, -4
1456:emWin/config/stm32f4xx_rcc.c ****   /* Check the parameters */
 2234              		.loc 1 1456 0
 2235 0006 0546     		mov	r5, r0	@ RCC_AHB1Periph, RCC_AHB1Periph
 2236 0008 0E46     		mov	r6, r1	@ NewState, NewState
ARM GAS  C:\cygwin\tmp\cclI5f77.s 			page 67


 2237              		.loc 1 1458 0
 2238 000a 03B9     		cbnz	r3, .L293	@ D.8469,
 2239              		.loc 1 1458 0 is_stmt 0 discriminator 2
 2240 000c 20B9     		cbnz	r0, .L294	@ RCC_AHB1Periph,
 2241              	.L293:
 2242              		.loc 1 1458 0 discriminator 3
 2243 000e 0C48     		ldr	r0, .L300+4	@,
 2244              	.LVL217:
 2245 0010 40F2B251 		movw	r1, #1458	@,
 2246              	.LVL218:
 2247 0014 FFF7FEFF 		bl	assert_failed	@
 2248              	.LVL219:
 2249              	.L294:
1459:emWin/config/stm32f4xx_rcc.c ****   assert_param(IS_FUNCTIONAL_STATE(NewState));
 2250              		.loc 1 1459 0 is_stmt 1
 2251 0018 012E     		cmp	r6, #1	@ NewState,
 2252 001a 0A4C     		ldr	r4, .L300+8	@ tmp127,
 2253 001c 05D9     		bls	.L295	@,
 2254              		.loc 1 1459 0 is_stmt 0 discriminator 1
 2255 001e 0848     		ldr	r0, .L300+4	@,
 2256 0020 40F2B351 		movw	r1, #1459	@,
 2257 0024 FFF7FEFF 		bl	assert_failed	@
 2258              	.LVL220:
 2259 0028 00E0     		b	.L296	@
 2260              	.L295:
1460:emWin/config/stm32f4xx_rcc.c ****   if (NewState != DISABLE)
 2261              		.loc 1 1460 0 is_stmt 1
 2262 002a 16B1     		cbz	r6, .L297	@ NewState,
 2263              	.L296:
1461:emWin/config/stm32f4xx_rcc.c ****   {
1462:emWin/config/stm32f4xx_rcc.c ****     RCC->AHB1LPENR |= RCC_AHB1Periph;
 2264              		.loc 1 1462 0
 2265 002c 236D     		ldr	r3, [r4, #80]	@ D.8469, MEM[(struct RCC_TypeDef *)1073887232B].AHB1LPENR
 2266 002e 1D43     		orrs	r5, r5, r3	@, D.8469, RCC_AHB1Periph, D.8469
 2267              	.LVL221:
 2268 0030 02E0     		b	.L299	@
 2269              	.LVL222:
 2270              	.L297:
1463:emWin/config/stm32f4xx_rcc.c ****   }
1464:emWin/config/stm32f4xx_rcc.c ****   else
1465:emWin/config/stm32f4xx_rcc.c ****   {
1466:emWin/config/stm32f4xx_rcc.c ****     RCC->AHB1LPENR &= ~RCC_AHB1Periph;
 2271              		.loc 1 1466 0
 2272 0032 236D     		ldr	r3, [r4, #80]	@ D.8469, MEM[(struct RCC_TypeDef *)1073887232B].AHB1LPENR
 2273 0034 23EA0505 		bic	r5, r3, r5	@ D.8469, D.8469, RCC_AHB1Periph
 2274              	.LVL223:
 2275              	.L299:
 2276 0038 2565     		str	r5, [r4, #80]	@ D.8469,
 2277 003a 70BD     		pop	{r4, r5, r6, pc}	@
 2278              	.L301:
 2279              		.align	2
 2280              	.L300:
 2281 003c 006E9881 		.word	-2120716800
 2282 0040 00000000 		.word	.LC0
 2283 0044 00380240 		.word	1073887232
 2284              		.cfi_endproc
 2285              	.LFE157:
ARM GAS  C:\cygwin\tmp\cclI5f77.s 			page 68


 2286              		.size	RCC_AHB1PeriphClockLPModeCmd, .-RCC_AHB1PeriphClockLPModeCmd
 2287              		.section	.text.RCC_AHB2PeriphClockLPModeCmd,"ax",%progbits
 2288              		.align	1
 2289              		.global	RCC_AHB2PeriphClockLPModeCmd
 2290              		.thumb
 2291              		.thumb_func
 2292              		.type	RCC_AHB2PeriphClockLPModeCmd, %function
 2293              	RCC_AHB2PeriphClockLPModeCmd:
 2294              	.LFB158:
1467:emWin/config/stm32f4xx_rcc.c ****   }
1468:emWin/config/stm32f4xx_rcc.c **** }
1469:emWin/config/stm32f4xx_rcc.c **** 
1470:emWin/config/stm32f4xx_rcc.c **** /**
1471:emWin/config/stm32f4xx_rcc.c ****   * @brief  Enables or disables the AHB2 peripheral clock during Low Power (Sleep) mode.
1472:emWin/config/stm32f4xx_rcc.c ****   * @note   Peripheral clock gating in SLEEP mode can be used to further reduce
1473:emWin/config/stm32f4xx_rcc.c ****   *           power consumption.
1474:emWin/config/stm32f4xx_rcc.c ****   * @note   After wakeup from SLEEP mode, the peripheral clock is enabled again.
1475:emWin/config/stm32f4xx_rcc.c ****   * @note   By default, all peripheral clocks are enabled during SLEEP mode.
1476:emWin/config/stm32f4xx_rcc.c ****   * @param  RCC_AHBPeriph: specifies the AHB2 peripheral to gates its clock.
1477:emWin/config/stm32f4xx_rcc.c ****   *          This parameter can be any combination of the following values:
1478:emWin/config/stm32f4xx_rcc.c ****   *            @arg RCC_AHB2Periph_DCMI:   DCMI clock
1479:emWin/config/stm32f4xx_rcc.c ****   *            @arg RCC_AHB2Periph_CRYP:   CRYP clock
1480:emWin/config/stm32f4xx_rcc.c ****   *            @arg RCC_AHB2Periph_HASH:   HASH clock
1481:emWin/config/stm32f4xx_rcc.c ****   *            @arg RCC_AHB2Periph_RNG:    RNG clock
1482:emWin/config/stm32f4xx_rcc.c ****   *            @arg RCC_AHB2Periph_OTG_FS: USB OTG FS clock  
1483:emWin/config/stm32f4xx_rcc.c ****   * @param  NewState: new state of the specified peripheral clock.
1484:emWin/config/stm32f4xx_rcc.c ****   *          This parameter can be: ENABLE or DISABLE.
1485:emWin/config/stm32f4xx_rcc.c ****   * @retval None
1486:emWin/config/stm32f4xx_rcc.c ****   */
1487:emWin/config/stm32f4xx_rcc.c **** void RCC_AHB2PeriphClockLPModeCmd(uint32_t RCC_AHB2Periph, FunctionalState NewState)
1488:emWin/config/stm32f4xx_rcc.c **** {
 2295              		.loc 1 1488 0
 2296              		.cfi_startproc
 2297              		@ args = 0, pretend = 0, frame = 0
 2298              		@ frame_needed = 0, uses_anonymous_args = 0
 2299              	.LVL224:
1489:emWin/config/stm32f4xx_rcc.c ****   /* Check the parameters */
1490:emWin/config/stm32f4xx_rcc.c ****   assert_param(IS_RCC_AHB2_PERIPH(RCC_AHB2Periph));
 2300              		.loc 1 1490 0
 2301 0000 30F0F103 		bics	r3, r0, #241	@ tmp127, RCC_AHB2Periph,
1488:emWin/config/stm32f4xx_rcc.c ****   /* Check the parameters */
 2302              		.loc 1 1488 0
 2303 0004 70B5     		push	{r4, r5, r6, lr}	@
 2304              		.cfi_def_cfa_offset 16
 2305              		.cfi_offset 4, -16
 2306              		.cfi_offset 5, -12
 2307              		.cfi_offset 6, -8
 2308              		.cfi_offset 14, -4
1488:emWin/config/stm32f4xx_rcc.c ****   /* Check the parameters */
 2309              		.loc 1 1488 0
 2310 0006 0546     		mov	r5, r0	@ RCC_AHB2Periph, RCC_AHB2Periph
 2311 0008 0E46     		mov	r6, r1	@ NewState, NewState
 2312              		.loc 1 1490 0
 2313 000a 00D1     		bne	.L303	@,
 2314              		.loc 1 1490 0 is_stmt 0 discriminator 2
 2315 000c 20B9     		cbnz	r0, .L304	@ RCC_AHB2Periph,
 2316              	.L303:
ARM GAS  C:\cygwin\tmp\cclI5f77.s 			page 69


 2317              		.loc 1 1490 0 discriminator 3
 2318 000e 0B48     		ldr	r0, .L310	@,
 2319              	.LVL225:
 2320 0010 40F2D251 		movw	r1, #1490	@,
 2321              	.LVL226:
 2322 0014 FFF7FEFF 		bl	assert_failed	@
 2323              	.LVL227:
 2324              	.L304:
1491:emWin/config/stm32f4xx_rcc.c ****   assert_param(IS_FUNCTIONAL_STATE(NewState));
 2325              		.loc 1 1491 0 is_stmt 1
 2326 0018 012E     		cmp	r6, #1	@ NewState,
 2327 001a 094C     		ldr	r4, .L310+4	@ tmp126,
 2328 001c 05D9     		bls	.L305	@,
 2329              		.loc 1 1491 0 is_stmt 0 discriminator 1
 2330 001e 0748     		ldr	r0, .L310	@,
 2331 0020 40F2D351 		movw	r1, #1491	@,
 2332 0024 FFF7FEFF 		bl	assert_failed	@
 2333              	.LVL228:
 2334 0028 00E0     		b	.L306	@
 2335              	.L305:
1492:emWin/config/stm32f4xx_rcc.c ****   if (NewState != DISABLE)
 2336              		.loc 1 1492 0 is_stmt 1
 2337 002a 16B1     		cbz	r6, .L307	@ NewState,
 2338              	.L306:
1493:emWin/config/stm32f4xx_rcc.c ****   {
1494:emWin/config/stm32f4xx_rcc.c ****     RCC->AHB2LPENR |= RCC_AHB2Periph;
 2339              		.loc 1 1494 0
 2340 002c 636D     		ldr	r3, [r4, #84]	@ D.8472, MEM[(struct RCC_TypeDef *)1073887232B].AHB2LPENR
 2341 002e 1D43     		orrs	r5, r5, r3	@, D.8472, RCC_AHB2Periph, D.8472
 2342              	.LVL229:
 2343 0030 02E0     		b	.L309	@
 2344              	.LVL230:
 2345              	.L307:
1495:emWin/config/stm32f4xx_rcc.c ****   }
1496:emWin/config/stm32f4xx_rcc.c ****   else
1497:emWin/config/stm32f4xx_rcc.c ****   {
1498:emWin/config/stm32f4xx_rcc.c ****     RCC->AHB2LPENR &= ~RCC_AHB2Periph;
 2346              		.loc 1 1498 0
 2347 0032 636D     		ldr	r3, [r4, #84]	@ D.8472, MEM[(struct RCC_TypeDef *)1073887232B].AHB2LPENR
 2348 0034 23EA0505 		bic	r5, r3, r5	@ D.8472, D.8472, RCC_AHB2Periph
 2349              	.LVL231:
 2350              	.L309:
 2351 0038 6565     		str	r5, [r4, #84]	@ D.8472,
 2352 003a 70BD     		pop	{r4, r5, r6, pc}	@
 2353              	.L311:
 2354              		.align	2
 2355              	.L310:
 2356 003c 00000000 		.word	.LC0
 2357 0040 00380240 		.word	1073887232
 2358              		.cfi_endproc
 2359              	.LFE158:
 2360              		.size	RCC_AHB2PeriphClockLPModeCmd, .-RCC_AHB2PeriphClockLPModeCmd
 2361              		.section	.text.RCC_AHB3PeriphClockLPModeCmd,"ax",%progbits
 2362              		.align	1
 2363              		.global	RCC_AHB3PeriphClockLPModeCmd
 2364              		.thumb
 2365              		.thumb_func
ARM GAS  C:\cygwin\tmp\cclI5f77.s 			page 70


 2366              		.type	RCC_AHB3PeriphClockLPModeCmd, %function
 2367              	RCC_AHB3PeriphClockLPModeCmd:
 2368              	.LFB159:
1499:emWin/config/stm32f4xx_rcc.c ****   }
1500:emWin/config/stm32f4xx_rcc.c **** }
1501:emWin/config/stm32f4xx_rcc.c **** 
1502:emWin/config/stm32f4xx_rcc.c **** /**
1503:emWin/config/stm32f4xx_rcc.c ****   * @brief  Enables or disables the AHB3 peripheral clock during Low Power (Sleep) mode.
1504:emWin/config/stm32f4xx_rcc.c ****   * @note   Peripheral clock gating in SLEEP mode can be used to further reduce
1505:emWin/config/stm32f4xx_rcc.c ****   *         power consumption.
1506:emWin/config/stm32f4xx_rcc.c ****   * @note   After wakeup from SLEEP mode, the peripheral clock is enabled again.
1507:emWin/config/stm32f4xx_rcc.c ****   * @note   By default, all peripheral clocks are enabled during SLEEP mode.
1508:emWin/config/stm32f4xx_rcc.c ****   * @param  RCC_AHBPeriph: specifies the AHB3 peripheral to gates its clock.
1509:emWin/config/stm32f4xx_rcc.c ****   *          This parameter must be: RCC_AHB3Periph_FSMC
1510:emWin/config/stm32f4xx_rcc.c ****   * @param  NewState: new state of the specified peripheral clock.
1511:emWin/config/stm32f4xx_rcc.c ****   *          This parameter can be: ENABLE or DISABLE.
1512:emWin/config/stm32f4xx_rcc.c ****   * @retval None
1513:emWin/config/stm32f4xx_rcc.c ****   */
1514:emWin/config/stm32f4xx_rcc.c **** void RCC_AHB3PeriphClockLPModeCmd(uint32_t RCC_AHB3Periph, FunctionalState NewState)
1515:emWin/config/stm32f4xx_rcc.c **** {
 2369              		.loc 1 1515 0
 2370              		.cfi_startproc
 2371              		@ args = 0, pretend = 0, frame = 0
 2372              		@ frame_needed = 0, uses_anonymous_args = 0
 2373              	.LVL232:
1516:emWin/config/stm32f4xx_rcc.c ****   /* Check the parameters */
1517:emWin/config/stm32f4xx_rcc.c ****   assert_param(IS_RCC_AHB3_PERIPH(RCC_AHB3Periph));
 2374              		.loc 1 1517 0
 2375 0000 30F00103 		bics	r3, r0, #1	@ tmp127, RCC_AHB3Periph,
1515:emWin/config/stm32f4xx_rcc.c ****   /* Check the parameters */
 2376              		.loc 1 1515 0
 2377 0004 70B5     		push	{r4, r5, r6, lr}	@
 2378              		.cfi_def_cfa_offset 16
 2379              		.cfi_offset 4, -16
 2380              		.cfi_offset 5, -12
 2381              		.cfi_offset 6, -8
 2382              		.cfi_offset 14, -4
1515:emWin/config/stm32f4xx_rcc.c ****   /* Check the parameters */
 2383              		.loc 1 1515 0
 2384 0006 0546     		mov	r5, r0	@ RCC_AHB3Periph, RCC_AHB3Periph
 2385 0008 0E46     		mov	r6, r1	@ NewState, NewState
 2386              		.loc 1 1517 0
 2387 000a 00D1     		bne	.L313	@,
 2388              		.loc 1 1517 0 is_stmt 0 discriminator 2
 2389 000c 20B9     		cbnz	r0, .L314	@ RCC_AHB3Periph,
 2390              	.L313:
 2391              		.loc 1 1517 0 discriminator 3
 2392 000e 0B48     		ldr	r0, .L320	@,
 2393              	.LVL233:
 2394 0010 40F2ED51 		movw	r1, #1517	@,
 2395              	.LVL234:
 2396 0014 FFF7FEFF 		bl	assert_failed	@
 2397              	.LVL235:
 2398              	.L314:
1518:emWin/config/stm32f4xx_rcc.c ****   assert_param(IS_FUNCTIONAL_STATE(NewState));
 2399              		.loc 1 1518 0 is_stmt 1
 2400 0018 012E     		cmp	r6, #1	@ NewState,
ARM GAS  C:\cygwin\tmp\cclI5f77.s 			page 71


 2401 001a 094C     		ldr	r4, .L320+4	@ tmp126,
 2402 001c 05D9     		bls	.L315	@,
 2403              		.loc 1 1518 0 is_stmt 0 discriminator 1
 2404 001e 0748     		ldr	r0, .L320	@,
 2405 0020 40F2EE51 		movw	r1, #1518	@,
 2406 0024 FFF7FEFF 		bl	assert_failed	@
 2407              	.LVL236:
 2408 0028 00E0     		b	.L316	@
 2409              	.L315:
1519:emWin/config/stm32f4xx_rcc.c ****   if (NewState != DISABLE)
 2410              		.loc 1 1519 0 is_stmt 1
 2411 002a 16B1     		cbz	r6, .L317	@ NewState,
 2412              	.L316:
1520:emWin/config/stm32f4xx_rcc.c ****   {
1521:emWin/config/stm32f4xx_rcc.c ****     RCC->AHB3LPENR |= RCC_AHB3Periph;
 2413              		.loc 1 1521 0
 2414 002c A36D     		ldr	r3, [r4, #88]	@ D.8475, MEM[(struct RCC_TypeDef *)1073887232B].AHB3LPENR
 2415 002e 1D43     		orrs	r5, r5, r3	@, D.8475, RCC_AHB3Periph, D.8475
 2416              	.LVL237:
 2417 0030 02E0     		b	.L319	@
 2418              	.LVL238:
 2419              	.L317:
1522:emWin/config/stm32f4xx_rcc.c ****   }
1523:emWin/config/stm32f4xx_rcc.c ****   else
1524:emWin/config/stm32f4xx_rcc.c ****   {
1525:emWin/config/stm32f4xx_rcc.c ****     RCC->AHB3LPENR &= ~RCC_AHB3Periph;
 2420              		.loc 1 1525 0
 2421 0032 A36D     		ldr	r3, [r4, #88]	@ D.8475, MEM[(struct RCC_TypeDef *)1073887232B].AHB3LPENR
 2422 0034 23EA0505 		bic	r5, r3, r5	@ D.8475, D.8475, RCC_AHB3Periph
 2423              	.LVL239:
 2424              	.L319:
 2425 0038 A565     		str	r5, [r4, #88]	@ D.8475,
 2426 003a 70BD     		pop	{r4, r5, r6, pc}	@
 2427              	.L321:
 2428              		.align	2
 2429              	.L320:
 2430 003c 00000000 		.word	.LC0
 2431 0040 00380240 		.word	1073887232
 2432              		.cfi_endproc
 2433              	.LFE159:
 2434              		.size	RCC_AHB3PeriphClockLPModeCmd, .-RCC_AHB3PeriphClockLPModeCmd
 2435              		.section	.text.RCC_APB1PeriphClockLPModeCmd,"ax",%progbits
 2436              		.align	1
 2437              		.global	RCC_APB1PeriphClockLPModeCmd
 2438              		.thumb
 2439              		.thumb_func
 2440              		.type	RCC_APB1PeriphClockLPModeCmd, %function
 2441              	RCC_APB1PeriphClockLPModeCmd:
 2442              	.LFB160:
1526:emWin/config/stm32f4xx_rcc.c ****   }
1527:emWin/config/stm32f4xx_rcc.c **** }
1528:emWin/config/stm32f4xx_rcc.c **** 
1529:emWin/config/stm32f4xx_rcc.c **** /**
1530:emWin/config/stm32f4xx_rcc.c ****   * @brief  Enables or disables the APB1 peripheral clock during Low Power (Sleep) mode.
1531:emWin/config/stm32f4xx_rcc.c ****   * @note   Peripheral clock gating in SLEEP mode can be used to further reduce
1532:emWin/config/stm32f4xx_rcc.c ****   *         power consumption.
1533:emWin/config/stm32f4xx_rcc.c ****   * @note   After wakeup from SLEEP mode, the peripheral clock is enabled again.
ARM GAS  C:\cygwin\tmp\cclI5f77.s 			page 72


1534:emWin/config/stm32f4xx_rcc.c ****   * @note   By default, all peripheral clocks are enabled during SLEEP mode.
1535:emWin/config/stm32f4xx_rcc.c ****   * @param  RCC_APB1Periph: specifies the APB1 peripheral to gates its clock.
1536:emWin/config/stm32f4xx_rcc.c ****   *          This parameter can be any combination of the following values:
1537:emWin/config/stm32f4xx_rcc.c ****   *            @arg RCC_APB1Periph_TIM2:   TIM2 clock
1538:emWin/config/stm32f4xx_rcc.c ****   *            @arg RCC_APB1Periph_TIM3:   TIM3 clock
1539:emWin/config/stm32f4xx_rcc.c ****   *            @arg RCC_APB1Periph_TIM4:   TIM4 clock
1540:emWin/config/stm32f4xx_rcc.c ****   *            @arg RCC_APB1Periph_TIM5:   TIM5 clock
1541:emWin/config/stm32f4xx_rcc.c ****   *            @arg RCC_APB1Periph_TIM6:   TIM6 clock
1542:emWin/config/stm32f4xx_rcc.c ****   *            @arg RCC_APB1Periph_TIM7:   TIM7 clock
1543:emWin/config/stm32f4xx_rcc.c ****   *            @arg RCC_APB1Periph_TIM12:  TIM12 clock
1544:emWin/config/stm32f4xx_rcc.c ****   *            @arg RCC_APB1Periph_TIM13:  TIM13 clock
1545:emWin/config/stm32f4xx_rcc.c ****   *            @arg RCC_APB1Periph_TIM14:  TIM14 clock
1546:emWin/config/stm32f4xx_rcc.c ****   *            @arg RCC_APB1Periph_WWDG:   WWDG clock
1547:emWin/config/stm32f4xx_rcc.c ****   *            @arg RCC_APB1Periph_SPI2:   SPI2 clock
1548:emWin/config/stm32f4xx_rcc.c ****   *            @arg RCC_APB1Periph_SPI3:   SPI3 clock
1549:emWin/config/stm32f4xx_rcc.c ****   *            @arg RCC_APB1Periph_USART2: USART2 clock
1550:emWin/config/stm32f4xx_rcc.c ****   *            @arg RCC_APB1Periph_USART3: USART3 clock
1551:emWin/config/stm32f4xx_rcc.c ****   *            @arg RCC_APB1Periph_UART4:  UART4 clock
1552:emWin/config/stm32f4xx_rcc.c ****   *            @arg RCC_APB1Periph_UART5:  UART5 clock
1553:emWin/config/stm32f4xx_rcc.c ****   *            @arg RCC_APB1Periph_I2C1:   I2C1 clock
1554:emWin/config/stm32f4xx_rcc.c ****   *            @arg RCC_APB1Periph_I2C2:   I2C2 clock
1555:emWin/config/stm32f4xx_rcc.c ****   *            @arg RCC_APB1Periph_I2C3:   I2C3 clock
1556:emWin/config/stm32f4xx_rcc.c ****   *            @arg RCC_APB1Periph_CAN1:   CAN1 clock
1557:emWin/config/stm32f4xx_rcc.c ****   *            @arg RCC_APB1Periph_CAN2:   CAN2 clock
1558:emWin/config/stm32f4xx_rcc.c ****   *            @arg RCC_APB1Periph_PWR:    PWR clock
1559:emWin/config/stm32f4xx_rcc.c ****   *            @arg RCC_APB1Periph_DAC:    DAC clock
1560:emWin/config/stm32f4xx_rcc.c ****   * @param  NewState: new state of the specified peripheral clock.
1561:emWin/config/stm32f4xx_rcc.c ****   *          This parameter can be: ENABLE or DISABLE.
1562:emWin/config/stm32f4xx_rcc.c ****   * @retval None
1563:emWin/config/stm32f4xx_rcc.c ****   */
1564:emWin/config/stm32f4xx_rcc.c **** void RCC_APB1PeriphClockLPModeCmd(uint32_t RCC_APB1Periph, FunctionalState NewState)
1565:emWin/config/stm32f4xx_rcc.c **** {
 2443              		.loc 1 1565 0
 2444              		.cfi_startproc
 2445              		@ args = 0, pretend = 0, frame = 0
 2446              		@ frame_needed = 0, uses_anonymous_args = 0
 2447              	.LVL240:
1566:emWin/config/stm32f4xx_rcc.c ****   /* Check the parameters */
1567:emWin/config/stm32f4xx_rcc.c ****   assert_param(IS_RCC_APB1_PERIPH(RCC_APB1Periph));
 2448              		.loc 1 1567 0
 2449 0000 0E4B     		ldr	r3, .L330	@ D.8478,
 2450 0002 0340     		ands	r3, r3, r0	@, D.8478, D.8478, RCC_APB1Periph
1565:emWin/config/stm32f4xx_rcc.c ****   /* Check the parameters */
 2451              		.loc 1 1565 0
 2452 0004 70B5     		push	{r4, r5, r6, lr}	@
 2453              		.cfi_def_cfa_offset 16
 2454              		.cfi_offset 4, -16
 2455              		.cfi_offset 5, -12
 2456              		.cfi_offset 6, -8
 2457              		.cfi_offset 14, -4
1565:emWin/config/stm32f4xx_rcc.c ****   /* Check the parameters */
 2458              		.loc 1 1565 0
 2459 0006 0546     		mov	r5, r0	@ RCC_APB1Periph, RCC_APB1Periph
 2460 0008 0E46     		mov	r6, r1	@ NewState, NewState
 2461              		.loc 1 1567 0
 2462 000a 03B9     		cbnz	r3, .L323	@ D.8478,
 2463              		.loc 1 1567 0 is_stmt 0 discriminator 2
ARM GAS  C:\cygwin\tmp\cclI5f77.s 			page 73


 2464 000c 20B9     		cbnz	r0, .L324	@ RCC_APB1Periph,
 2465              	.L323:
 2466              		.loc 1 1567 0 discriminator 3
 2467 000e 0C48     		ldr	r0, .L330+4	@,
 2468              	.LVL241:
 2469 0010 40F21F61 		movw	r1, #1567	@,
 2470              	.LVL242:
 2471 0014 FFF7FEFF 		bl	assert_failed	@
 2472              	.LVL243:
 2473              	.L324:
1568:emWin/config/stm32f4xx_rcc.c ****   assert_param(IS_FUNCTIONAL_STATE(NewState));
 2474              		.loc 1 1568 0 is_stmt 1
 2475 0018 012E     		cmp	r6, #1	@ NewState,
 2476 001a 0A4C     		ldr	r4, .L330+8	@ tmp127,
 2477 001c 05D9     		bls	.L325	@,
 2478              		.loc 1 1568 0 is_stmt 0 discriminator 1
 2479 001e 0848     		ldr	r0, .L330+4	@,
 2480 0020 4FF4C461 		mov	r1, #1568	@,
 2481 0024 FFF7FEFF 		bl	assert_failed	@
 2482              	.LVL244:
 2483 0028 00E0     		b	.L326	@
 2484              	.L325:
1569:emWin/config/stm32f4xx_rcc.c ****   if (NewState != DISABLE)
 2485              		.loc 1 1569 0 is_stmt 1
 2486 002a 16B1     		cbz	r6, .L327	@ NewState,
 2487              	.L326:
1570:emWin/config/stm32f4xx_rcc.c ****   {
1571:emWin/config/stm32f4xx_rcc.c ****     RCC->APB1LPENR |= RCC_APB1Periph;
 2488              		.loc 1 1571 0
 2489 002c 236E     		ldr	r3, [r4, #96]	@ D.8478, MEM[(struct RCC_TypeDef *)1073887232B].APB1LPENR
 2490 002e 1D43     		orrs	r5, r5, r3	@, D.8478, RCC_APB1Periph, D.8478
 2491              	.LVL245:
 2492 0030 02E0     		b	.L329	@
 2493              	.LVL246:
 2494              	.L327:
1572:emWin/config/stm32f4xx_rcc.c ****   }
1573:emWin/config/stm32f4xx_rcc.c ****   else
1574:emWin/config/stm32f4xx_rcc.c ****   {
1575:emWin/config/stm32f4xx_rcc.c ****     RCC->APB1LPENR &= ~RCC_APB1Periph;
 2495              		.loc 1 1575 0
 2496 0032 236E     		ldr	r3, [r4, #96]	@ D.8478, MEM[(struct RCC_TypeDef *)1073887232B].APB1LPENR
 2497 0034 23EA0505 		bic	r5, r3, r5	@ D.8478, D.8478, RCC_APB1Periph
 2498              	.LVL247:
 2499              	.L329:
 2500 0038 2566     		str	r5, [r4, #96]	@ D.8478,
 2501 003a 70BD     		pop	{r4, r5, r6, pc}	@
 2502              	.L331:
 2503              		.align	2
 2504              	.L330:
 2505 003c 003601C9 		.word	-922667520
 2506 0040 00000000 		.word	.LC0
 2507 0044 00380240 		.word	1073887232
 2508              		.cfi_endproc
 2509              	.LFE160:
 2510              		.size	RCC_APB1PeriphClockLPModeCmd, .-RCC_APB1PeriphClockLPModeCmd
 2511              		.section	.text.RCC_APB2PeriphClockLPModeCmd,"ax",%progbits
 2512              		.align	1
ARM GAS  C:\cygwin\tmp\cclI5f77.s 			page 74


 2513              		.global	RCC_APB2PeriphClockLPModeCmd
 2514              		.thumb
 2515              		.thumb_func
 2516              		.type	RCC_APB2PeriphClockLPModeCmd, %function
 2517              	RCC_APB2PeriphClockLPModeCmd:
 2518              	.LFB161:
1576:emWin/config/stm32f4xx_rcc.c ****   }
1577:emWin/config/stm32f4xx_rcc.c **** }
1578:emWin/config/stm32f4xx_rcc.c **** 
1579:emWin/config/stm32f4xx_rcc.c **** /**
1580:emWin/config/stm32f4xx_rcc.c ****   * @brief  Enables or disables the APB2 peripheral clock during Low Power (Sleep) mode.
1581:emWin/config/stm32f4xx_rcc.c ****   * @note   Peripheral clock gating in SLEEP mode can be used to further reduce
1582:emWin/config/stm32f4xx_rcc.c ****   *         power consumption.
1583:emWin/config/stm32f4xx_rcc.c ****   * @note   After wakeup from SLEEP mode, the peripheral clock is enabled again.
1584:emWin/config/stm32f4xx_rcc.c ****   * @note   By default, all peripheral clocks are enabled during SLEEP mode.
1585:emWin/config/stm32f4xx_rcc.c ****   * @param  RCC_APB2Periph: specifies the APB2 peripheral to gates its clock.
1586:emWin/config/stm32f4xx_rcc.c ****   *          This parameter can be any combination of the following values:
1587:emWin/config/stm32f4xx_rcc.c ****   *            @arg RCC_APB2Periph_TIM1:   TIM1 clock
1588:emWin/config/stm32f4xx_rcc.c ****   *            @arg RCC_APB2Periph_TIM8:   TIM8 clock
1589:emWin/config/stm32f4xx_rcc.c ****   *            @arg RCC_APB2Periph_USART1: USART1 clock
1590:emWin/config/stm32f4xx_rcc.c ****   *            @arg RCC_APB2Periph_USART6: USART6 clock
1591:emWin/config/stm32f4xx_rcc.c ****   *            @arg RCC_APB2Periph_ADC1:   ADC1 clock
1592:emWin/config/stm32f4xx_rcc.c ****   *            @arg RCC_APB2Periph_ADC2:   ADC2 clock
