ARM GAS  C:\cygwin\tmp\ccdPOYOb.s 			page 1


   1              		.syntax unified
   2              		.cpu cortex-m4
   3              		.fpu softvfp
   4              		.eabi_attribute 20, 1	@ Tag_ABI_FP_denormal
   5              		.eabi_attribute 21, 1	@ Tag_ABI_FP_exceptions
   6              		.eabi_attribute 23, 3	@ Tag_ABI_FP_number_model
   7              		.eabi_attribute 24, 1	@ Tag_ABI_align8_needed
   8              		.eabi_attribute 25, 1	@ Tag_ABI_align8_preserved
   9              		.eabi_attribute 26, 1	@ Tag_ABI_enum_size
  10              		.eabi_attribute 30, 4	@ Tag_ABI_optimization_goals
  11              		.eabi_attribute 34, 1	@ Tag_CPU_unaligned_access
  12              		.eabi_attribute 18, 4	@ Tag_ABI_PCS_wchar_t
  13              		.file	"stm32f4xx_it.c"
  14              	@ GNU C (GNU Tools for ARM Embedded Processors) version 4.9.3 20141119 (release) [ARM/embedded-4_9-
  15              	@	compiled by GNU C version 4.7.4, GMP version 4.3.2, MPFR version 2.4.2, MPC version 0.8.1
  16              	@ GGC heuristics: --param ggc-min-expand=100 --param ggc-min-heapsize=131072
  17              	@ options passed:  -I . -I Inc -I gui -I emWin -I emWin/config
  18              	@ -I ../STM32Cube_FW_F4_V1.4.0/Drivers/CMSIS/Include
  19              	@ -I ../STM32Cube_FW_F4_V1.4.0/Drivers/CMSIS/Device/ST/STM32F4xx/Include
  20              	@ -I ../STM32Cube_FW_F4_V1.4.0/Drivers/STM32F4xx_HAL_Driver/Inc
  21              	@ -I ../STM32Cube_FW_F4_V1.4.0/Drivers/CMSIS/Include
  22              	@ -I ../STM32Cube_FW_F4_V1.4.0/Middlewares/ST/STemWin/inc
  23              	@ -I .drivers/modbus -I ./drivers/display -imultilib armv7e-m
  24              	@ -iprefix c:\program files\gnu tools arm embedded\4.9 2014q4\bin\../lib/gcc/arm-none-eabi/4.9.3/
  25              	@ -isysroot c:\program files\gnu tools arm embedded\4.9 2014q4\bin\../arm-none-eabi
  26              	@ -MD out/stm32f4xx_it.d -MF out/stm32f4xx_it.d -MP -MQ out/stm32f4xx_it.o
  27              	@ -D__USES_INITFINI__ -D USE_HAL_DRIVER -D STM32F4XX -D HSE_VALUE=8000000
  28              	@ -D __STARTUP_CLEAR_BSS -D STM32F407VG -D USE_FULL_ASSERT -D __FPU_USED
  29              	@ Src/stm32f4xx_it.c -mcpu=cortex-m4 -mthumb
  30              	@ -auxbase-strip out/stm32f4xx_it.o -g -ggdb3 -Os -Os -Wall
  31              	@ -Wstrict-prototypes -Wextra -std=gnu90 -ffunction-sections
  32              	@ -fdata-sections -fverbose-asm
  33              	@ options enabled:  -faggressive-loop-optimizations -fauto-inc-dec
  34              	@ -fbranch-count-reg -fcaller-saves -fcombine-stack-adjustments -fcommon
  35              	@ -fcompare-elim -fcprop-registers -fcrossjumping -fcse-follow-jumps
  36              	@ -fdata-sections -fdefer-pop -fdelete-null-pointer-checks -fdevirtualize
  37              	@ -fdevirtualize-speculatively -fdwarf2-cfi-asm -fearly-inlining
  38              	@ -feliminate-unused-debug-types -fexpensive-optimizations
  39              	@ -fforward-propagate -ffunction-cse -ffunction-sections -fgcse -fgcse-lm
  40              	@ -fgnu-runtime -fgnu-unique -fguess-branch-probability
  41              	@ -fhoist-adjacent-loads -fident -fif-conversion -fif-conversion2
  42              	@ -findirect-inlining -finline -finline-atomics -finline-functions
  43              	@ -finline-functions-called-once -finline-small-functions -fipa-cp
  44              	@ -fipa-profile -fipa-pure-const -fipa-reference -fipa-sra
  45              	@ -fira-hoist-pressure -fira-share-save-slots -fira-share-spill-slots
  46              	@ -fisolate-erroneous-paths-dereference -fivopts -fkeep-static-consts
  47              	@ -fleading-underscore -fmath-errno -fmerge-constants -fmerge-debug-strings
  48              	@ -fomit-frame-pointer -foptimize-sibling-calls -fpartial-inlining
  49              	@ -fpeephole -fpeephole2 -fprefetch-loop-arrays -freg-struct-return
  50              	@ -freorder-blocks -freorder-functions -frerun-cse-after-loop
  51              	@ -fsched-critical-path-heuristic -fsched-dep-count-heuristic
  52              	@ -fsched-group-heuristic -fsched-interblock -fsched-last-insn-heuristic
  53              	@ -fsched-pressure -fsched-rank-heuristic -fsched-spec
  54              	@ -fsched-spec-insn-heuristic -fsched-stalled-insns-dep -fschedule-insns2
  55              	@ -fsection-anchors -fshow-column -fsigned-zeros -fsplit-ivs-in-unroller
  56              	@ -fsplit-wide-types -fstrict-aliasing -fstrict-overflow
  57              	@ -fstrict-volatile-bitfields -fsync-libcalls -fthread-jumps
ARM GAS  C:\cygwin\tmp\ccdPOYOb.s 			page 2


  58              	@ -ftoplevel-reorder -ftrapping-math -ftree-bit-ccp -ftree-builtin-call-dce
  59              	@ -ftree-ccp -ftree-ch -ftree-coalesce-vars -ftree-copy-prop
  60              	@ -ftree-copyrename -ftree-cselim -ftree-dce -ftree-dominator-opts
  61              	@ -ftree-dse -ftree-forwprop -ftree-fre -ftree-loop-if-convert
  62              	@ -ftree-loop-im -ftree-loop-ivcanon -ftree-loop-optimize
  63              	@ -ftree-parallelize-loops= -ftree-phiprop -ftree-pre -ftree-pta
  64              	@ -ftree-reassoc -ftree-scev-cprop -ftree-sink -ftree-slsr -ftree-sra
  65              	@ -ftree-switch-conversion -ftree-tail-merge -ftree-ter -ftree-vrp
  66              	@ -funit-at-a-time -fvar-tracking -fvar-tracking-assignments -fverbose-asm
  67              	@ -fzero-initialized-in-bss -mlittle-endian -mlra
  68              	@ -mpic-data-is-text-relative -msched-prolog -mthumb -munaligned-access
  69              	@ -mvectorize-with-neon-quad
  70              	
  71              		.text
  72              	.Ltext0:
  73              		.cfi_sections	.debug_frame
  74              		.section	.text.delay_msec,"ax",%progbits
  75              		.align	1
  76              		.global	delay_msec
  77              		.thumb
  78              		.thumb_func
  79              		.type	delay_msec, %function
  80              	delay_msec:
  81              	.LFB123:
  82              		.file 1 "Src/stm32f4xx_it.c"
   1:Src/stm32f4xx_it.c **** /**
   2:Src/stm32f4xx_it.c ****   ******************************************************************************
   3:Src/stm32f4xx_it.c ****   * @file    I2C/I2C_TwoBoards_ComDMA/Src/stm32f4xx_it.c 
   4:Src/stm32f4xx_it.c ****   * @author  MCD Application Team
   5:Src/stm32f4xx_it.c ****   * @version V1.2.0
   6:Src/stm32f4xx_it.c ****   * @date    26-December-2014
   7:Src/stm32f4xx_it.c ****   * @brief   Main Interrupt Service Routines.
   8:Src/stm32f4xx_it.c ****   *          This file provides template for all exceptions handler and 
   9:Src/stm32f4xx_it.c ****   *          peripherals interrupt service routine.
  10:Src/stm32f4xx_it.c ****   ******************************************************************************
  11:Src/stm32f4xx_it.c ****   * @attention
  12:Src/stm32f4xx_it.c ****   *
  13:Src/stm32f4xx_it.c ****   * <h2><center>&copy; COPYRIGHT(c) 2014 STMicroelectronics</center></h2>
  14:Src/stm32f4xx_it.c ****   *
  15:Src/stm32f4xx_it.c ****   * Redistribution and use in source and binary forms, with or without modification,
  16:Src/stm32f4xx_it.c ****   * are permitted provided that the following conditions are met:
  17:Src/stm32f4xx_it.c ****   *   1. Redistributions of source code must retain the above copyright notice,
  18:Src/stm32f4xx_it.c ****   *      this list of conditions and the following disclaimer.
  19:Src/stm32f4xx_it.c ****   *   2. Redistributions in binary form must reproduce the above copyright notice,
  20:Src/stm32f4xx_it.c ****   *      this list of conditions and the following disclaimer in the documentation
  21:Src/stm32f4xx_it.c ****   *      and/or other materials provided with the distribution.
  22:Src/stm32f4xx_it.c ****   *   3. Neither the name of STMicroelectronics nor the names of its contributors
  23:Src/stm32f4xx_it.c ****   *      may be used to endorse or promote products derived from this software
  24:Src/stm32f4xx_it.c ****   *      without specific prior written permission.
  25:Src/stm32f4xx_it.c ****   *
  26:Src/stm32f4xx_it.c ****   * THIS SOFTWARE IS PROVIDED BY THE COPYRIGHT HOLDERS AND CONTRIBUTORS "AS IS"
  27:Src/stm32f4xx_it.c ****   * AND ANY EXPRESS OR IMPLIED WARRANTIES, INCLUDING, BUT NOT LIMITED TO, THE
  28:Src/stm32f4xx_it.c ****   * IMPLIED WARRANTIES OF MERCHANTABILITY AND FITNESS FOR A PARTICULAR PURPOSE ARE
  29:Src/stm32f4xx_it.c ****   * DISCLAIMED. IN NO EVENT SHALL THE COPYRIGHT HOLDER OR CONTRIBUTORS BE LIABLE
  30:Src/stm32f4xx_it.c ****   * FOR ANY DIRECT, INDIRECT, INCIDENTAL, SPECIAL, EXEMPLARY, OR CONSEQUENTIAL
  31:Src/stm32f4xx_it.c ****   * DAMAGES (INCLUDING, BUT NOT LIMITED TO, PROCUREMENT OF SUBSTITUTE GOODS OR
  32:Src/stm32f4xx_it.c ****   * SERVICES; LOSS OF USE, DATA, OR PROFITS; OR BUSINESS INTERRUPTION) HOWEVER
ARM GAS  C:\cygwin\tmp\ccdPOYOb.s 			page 3


  33:Src/stm32f4xx_it.c ****   * CAUSED AND ON ANY THEORY OF LIABILITY, WHETHER IN CONTRACT, STRICT LIABILITY,
  34:Src/stm32f4xx_it.c ****   * OR TORT (INCLUDING NEGLIGENCE OR OTHERWISE) ARISING IN ANY WAY OUT OF THE USE
  35:Src/stm32f4xx_it.c ****   * OF THIS SOFTWARE, EVEN IF ADVISED OF THE POSSIBILITY OF SUCH DAMAGE.
  36:Src/stm32f4xx_it.c ****   *
  37:Src/stm32f4xx_it.c ****   ******************************************************************************
  38:Src/stm32f4xx_it.c ****   */
  39:Src/stm32f4xx_it.c **** /* Includes ------------------------------------------------------------------*/
  40:Src/stm32f4xx_it.c **** #include "main.h"
  41:Src/stm32f4xx_it.c **** #include "stm32f4xx_it.h"  
  42:Src/stm32f4xx_it.c **** 
  43:Src/stm32f4xx_it.c **** /** @addtogroup STM32F4xx_HAL_Examples
  44:Src/stm32f4xx_it.c ****   * @{
  45:Src/stm32f4xx_it.c ****   */
  46:Src/stm32f4xx_it.c **** 
  47:Src/stm32f4xx_it.c **** /** @addtogroup I2C_TwoBoards_ComDMA
  48:Src/stm32f4xx_it.c ****   * @{
  49:Src/stm32f4xx_it.c ****   */
  50:Src/stm32f4xx_it.c **** 
  51:Src/stm32f4xx_it.c **** /* Private typedef -----------------------------------------------------------*/
  52:Src/stm32f4xx_it.c **** /* Private define ------------------------------------------------------------*/
  53:Src/stm32f4xx_it.c **** /* Private macro -------------------------------------------------------------*/
  54:Src/stm32f4xx_it.c **** /* Exported variables ---------------------------------------------------------*/
  55:Src/stm32f4xx_it.c **** bool gui_Exec = false;
  56:Src/stm32f4xx_it.c **** bool Touch_Flagged = false;
  57:Src/stm32f4xx_it.c **** /* Private variables ---------------------------------------------------------*/
  58:Src/stm32f4xx_it.c **** static volatile uint32_t touch_timer=0;
  59:Src/stm32f4xx_it.c **** static volatile uint32_t msec_counter = 0;
  60:Src/stm32f4xx_it.c **** static volatile uint32_t Timeout_Timer_0 = 0;
  61:Src/stm32f4xx_it.c **** 
  62:Src/stm32f4xx_it.c **** /* I2C handler declared in "main.c" file */
  63:Src/stm32f4xx_it.c **** extern I2C_HandleTypeDef I2cHandle;
  64:Src/stm32f4xx_it.c **** extern UART_HandleTypeDef UartHandle;
  65:Src/stm32f4xx_it.c **** 
  66:Src/stm32f4xx_it.c **** /* Private function prototypes -----------------------------------------------*/
  67:Src/stm32f4xx_it.c **** /* Private functions ---------------------------------------------------------*/
  68:Src/stm32f4xx_it.c **** /**
  69:Src/stm32f4xx_it.c ****   * @brief	Delay for the given milliseconds.
  70:Src/stm32f4xx_it.c ****   * @param	None
  71:Src/stm32f4xx_it.c ****   * @retval	None
  72:Src/stm32f4xx_it.c ****   */
  73:Src/stm32f4xx_it.c **** void delay_msec(uint32_t msec){
  83              		.loc 1 73 0
  84              		.cfi_startproc
  85              		@ args = 0, pretend = 0, frame = 0
  86              		@ frame_needed = 0, uses_anonymous_args = 0
  87              		@ link register save eliminated.
  88              	.LVL0:
  74:Src/stm32f4xx_it.c ****   uint32_t target;
  75:Src/stm32f4xx_it.c ****   
  76:Src/stm32f4xx_it.c ****   target = msec_counter + msec;
  89              		.loc 1 76 0
  90 0000 034B     		ldr	r3, .L5	@ tmp114,
  91 0002 1A68     		ldr	r2, [r3]	@ D.10951, msec_counter
  92 0004 1044     		add	r0, r0, r2	@ target, D.10951
  93              	.LVL1:
  94              	.L2:
  77:Src/stm32f4xx_it.c ****   while(msec_counter < target){
ARM GAS  C:\cygwin\tmp\ccdPOYOb.s 			page 4


  95              		.loc 1 77 0 discriminator 1
  96 0006 1A68     		ldr	r2, [r3]	@ D.10951, msec_counter
  97 0008 8242     		cmp	r2, r0	@ D.10951, target
  98 000a FCD3     		bcc	.L2	@,
  78:Src/stm32f4xx_it.c ****   	;
  79:Src/stm32f4xx_it.c ****   }
  80:Src/stm32f4xx_it.c **** }
  99              		.loc 1 80 0
 100 000c 7047     		bx	lr	@
 101              	.L6:
 102 000e 00BF     		.align	2
 103              	.L5:
 104 0010 00000000 		.word	.LANCHOR0
 105              		.cfi_endproc
 106              	.LFE123:
 107              		.size	delay_msec, .-delay_msec
 108              		.section	.text.timeout_timer,"ax",%progbits
 109              		.align	1
 110              		.global	timeout_timer
 111              		.thumb
 112              		.thumb_func
 113              		.type	timeout_timer, %function
 114              	timeout_timer:
 115              	.LFB124:
  81:Src/stm32f4xx_it.c **** 
  82:Src/stm32f4xx_it.c **** /**
  83:Src/stm32f4xx_it.c ****   * @brief	Count timeOuts.
  84:Src/stm32f4xx_it.c ****   * @param	None
  85:Src/stm32f4xx_it.c ****   * @retval	time
  86:Src/stm32f4xx_it.c ****   */
  87:Src/stm32f4xx_it.c **** uint32_t timeout_timer(void){
 116              		.loc 1 87 0
 117              		.cfi_startproc
 118              		@ args = 0, pretend = 0, frame = 0
 119              		@ frame_needed = 0, uses_anonymous_args = 0
 120              		@ link register save eliminated.
  88:Src/stm32f4xx_it.c **** 	uint32_t time, prev_time;
  89:Src/stm32f4xx_it.c **** 	
  90:Src/stm32f4xx_it.c **** 	time = Timeout_Timer_0;
 121              		.loc 1 90 0
 122 0000 014B     		ldr	r3, .L8	@ tmp112,
 123 0002 1868     		ldr	r0, [r3]	@ time, Timeout_Timer_0
 124              	.LVL2:
  91:Src/stm32f4xx_it.c **** 	
  92:Src/stm32f4xx_it.c **** 	return time;
  93:Src/stm32f4xx_it.c **** }
 125              		.loc 1 93 0
 126 0004 7047     		bx	lr	@
 127              	.L9:
 128 0006 00BF     		.align	2
 129              	.L8:
 130 0008 00000000 		.word	.LANCHOR1
 131              		.cfi_endproc
 132              	.LFE124:
 133              		.size	timeout_timer, .-timeout_timer
 134              		.section	.text.NMI_Handler,"ax",%progbits
 135              		.align	1
ARM GAS  C:\cygwin\tmp\ccdPOYOb.s 			page 5


 136              		.global	NMI_Handler
 137              		.thumb
 138              		.thumb_func
 139              		.type	NMI_Handler, %function
 140              	NMI_Handler:
 141              	.LFB125:
  94:Src/stm32f4xx_it.c **** 
  95:Src/stm32f4xx_it.c **** /******************************************************************************/
  96:Src/stm32f4xx_it.c **** /*            Cortex-M4 Processor Exceptions Handlers                         */
  97:Src/stm32f4xx_it.c **** /******************************************************************************/
  98:Src/stm32f4xx_it.c **** 
  99:Src/stm32f4xx_it.c **** /**
 100:Src/stm32f4xx_it.c ****   * @brief  This function handles NMI exception.
 101:Src/stm32f4xx_it.c ****   * @param  None
 102:Src/stm32f4xx_it.c ****   * @retval None
 103:Src/stm32f4xx_it.c ****   */
 104:Src/stm32f4xx_it.c **** void NMI_Handler(void)
 105:Src/stm32f4xx_it.c **** {
 142              		.loc 1 105 0
 143              		.cfi_startproc
 144              		@ args = 0, pretend = 0, frame = 0
 145              		@ frame_needed = 0, uses_anonymous_args = 0
 146              		@ link register save eliminated.
 147 0000 7047     		bx	lr	@
 148              		.cfi_endproc
 149              	.LFE125:
 150              		.size	NMI_Handler, .-NMI_Handler
 151              		.section	.text.HardFault_Handler,"ax",%progbits
 152              		.align	1
 153              		.global	HardFault_Handler
 154              		.thumb
 155              		.thumb_func
 156              		.type	HardFault_Handler, %function
 157              	HardFault_Handler:
 158              	.LFB126:
 106:Src/stm32f4xx_it.c **** }
 107:Src/stm32f4xx_it.c **** 
 108:Src/stm32f4xx_it.c **** /**
 109:Src/stm32f4xx_it.c ****   * @brief  This function handles Hard Fault exception.
 110:Src/stm32f4xx_it.c ****   * @param  None
 111:Src/stm32f4xx_it.c ****   * @retval None
 112:Src/stm32f4xx_it.c ****   */
 113:Src/stm32f4xx_it.c **** void HardFault_Handler(void)
 114:Src/stm32f4xx_it.c **** {
 159              		.loc 1 114 0
 160              		.cfi_startproc
 161              		@ Volatile: function does not return.
 162              		@ args = 0, pretend = 0, frame = 0
 163              		@ frame_needed = 0, uses_anonymous_args = 0
 164              		@ link register save eliminated.
 165              	.L12:
 115:Src/stm32f4xx_it.c ****   /* Go to infinite loop when Hard Fault exception occurs */
 116:Src/stm32f4xx_it.c ****   while (1)
 117:Src/stm32f4xx_it.c ****   {
 118:Src/stm32f4xx_it.c ****   }
 166              		.loc 1 118 0 discriminator 1
 167 0000 FEE7     		b	.L12	@
ARM GAS  C:\cygwin\tmp\ccdPOYOb.s 			page 6


 168              		.cfi_endproc
 169              	.LFE126:
 170              		.size	HardFault_Handler, .-HardFault_Handler
 171              		.section	.text.MemManage_Handler,"ax",%progbits
 172              		.align	1
 173              		.global	MemManage_Handler
 174              		.thumb
 175              		.thumb_func
 176              		.type	MemManage_Handler, %function
 177              	MemManage_Handler:
 178              	.LFB127:
 119:Src/stm32f4xx_it.c **** }
 120:Src/stm32f4xx_it.c **** 
 121:Src/stm32f4xx_it.c **** /**
 122:Src/stm32f4xx_it.c ****   * @brief  This function handles Memory Manage exception.
 123:Src/stm32f4xx_it.c ****   * @param  None
 124:Src/stm32f4xx_it.c ****   * @retval None
 125:Src/stm32f4xx_it.c ****   */
 126:Src/stm32f4xx_it.c **** void MemManage_Handler(void)
 127:Src/stm32f4xx_it.c **** {
 179              		.loc 1 127 0
 180              		.cfi_startproc
 181              		@ Volatile: function does not return.
 182              		@ args = 0, pretend = 0, frame = 0
 183              		@ frame_needed = 0, uses_anonymous_args = 0
 184              		@ link register save eliminated.
 185              	.L14:
 128:Src/stm32f4xx_it.c ****   /* Go to infinite loop when Memory Manage exception occurs */
 129:Src/stm32f4xx_it.c ****   while (1)
 130:Src/stm32f4xx_it.c ****   {
 131:Src/stm32f4xx_it.c ****   }
 186              		.loc 1 131 0 discriminator 1
 187 0000 FEE7     		b	.L14	@
 188              		.cfi_endproc
 189              	.LFE127:
 190              		.size	MemManage_Handler, .-MemManage_Handler
 191              		.section	.text.BusFault_Handler,"ax",%progbits
 192              		.align	1
 193              		.global	BusFault_Handler
 194              		.thumb
 195              		.thumb_func
 196              		.type	BusFault_Handler, %function
 197              	BusFault_Handler:
 198              	.LFB128:
 132:Src/stm32f4xx_it.c **** }
 133:Src/stm32f4xx_it.c **** 
 134:Src/stm32f4xx_it.c **** /**
 135:Src/stm32f4xx_it.c ****   * @brief  This function handles Bus Fault exception.
 136:Src/stm32f4xx_it.c ****   * @param  None
 137:Src/stm32f4xx_it.c ****   * @retval None
 138:Src/stm32f4xx_it.c ****   */
 139:Src/stm32f4xx_it.c **** void BusFault_Handler(void)
 140:Src/stm32f4xx_it.c **** {
 199              		.loc 1 140 0
 200              		.cfi_startproc
 201              		@ Volatile: function does not return.
 202              		@ args = 0, pretend = 0, frame = 0
ARM GAS  C:\cygwin\tmp\ccdPOYOb.s 			page 7


 203              		@ frame_needed = 0, uses_anonymous_args = 0
 204              		@ link register save eliminated.
 205              	.L16:
 141:Src/stm32f4xx_it.c ****   /* Go to infinite loop when Bus Fault exception occurs */
 142:Src/stm32f4xx_it.c ****   while (1)
 143:Src/stm32f4xx_it.c ****   {
 144:Src/stm32f4xx_it.c ****   }
 206              		.loc 1 144 0 discriminator 1
 207 0000 FEE7     		b	.L16	@
 208              		.cfi_endproc
 209              	.LFE128:
 210              		.size	BusFault_Handler, .-BusFault_Handler
 211              		.section	.text.UsageFault_Handler,"ax",%progbits
 212              		.align	1
 213              		.global	UsageFault_Handler
 214              		.thumb
 215              		.thumb_func
 216              		.type	UsageFault_Handler, %function
 217              	UsageFault_Handler:
 218              	.LFB129:
 145:Src/stm32f4xx_it.c **** }
 146:Src/stm32f4xx_it.c **** 
 147:Src/stm32f4xx_it.c **** /**
 148:Src/stm32f4xx_it.c ****   * @brief  This function handles Usage Fault exception.
 149:Src/stm32f4xx_it.c ****   * @param  None
 150:Src/stm32f4xx_it.c ****   * @retval None
 151:Src/stm32f4xx_it.c ****   */
 152:Src/stm32f4xx_it.c **** void UsageFault_Handler(void)
 153:Src/stm32f4xx_it.c **** {
 219              		.loc 1 153 0
 220              		.cfi_startproc
 221              		@ Volatile: function does not return.
 222              		@ args = 0, pretend = 0, frame = 0
 223              		@ frame_needed = 0, uses_anonymous_args = 0
 224              		@ link register save eliminated.
 225              	.L18:
 154:Src/stm32f4xx_it.c ****   /* Go to infinite loop when Usage Fault exception occurs */
 155:Src/stm32f4xx_it.c ****   while (1)
 156:Src/stm32f4xx_it.c ****   {
 157:Src/stm32f4xx_it.c ****   }
 226              		.loc 1 157 0 discriminator 1
 227 0000 FEE7     		b	.L18	@
 228              		.cfi_endproc
 229              	.LFE129:
 230              		.size	UsageFault_Handler, .-UsageFault_Handler
 231              		.section	.text.SVC_Handler,"ax",%progbits
 232              		.align	1
 233              		.global	SVC_Handler
 234              		.thumb
 235              		.thumb_func
 236              		.type	SVC_Handler, %function
 237              	SVC_Handler:
 238              	.LFB130:
 158:Src/stm32f4xx_it.c **** }
 159:Src/stm32f4xx_it.c **** 
 160:Src/stm32f4xx_it.c **** /**
 161:Src/stm32f4xx_it.c ****   * @brief  This function handles SVCall exception.
ARM GAS  C:\cygwin\tmp\ccdPOYOb.s 			page 8


 162:Src/stm32f4xx_it.c ****   * @param  None
 163:Src/stm32f4xx_it.c ****   * @retval None
 164:Src/stm32f4xx_it.c ****   */
 165:Src/stm32f4xx_it.c **** void SVC_Handler(void)
 166:Src/stm32f4xx_it.c **** {
 239              		.loc 1 166 0
 240              		.cfi_startproc
 241              		@ args = 0, pretend = 0, frame = 0
 242              		@ frame_needed = 0, uses_anonymous_args = 0
 243              		@ link register save eliminated.
 244 0000 7047     		bx	lr	@
 245              		.cfi_endproc
 246              	.LFE130:
 247              		.size	SVC_Handler, .-SVC_Handler
 248              		.section	.text.DebugMon_Handler,"ax",%progbits
 249              		.align	1
 250              		.global	DebugMon_Handler
 251              		.thumb
 252              		.thumb_func
 253              		.type	DebugMon_Handler, %function
 254              	DebugMon_Handler:
 255              	.LFB131:
 167:Src/stm32f4xx_it.c **** }
 168:Src/stm32f4xx_it.c **** 
 169:Src/stm32f4xx_it.c **** /**
 170:Src/stm32f4xx_it.c ****   * @brief  This function handles Debug Monitor exception.
 171:Src/stm32f4xx_it.c ****   * @param  None
 172:Src/stm32f4xx_it.c ****   * @retval None
 173:Src/stm32f4xx_it.c ****   */
 174:Src/stm32f4xx_it.c **** void DebugMon_Handler(void)
 175:Src/stm32f4xx_it.c **** {
 256              		.loc 1 175 0
 257              		.cfi_startproc
 258              		@ args = 0, pretend = 0, frame = 0
 259              		@ frame_needed = 0, uses_anonymous_args = 0
 260              		@ link register save eliminated.
 261 0000 7047     		bx	lr	@
 262              		.cfi_endproc
 263              	.LFE131:
 264              		.size	DebugMon_Handler, .-DebugMon_Handler
 265              		.section	.text.PendSV_Handler,"ax",%progbits
 266              		.align	1
 267              		.global	PendSV_Handler
 268              		.thumb
 269              		.thumb_func
 270              		.type	PendSV_Handler, %function
 271              	PendSV_Handler:
 272              	.LFB132:
 176:Src/stm32f4xx_it.c **** }
 177:Src/stm32f4xx_it.c **** 
 178:Src/stm32f4xx_it.c **** /**
 179:Src/stm32f4xx_it.c ****   * @brief  This function handles PendSVC exception.
 180:Src/stm32f4xx_it.c ****   * @param  None
 181:Src/stm32f4xx_it.c ****   * @retval None
 182:Src/stm32f4xx_it.c ****   */
 183:Src/stm32f4xx_it.c **** void PendSV_Handler(void)
 184:Src/stm32f4xx_it.c **** {
ARM GAS  C:\cygwin\tmp\ccdPOYOb.s 			page 9


 273              		.loc 1 184 0
 274              		.cfi_startproc
 275              		@ args = 0, pretend = 0, frame = 0
 276              		@ frame_needed = 0, uses_anonymous_args = 0
 277              		@ link register save eliminated.
 278 0000 7047     		bx	lr	@
 279              		.cfi_endproc
 280              	.LFE132:
 281              		.size	PendSV_Handler, .-PendSV_Handler
 282              		.section	.text.SysTick_Handler,"ax",%progbits
 283              		.align	1
 284              		.global	SysTick_Handler
 285              		.thumb
 286              		.thumb_func
 287              		.type	SysTick_Handler, %function
 288              	SysTick_Handler:
 289              	.LFB133:
 185:Src/stm32f4xx_it.c **** }
 186:Src/stm32f4xx_it.c **** 
 187:Src/stm32f4xx_it.c **** /**
 188:Src/stm32f4xx_it.c ****   * @brief  This function handles SysTick Handler.
 189:Src/stm32f4xx_it.c ****   * @param  None
 190:Src/stm32f4xx_it.c ****   * @retval None
 191:Src/stm32f4xx_it.c ****   */
 192:Src/stm32f4xx_it.c **** void SysTick_Handler(void)
 193:Src/stm32f4xx_it.c **** {
 290              		.loc 1 193 0
 291              		.cfi_startproc
 292              		@ args = 0, pretend = 0, frame = 0
 293              		@ frame_needed = 0, uses_anonymous_args = 0
 294              		.loc 1 193 0
 295 0000 08B5     		push	{r3, lr}	@
 296              		.cfi_def_cfa_offset 8
 297              		.cfi_offset 3, -8
 298              		.cfi_offset 14, -4
 194:Src/stm32f4xx_it.c **** 	HAL_IncTick();
 299              		.loc 1 194 0
 300 0002 FFF7FEFF 		bl	HAL_IncTick	@
 301              	.LVL3:
 195:Src/stm32f4xx_it.c **** 	
 196:Src/stm32f4xx_it.c **** 	Timeout_Timer_0++;
 302              		.loc 1 196 0
 303 0006 0D4A     		ldr	r2, .L25	@ tmp119,
 304 0008 1368     		ldr	r3, [r2]	@ D.10974, Timeout_Timer_0
 305 000a 0133     		adds	r3, r3, #1	@ D.10974, D.10974,
 306 000c 1360     		str	r3, [r2]	@ D.10974, Timeout_Timer_0
 197:Src/stm32f4xx_it.c ****   
 198:Src/stm32f4xx_it.c **** 	//---------------------------
 199:Src/stm32f4xx_it.c **** 	// msec counter
 200:Src/stm32f4xx_it.c **** 	//---------------------------
 201:Src/stm32f4xx_it.c **** 	msec_counter++;
 307              		.loc 1 201 0
 308 000e 0C4B     		ldr	r3, .L25+4	@ tmp121,
 309 0010 1A68     		ldr	r2, [r3]	@ D.10974, msec_counter
 310 0012 0132     		adds	r2, r2, #1	@ D.10974, D.10974,
 311 0014 1A60     		str	r2, [r3]	@ D.10974, msec_counter
 202:Src/stm32f4xx_it.c **** 	switch(msec_counter % 10){
ARM GAS  C:\cygwin\tmp\ccdPOYOb.s 			page 10


 312              		.loc 1 202 0
 313 0016 1968     		ldr	r1, [r3]	@ D.10974, msec_counter
 314 0018 0A23     		movs	r3, #10	@ tmp128,
 315 001a B1FBF3F2 		udiv	r2, r1, r3	@ tmp127, D.10974, tmp128
 316 001e 03FB1213 		mls	r3, r3, r2, r1	@ D.10974, tmp128, tmp127, D.10974
 317 0022 13B9     		cbnz	r3, .L23	@ D.10974,
 203:Src/stm32f4xx_it.c **** 		case 0:
 204:Src/stm32f4xx_it.c **** 			gui_Exec = true;
 318              		.loc 1 204 0
 319 0024 074B     		ldr	r3, .L25+8	@ tmp132,
 320 0026 0122     		movs	r2, #1	@ tmp133,
 321 0028 1A70     		strb	r2, [r3]	@ tmp133, gui_Exec
 322              	.L23:
 205:Src/stm32f4xx_it.c **** 			break;
 206:Src/stm32f4xx_it.c **** 			
 207:Src/stm32f4xx_it.c **** 		default:
 208:Src/stm32f4xx_it.c **** 			break;
 209:Src/stm32f4xx_it.c **** 	}
 210:Src/stm32f4xx_it.c **** 
 211:Src/stm32f4xx_it.c **** 	//---------------------------
 212:Src/stm32f4xx_it.c **** 	// Touch-Timer
 213:Src/stm32f4xx_it.c **** 	//---------------------------
 214:Src/stm32f4xx_it.c **** 	touch_timer++;
 323              		.loc 1 214 0
 324 002a 074B     		ldr	r3, .L25+12	@ tmp135,
 325 002c 1A68     		ldr	r2, [r3]	@ D.10974, touch_timer
 326 002e 0132     		adds	r2, r2, #1	@ D.10974, D.10974,
 327 0030 1A60     		str	r2, [r3]	@ D.10974, touch_timer
 215:Src/stm32f4xx_it.c **** 	switch(touch_timer % 1){
 328              		.loc 1 215 0
 329 0032 1B68     		ldr	r3, [r3]	@ D.10974, touch_timer
 216:Src/stm32f4xx_it.c **** 		case 0:
 217:Src/stm32f4xx_it.c **** 			Touch_Flagged = true;
 330              		.loc 1 217 0
 331 0034 054B     		ldr	r3, .L25+16	@ tmp138,
 332 0036 0122     		movs	r2, #1	@ tmp139,
 333 0038 1A70     		strb	r2, [r3]	@ tmp139, Touch_Flagged
 334 003a 08BD     		pop	{r3, pc}	@
 335              	.L26:
 336              		.align	2
 337              	.L25:
 338 003c 00000000 		.word	.LANCHOR1
 339 0040 00000000 		.word	.LANCHOR0
 340 0044 00000000 		.word	.LANCHOR2
 341 0048 00000000 		.word	.LANCHOR3
 342 004c 00000000 		.word	.LANCHOR4
 343              		.cfi_endproc
 344              	.LFE133:
 345              		.size	SysTick_Handler, .-SysTick_Handler
 346              		.section	.text.DMA1_Stream5_IRQHandler,"ax",%progbits
 347              		.align	1
 348              		.global	DMA1_Stream5_IRQHandler
 349              		.thumb
 350              		.thumb_func
 351              		.type	DMA1_Stream5_IRQHandler, %function
 352              	DMA1_Stream5_IRQHandler:
 353              	.LFB134:
ARM GAS  C:\cygwin\tmp\ccdPOYOb.s 			page 11


 218:Src/stm32f4xx_it.c **** 			break;
 219:Src/stm32f4xx_it.c **** 		
 220:Src/stm32f4xx_it.c **** 		default:
 221:Src/stm32f4xx_it.c **** 			Touch_Flagged = false;
 222:Src/stm32f4xx_it.c **** 			break;
 223:Src/stm32f4xx_it.c **** 	}
 224:Src/stm32f4xx_it.c **** 
 225:Src/stm32f4xx_it.c **** }
 226:Src/stm32f4xx_it.c **** 
 227:Src/stm32f4xx_it.c **** /******************************************************************************/
 228:Src/stm32f4xx_it.c **** /*                 STM32F4xx Peripherals Interrupt Handlers                   */
 229:Src/stm32f4xx_it.c **** /*  Add here the Interrupt Handler for the used peripheral(s) (PPP), for the  */
 230:Src/stm32f4xx_it.c **** /*  available peripheral interrupt handler's name please refer to the startup */
 231:Src/stm32f4xx_it.c **** /*  file (startup_stm32f4xx.s).                                               */
 232:Src/stm32f4xx_it.c **** /******************************************************************************/
 233:Src/stm32f4xx_it.c **** /**
 234:Src/stm32f4xx_it.c ****   * @brief  This function handles DMA RX interrupt request.  
 235:Src/stm32f4xx_it.c ****   * @param  None
 236:Src/stm32f4xx_it.c ****   * @retval None   
 237:Src/stm32f4xx_it.c ****   */
 238:Src/stm32f4xx_it.c **** void USARTx_DMA_RX_IRQHandler(void)
 239:Src/stm32f4xx_it.c **** {
 354              		.loc 1 239 0
 355              		.cfi_startproc
 356              		@ args = 0, pretend = 0, frame = 0
 357              		@ frame_needed = 0, uses_anonymous_args = 0
 358              		@ link register save eliminated.
 240:Src/stm32f4xx_it.c ****   HAL_DMA_IRQHandler(UartHandle.hdmarx);
 359              		.loc 1 240 0
 360 0000 014B     		ldr	r3, .L28	@ tmp111,
 361 0002 586B     		ldr	r0, [r3, #52]	@, UartHandle.hdmarx
 362 0004 FFF7FEBF 		b	HAL_DMA_IRQHandler	@
 363              	.LVL4:
 364              	.L29:
 365              		.align	2
 366              	.L28:
 367 0008 00000000 		.word	UartHandle
 368              		.cfi_endproc
 369              	.LFE134:
 370              		.size	DMA1_Stream5_IRQHandler, .-DMA1_Stream5_IRQHandler
 371              		.section	.text.DMA1_Stream6_IRQHandler,"ax",%progbits
 372              		.align	1
 373              		.global	DMA1_Stream6_IRQHandler
 374              		.thumb
 375              		.thumb_func
 376              		.type	DMA1_Stream6_IRQHandler, %function
 377              	DMA1_Stream6_IRQHandler:
 378              	.LFB135:
 241:Src/stm32f4xx_it.c **** }
 242:Src/stm32f4xx_it.c **** 
 243:Src/stm32f4xx_it.c **** /**
 244:Src/stm32f4xx_it.c ****   * @brief  This function handles DMA TX interrupt request.
 245:Src/stm32f4xx_it.c ****   * @param  None
 246:Src/stm32f4xx_it.c ****   * @retval None   
 247:Src/stm32f4xx_it.c ****   */
 248:Src/stm32f4xx_it.c **** void USARTx_DMA_TX_IRQHandler(void)
 249:Src/stm32f4xx_it.c **** {
ARM GAS  C:\cygwin\tmp\ccdPOYOb.s 			page 12


 379              		.loc 1 249 0
 380              		.cfi_startproc
 381              		@ args = 0, pretend = 0, frame = 0
 382              		@ frame_needed = 0, uses_anonymous_args = 0
 383              		@ link register save eliminated.
 250:Src/stm32f4xx_it.c ****   HAL_DMA_IRQHandler(UartHandle.hdmatx);
 384              		.loc 1 250 0
 385 0000 014B     		ldr	r3, .L31	@ tmp111,
 386 0002 186B     		ldr	r0, [r3, #48]	@, UartHandle.hdmatx
 387 0004 FFF7FEBF 		b	HAL_DMA_IRQHandler	@
 388              	.LVL5:
 389              	.L32:
 390              		.align	2
 391              	.L31:
 392 0008 00000000 		.word	UartHandle
 393              		.cfi_endproc
 394              	.LFE135:
 395              		.size	DMA1_Stream6_IRQHandler, .-DMA1_Stream6_IRQHandler
 396              		.section	.text.USART2_IRQHandler,"ax",%progbits
 397              		.align	1
 398              		.global	USART2_IRQHandler
 399              		.thumb
 400              		.thumb_func
 401              		.type	USART2_IRQHandler, %function
 402              	USART2_IRQHandler:
 403              	.LFB136:
 251:Src/stm32f4xx_it.c **** }
 252:Src/stm32f4xx_it.c **** 
 253:Src/stm32f4xx_it.c **** /**
 254:Src/stm32f4xx_it.c ****   * @brief  This function handles USARTx interrupt request.
 255:Src/stm32f4xx_it.c ****   * @param  None
 256:Src/stm32f4xx_it.c ****   * @retval None
 257:Src/stm32f4xx_it.c ****   */
 258:Src/stm32f4xx_it.c **** void USARTx_IRQHandler(void)
 259:Src/stm32f4xx_it.c **** {
 404              		.loc 1 259 0
 405              		.cfi_startproc
 406              		@ args = 0, pretend = 0, frame = 0
 407              		@ frame_needed = 0, uses_anonymous_args = 0
 408              		@ link register save eliminated.
 260:Src/stm32f4xx_it.c ****   HAL_UART_IRQHandler(&UartHandle);
 409              		.loc 1 260 0
 410 0000 0148     		ldr	r0, .L34	@,
 411 0002 FFF7FEBF 		b	HAL_UART_IRQHandler	@
 412              	.LVL6:
 413              	.L35:
 414 0006 00BF     		.align	2
 415              	.L34:
 416 0008 00000000 		.word	UartHandle
 417              		.cfi_endproc
 418              	.LFE136:
 419              		.size	USART2_IRQHandler, .-USART2_IRQHandler
 420              		.global	Touch_Flagged
 421              		.global	gui_Exec
 422              		.section	.bss.Timeout_Timer_0,"aw",%nobits
 423              		.align	2
 424              		.set	.LANCHOR1,. + 0
ARM GAS  C:\cygwin\tmp\ccdPOYOb.s 			page 13


 425              		.type	Timeout_Timer_0, %object
 426              		.size	Timeout_Timer_0, 4
 427              	Timeout_Timer_0:
 428 0000 00000000 		.space	4
 429              		.section	.bss.touch_timer,"aw",%nobits
 430              		.align	2
 431              		.set	.LANCHOR3,. + 0
 432              		.type	touch_timer, %object
 433              		.size	touch_timer, 4
 434              	touch_timer:
 435 0000 00000000 		.space	4
 436              		.section	.bss.msec_counter,"aw",%nobits
 437              		.align	2
 438              		.set	.LANCHOR0,. + 0
 439              		.type	msec_counter, %object
 440              		.size	msec_counter, 4
 441              	msec_counter:
 442 0000 00000000 		.space	4
 443              		.section	.bss.gui_Exec,"aw",%nobits
 444              		.set	.LANCHOR2,. + 0
 445              		.type	gui_Exec, %object
 446              		.size	gui_Exec, 1
 447              	gui_Exec:
 448 0000 00       		.space	1
 449              		.section	.bss.Touch_Flagged,"aw",%nobits
 450              		.set	.LANCHOR4,. + 0
 451              		.type	Touch_Flagged, %object
 452              		.size	Touch_Flagged, 1
 453              	Touch_Flagged:
 454 0000 00       		.space	1
 455              		.text
 456              	.Letext0:
 457              		.file 2 "c:\\program files\\gnu tools arm embedded\\4.9 2014q4\\arm-none-eabi\\include\\machine\\_
 458              		.file 3 "c:\\program files\\gnu tools arm embedded\\4.9 2014q4\\arm-none-eabi\\include\\stdint.h"
 459              		.file 4 "../STM32Cube_FW_F4_V1.4.0/Drivers/CMSIS/Device/ST/STM32F4xx/Include/stm32f407xx.h"
 460              		.file 5 "../STM32Cube_FW_F4_V1.4.0/Drivers/STM32F4xx_HAL_Driver/Inc/stm32f4xx_hal_def.h"
 461              		.file 6 "../STM32Cube_FW_F4_V1.4.0/Drivers/STM32F4xx_HAL_Driver/Inc/stm32f4xx_hal_dma.h"
 462              		.file 7 "../STM32Cube_FW_F4_V1.4.0/Drivers/STM32F4xx_HAL_Driver/Inc/stm32f4xx_hal_uart.h"
 463              		.file 8 "../STM32Cube_FW_F4_V1.4.0/Drivers/CMSIS/Include/core_cm4.h"
 464              		.file 9 "../STM32Cube_FW_F4_V1.4.0/Drivers/STM32F4xx_HAL_Driver/Inc/stm32f4xx_hal.h"