ARM GAS  C:\cygwin\tmp\ccHJheQe.s 			page 1


   1              		.syntax unified
   2              		.cpu cortex-m4
   3              		.fpu softvfp
   4              		.eabi_attribute 20, 1	@ Tag_ABI_FP_denormal
   5              		.eabi_attribute 21, 1	@ Tag_ABI_FP_exceptions
   6              		.eabi_attribute 23, 3	@ Tag_ABI_FP_number_model
   7              		.eabi_attribute 24, 1	@ Tag_ABI_align8_needed
   8              		.eabi_attribute 25, 1	@ Tag_ABI_align8_preserved
   9              		.eabi_attribute 26, 1	@ Tag_ABI_enum_size
  10              		.eabi_attribute 30, 4	@ Tag_ABI_optimization_goals
  11              		.eabi_attribute 34, 1	@ Tag_CPU_unaligned_access
  12              		.eabi_attribute 18, 4	@ Tag_ABI_PCS_wchar_t
  13              		.file	"stm32f4xx_hal_sram.c"
  14              	@ GNU C (GNU Tools for ARM Embedded Processors) version 4.9.3 20141119 (release) [ARM/embedded-4_9-
  15              	@	compiled by GNU C version 4.7.4, GMP version 4.3.2, MPFR version 2.4.2, MPC version 0.8.1
  16              	@ GGC heuristics: --param ggc-min-expand=100 --param ggc-min-heapsize=131072
  17              	@ options passed:  -I . -I Inc -I gui -I emWin -I emWin/config
  18              	@ -I ../STM32Cube_FW_F4_V1.4.0/Drivers/CMSIS/Include
  19              	@ -I ../STM32Cube_FW_F4_V1.4.0/Drivers/CMSIS/Device/ST/STM32F4xx/Include
  20              	@ -I ../STM32Cube_FW_F4_V1.4.0/Drivers/STM32F4xx_HAL_Driver/Inc
  21              	@ -I ../STM32Cube_FW_F4_V1.4.0/Drivers/CMSIS/Include
  22              	@ -I ../STM32Cube_FW_F4_V1.4.0/Middlewares/ST/STemWin/inc
  23              	@ -I .drivers/modbus -I ./drivers/display -imultilib armv7e-m
  24              	@ -iprefix c:\program files\gnu tools arm embedded\4.9 2014q4\bin\../lib/gcc/arm-none-eabi/4.9.3/
  25              	@ -isysroot c:\program files\gnu tools arm embedded\4.9 2014q4\bin\../arm-none-eabi
  26              	@ -MD out/stm32f4xx_hal_sram.d -MF out/stm32f4xx_hal_sram.d -MP
  27              	@ -MQ out/stm32f4xx_hal_sram.o -D__USES_INITFINI__ -D USE_HAL_DRIVER
  28              	@ -D STM32F4XX -D HSE_VALUE=8000000 -D __STARTUP_CLEAR_BSS -D STM32F407VG
  29              	@ -D USE_FULL_ASSERT -D __FPU_USED
  30              	@ ../STM32Cube_FW_F4_V1.4.0/Drivers/STM32F4xx_HAL_Driver/Src/stm32f4xx_hal_sram.c
  31              	@ -mcpu=cortex-m4 -mthumb -auxbase-strip out/stm32f4xx_hal_sram.o -g -ggdb3
  32              	@ -Os -Os -Wall -Wstrict-prototypes -Wextra -std=gnu90 -ffunction-sections
  33              	@ -fdata-sections -fverbose-asm
  34              	@ options enabled:  -faggressive-loop-optimizations -fauto-inc-dec
  35              	@ -fbranch-count-reg -fcaller-saves -fcombine-stack-adjustments -fcommon
  36              	@ -fcompare-elim -fcprop-registers -fcrossjumping -fcse-follow-jumps
  37              	@ -fdata-sections -fdefer-pop -fdelete-null-pointer-checks -fdevirtualize
  38              	@ -fdevirtualize-speculatively -fdwarf2-cfi-asm -fearly-inlining
  39              	@ -feliminate-unused-debug-types -fexpensive-optimizations
  40              	@ -fforward-propagate -ffunction-cse -ffunction-sections -fgcse -fgcse-lm
  41              	@ -fgnu-runtime -fgnu-unique -fguess-branch-probability
  42              	@ -fhoist-adjacent-loads -fident -fif-conversion -fif-conversion2
  43              	@ -findirect-inlining -finline -finline-atomics -finline-functions
  44              	@ -finline-functions-called-once -finline-small-functions -fipa-cp
  45              	@ -fipa-profile -fipa-pure-const -fipa-reference -fipa-sra
  46              	@ -fira-hoist-pressure -fira-share-save-slots -fira-share-spill-slots
  47              	@ -fisolate-erroneous-paths-dereference -fivopts -fkeep-static-consts
  48              	@ -fleading-underscore -fmath-errno -fmerge-constants -fmerge-debug-strings
  49              	@ -fomit-frame-pointer -foptimize-sibling-calls -fpartial-inlining
  50              	@ -fpeephole -fpeephole2 -fprefetch-loop-arrays -freg-struct-return
  51              	@ -freorder-blocks -freorder-functions -frerun-cse-after-loop
  52              	@ -fsched-critical-path-heuristic -fsched-dep-count-heuristic
  53              	@ -fsched-group-heuristic -fsched-interblock -fsched-last-insn-heuristic
  54              	@ -fsched-pressure -fsched-rank-heuristic -fsched-spec
  55              	@ -fsched-spec-insn-heuristic -fsched-stalled-insns-dep -fschedule-insns2
  56              	@ -fsection-anchors -fshow-column -fsigned-zeros -fsplit-ivs-in-unroller
  57              	@ -fsplit-wide-types -fstrict-aliasing -fstrict-overflow
ARM GAS  C:\cygwin\tmp\ccHJheQe.s 			page 2


  58              	@ -fstrict-volatile-bitfields -fsync-libcalls -fthread-jumps
  59              	@ -ftoplevel-reorder -ftrapping-math -ftree-bit-ccp -ftree-builtin-call-dce
  60              	@ -ftree-ccp -ftree-ch -ftree-coalesce-vars -ftree-copy-prop
  61              	@ -ftree-copyrename -ftree-cselim -ftree-dce -ftree-dominator-opts
  62              	@ -ftree-dse -ftree-forwprop -ftree-fre -ftree-loop-if-convert
  63              	@ -ftree-loop-im -ftree-loop-ivcanon -ftree-loop-optimize
  64              	@ -ftree-parallelize-loops= -ftree-phiprop -ftree-pre -ftree-pta
  65              	@ -ftree-reassoc -ftree-scev-cprop -ftree-sink -ftree-slsr -ftree-sra
  66              	@ -ftree-switch-conversion -ftree-tail-merge -ftree-ter -ftree-vrp
  67              	@ -funit-at-a-time -fvar-tracking -fvar-tracking-assignments -fverbose-asm
  68              	@ -fzero-initialized-in-bss -mlittle-endian -mlra
  69              	@ -mpic-data-is-text-relative -msched-prolog -mthumb -munaligned-access
  70              	@ -mvectorize-with-neon-quad
  71              	
  72              		.text
  73              	.Ltext0:
  74              		.cfi_sections	.debug_frame
  75              		.section	.text.HAL_SRAM_DMA_XferCpltCallback,"ax",%progbits
  76              		.align	1
  77              		.weak	HAL_SRAM_DMA_XferCpltCallback
  78              		.thumb
  79              		.thumb_func
  80              		.type	HAL_SRAM_DMA_XferCpltCallback, %function
  81              	HAL_SRAM_DMA_XferCpltCallback:
  82              	.LFB127:
  83              		.file 1 "../STM32Cube_FW_F4_V1.4.0/Drivers/STM32F4xx_HAL_Driver/Src/stm32f4xx_hal_sram.c"
   1:../STM32Cube_FW_F4_V1.4.0/Drivers/STM32F4xx_HAL_Driver/Src/stm32f4xx_hal_sram.c **** /**
   2:../STM32Cube_FW_F4_V1.4.0/Drivers/STM32F4xx_HAL_Driver/Src/stm32f4xx_hal_sram.c ****   ******************************************************************************
   3:../STM32Cube_FW_F4_V1.4.0/Drivers/STM32F4xx_HAL_Driver/Src/stm32f4xx_hal_sram.c ****   * @file    stm32f4xx_hal_sram.c
   4:../STM32Cube_FW_F4_V1.4.0/Drivers/STM32F4xx_HAL_Driver/Src/stm32f4xx_hal_sram.c ****   * @author  MCD Application Team
   5:../STM32Cube_FW_F4_V1.4.0/Drivers/STM32F4xx_HAL_Driver/Src/stm32f4xx_hal_sram.c ****   * @version V1.2.0
   6:../STM32Cube_FW_F4_V1.4.0/Drivers/STM32F4xx_HAL_Driver/Src/stm32f4xx_hal_sram.c ****   * @date    26-December-2014
   7:../STM32Cube_FW_F4_V1.4.0/Drivers/STM32F4xx_HAL_Driver/Src/stm32f4xx_hal_sram.c ****   * @brief   SRAM HAL module driver.
   8:../STM32Cube_FW_F4_V1.4.0/Drivers/STM32F4xx_HAL_Driver/Src/stm32f4xx_hal_sram.c ****   *          This file provides a generic firmware to drive SRAM memories  
   9:../STM32Cube_FW_F4_V1.4.0/Drivers/STM32F4xx_HAL_Driver/Src/stm32f4xx_hal_sram.c ****   *          mounted as external device.
  10:../STM32Cube_FW_F4_V1.4.0/Drivers/STM32F4xx_HAL_Driver/Src/stm32f4xx_hal_sram.c ****   *         
  11:../STM32Cube_FW_F4_V1.4.0/Drivers/STM32F4xx_HAL_Driver/Src/stm32f4xx_hal_sram.c ****   @verbatim
  12:../STM32Cube_FW_F4_V1.4.0/Drivers/STM32F4xx_HAL_Driver/Src/stm32f4xx_hal_sram.c ****   ==============================================================================
  13:../STM32Cube_FW_F4_V1.4.0/Drivers/STM32F4xx_HAL_Driver/Src/stm32f4xx_hal_sram.c ****                           ##### How to use this driver #####
  14:../STM32Cube_FW_F4_V1.4.0/Drivers/STM32F4xx_HAL_Driver/Src/stm32f4xx_hal_sram.c ****   ==============================================================================  
  15:../STM32Cube_FW_F4_V1.4.0/Drivers/STM32F4xx_HAL_Driver/Src/stm32f4xx_hal_sram.c ****   [..]
  16:../STM32Cube_FW_F4_V1.4.0/Drivers/STM32F4xx_HAL_Driver/Src/stm32f4xx_hal_sram.c ****     This driver is a generic layered driver which contains a set of APIs used to 
  17:../STM32Cube_FW_F4_V1.4.0/Drivers/STM32F4xx_HAL_Driver/Src/stm32f4xx_hal_sram.c ****     control SRAM memories. It uses the FMC layer functions to interface 
  18:../STM32Cube_FW_F4_V1.4.0/Drivers/STM32F4xx_HAL_Driver/Src/stm32f4xx_hal_sram.c ****     with SRAM devices.  
  19:../STM32Cube_FW_F4_V1.4.0/Drivers/STM32F4xx_HAL_Driver/Src/stm32f4xx_hal_sram.c ****     The following sequence should be followed to configure the FMC/FSMC to interface
  20:../STM32Cube_FW_F4_V1.4.0/Drivers/STM32F4xx_HAL_Driver/Src/stm32f4xx_hal_sram.c ****     with SRAM/PSRAM memories: 
  21:../STM32Cube_FW_F4_V1.4.0/Drivers/STM32F4xx_HAL_Driver/Src/stm32f4xx_hal_sram.c ****       
  22:../STM32Cube_FW_F4_V1.4.0/Drivers/STM32F4xx_HAL_Driver/Src/stm32f4xx_hal_sram.c ****    (#) Declare a SRAM_HandleTypeDef handle structure, for example:
  23:../STM32Cube_FW_F4_V1.4.0/Drivers/STM32F4xx_HAL_Driver/Src/stm32f4xx_hal_sram.c ****           SRAM_HandleTypeDef  hsram; and: 
  24:../STM32Cube_FW_F4_V1.4.0/Drivers/STM32F4xx_HAL_Driver/Src/stm32f4xx_hal_sram.c ****           
  25:../STM32Cube_FW_F4_V1.4.0/Drivers/STM32F4xx_HAL_Driver/Src/stm32f4xx_hal_sram.c ****        (++) Fill the SRAM_HandleTypeDef handle "Init" field with the allowed 
  26:../STM32Cube_FW_F4_V1.4.0/Drivers/STM32F4xx_HAL_Driver/Src/stm32f4xx_hal_sram.c ****             values of the structure member.
  27:../STM32Cube_FW_F4_V1.4.0/Drivers/STM32F4xx_HAL_Driver/Src/stm32f4xx_hal_sram.c ****             
  28:../STM32Cube_FW_F4_V1.4.0/Drivers/STM32F4xx_HAL_Driver/Src/stm32f4xx_hal_sram.c ****        (++) Fill the SRAM_HandleTypeDef handle "Instance" field with a predefined 
  29:../STM32Cube_FW_F4_V1.4.0/Drivers/STM32F4xx_HAL_Driver/Src/stm32f4xx_hal_sram.c ****             base register instance for NOR or SRAM device 
  30:../STM32Cube_FW_F4_V1.4.0/Drivers/STM32F4xx_HAL_Driver/Src/stm32f4xx_hal_sram.c ****                          
  31:../STM32Cube_FW_F4_V1.4.0/Drivers/STM32F4xx_HAL_Driver/Src/stm32f4xx_hal_sram.c ****        (++) Fill the SRAM_HandleTypeDef handle "Extended" field with a predefined
ARM GAS  C:\cygwin\tmp\ccHJheQe.s 			page 3


  32:../STM32Cube_FW_F4_V1.4.0/Drivers/STM32F4xx_HAL_Driver/Src/stm32f4xx_hal_sram.c ****             base register instance for NOR or SRAM extended mode 
  33:../STM32Cube_FW_F4_V1.4.0/Drivers/STM32F4xx_HAL_Driver/Src/stm32f4xx_hal_sram.c ****              
  34:../STM32Cube_FW_F4_V1.4.0/Drivers/STM32F4xx_HAL_Driver/Src/stm32f4xx_hal_sram.c ****    (#) Declare two FMC_NORSRAM_TimingTypeDef structures, for both normal and extended 
  35:../STM32Cube_FW_F4_V1.4.0/Drivers/STM32F4xx_HAL_Driver/Src/stm32f4xx_hal_sram.c ****        mode timings; for example:
  36:../STM32Cube_FW_F4_V1.4.0/Drivers/STM32F4xx_HAL_Driver/Src/stm32f4xx_hal_sram.c ****           FMC_NORSRAM_TimingTypeDef  Timing and FMC_NORSRAM_TimingTypeDef  ExTiming;
  37:../STM32Cube_FW_F4_V1.4.0/Drivers/STM32F4xx_HAL_Driver/Src/stm32f4xx_hal_sram.c ****       and fill its fields with the allowed values of the structure member.
  38:../STM32Cube_FW_F4_V1.4.0/Drivers/STM32F4xx_HAL_Driver/Src/stm32f4xx_hal_sram.c ****       
  39:../STM32Cube_FW_F4_V1.4.0/Drivers/STM32F4xx_HAL_Driver/Src/stm32f4xx_hal_sram.c ****    (#) Initialize the SRAM Controller by calling the function HAL_SRAM_Init(). This function
  40:../STM32Cube_FW_F4_V1.4.0/Drivers/STM32F4xx_HAL_Driver/Src/stm32f4xx_hal_sram.c ****        performs the following sequence:
  41:../STM32Cube_FW_F4_V1.4.0/Drivers/STM32F4xx_HAL_Driver/Src/stm32f4xx_hal_sram.c ****           
  42:../STM32Cube_FW_F4_V1.4.0/Drivers/STM32F4xx_HAL_Driver/Src/stm32f4xx_hal_sram.c ****        (##) MSP hardware layer configuration using the function HAL_SRAM_MspInit()
  43:../STM32Cube_FW_F4_V1.4.0/Drivers/STM32F4xx_HAL_Driver/Src/stm32f4xx_hal_sram.c ****        (##) Control register configuration using the FMC NORSRAM interface function 
  44:../STM32Cube_FW_F4_V1.4.0/Drivers/STM32F4xx_HAL_Driver/Src/stm32f4xx_hal_sram.c ****             FMC_NORSRAM_Init()
  45:../STM32Cube_FW_F4_V1.4.0/Drivers/STM32F4xx_HAL_Driver/Src/stm32f4xx_hal_sram.c ****        (##) Timing register configuration using the FMC NORSRAM interface function 
  46:../STM32Cube_FW_F4_V1.4.0/Drivers/STM32F4xx_HAL_Driver/Src/stm32f4xx_hal_sram.c ****             FMC_NORSRAM_Timing_Init()
  47:../STM32Cube_FW_F4_V1.4.0/Drivers/STM32F4xx_HAL_Driver/Src/stm32f4xx_hal_sram.c ****        (##) Extended mode Timing register configuration using the FMC NORSRAM interface function 
  48:../STM32Cube_FW_F4_V1.4.0/Drivers/STM32F4xx_HAL_Driver/Src/stm32f4xx_hal_sram.c ****             FMC_NORSRAM_Extended_Timing_Init()
  49:../STM32Cube_FW_F4_V1.4.0/Drivers/STM32F4xx_HAL_Driver/Src/stm32f4xx_hal_sram.c ****        (##) Enable the SRAM device using the macro __FMC_NORSRAM_ENABLE()    
  50:../STM32Cube_FW_F4_V1.4.0/Drivers/STM32F4xx_HAL_Driver/Src/stm32f4xx_hal_sram.c **** 
  51:../STM32Cube_FW_F4_V1.4.0/Drivers/STM32F4xx_HAL_Driver/Src/stm32f4xx_hal_sram.c ****    (#) At this stage you can perform read/write accesses from/to the memory connected 
  52:../STM32Cube_FW_F4_V1.4.0/Drivers/STM32F4xx_HAL_Driver/Src/stm32f4xx_hal_sram.c ****        to the NOR/SRAM Bank. You can perform either polling or DMA transfer using the
  53:../STM32Cube_FW_F4_V1.4.0/Drivers/STM32F4xx_HAL_Driver/Src/stm32f4xx_hal_sram.c ****        following APIs:
  54:../STM32Cube_FW_F4_V1.4.0/Drivers/STM32F4xx_HAL_Driver/Src/stm32f4xx_hal_sram.c ****        (++) HAL_SRAM_Read()/HAL_SRAM_Write() for polling read/write access
  55:../STM32Cube_FW_F4_V1.4.0/Drivers/STM32F4xx_HAL_Driver/Src/stm32f4xx_hal_sram.c ****        (++) HAL_SRAM_Read_DMA()/HAL_SRAM_Write_DMA() for DMA read/write transfer
  56:../STM32Cube_FW_F4_V1.4.0/Drivers/STM32F4xx_HAL_Driver/Src/stm32f4xx_hal_sram.c ****        
  57:../STM32Cube_FW_F4_V1.4.0/Drivers/STM32F4xx_HAL_Driver/Src/stm32f4xx_hal_sram.c ****    (#) You can also control the SRAM device by calling the control APIs HAL_SRAM_WriteOperation_Ena
  58:../STM32Cube_FW_F4_V1.4.0/Drivers/STM32F4xx_HAL_Driver/Src/stm32f4xx_hal_sram.c ****        HAL_SRAM_WriteOperation_Disable() to respectively enable/disable the SRAM write operation  
  59:../STM32Cube_FW_F4_V1.4.0/Drivers/STM32F4xx_HAL_Driver/Src/stm32f4xx_hal_sram.c ****        
  60:../STM32Cube_FW_F4_V1.4.0/Drivers/STM32F4xx_HAL_Driver/Src/stm32f4xx_hal_sram.c ****    (#) You can continuously monitor the SRAM device HAL state by calling the function
  61:../STM32Cube_FW_F4_V1.4.0/Drivers/STM32F4xx_HAL_Driver/Src/stm32f4xx_hal_sram.c ****        HAL_SRAM_GetState()              
  62:../STM32Cube_FW_F4_V1.4.0/Drivers/STM32F4xx_HAL_Driver/Src/stm32f4xx_hal_sram.c ****                              
  63:../STM32Cube_FW_F4_V1.4.0/Drivers/STM32F4xx_HAL_Driver/Src/stm32f4xx_hal_sram.c ****   @endverbatim
  64:../STM32Cube_FW_F4_V1.4.0/Drivers/STM32F4xx_HAL_Driver/Src/stm32f4xx_hal_sram.c ****   ******************************************************************************
  65:../STM32Cube_FW_F4_V1.4.0/Drivers/STM32F4xx_HAL_Driver/Src/stm32f4xx_hal_sram.c ****   * @attention
  66:../STM32Cube_FW_F4_V1.4.0/Drivers/STM32F4xx_HAL_Driver/Src/stm32f4xx_hal_sram.c ****   *
  67:../STM32Cube_FW_F4_V1.4.0/Drivers/STM32F4xx_HAL_Driver/Src/stm32f4xx_hal_sram.c ****   * <h2><center>&copy; COPYRIGHT(c) 2014 STMicroelectronics</center></h2>
  68:../STM32Cube_FW_F4_V1.4.0/Drivers/STM32F4xx_HAL_Driver/Src/stm32f4xx_hal_sram.c ****   *
  69:../STM32Cube_FW_F4_V1.4.0/Drivers/STM32F4xx_HAL_Driver/Src/stm32f4xx_hal_sram.c ****   * Redistribution and use in source and binary forms, with or without modification,
  70:../STM32Cube_FW_F4_V1.4.0/Drivers/STM32F4xx_HAL_Driver/Src/stm32f4xx_hal_sram.c ****   * are permitted provided that the following conditions are met:
  71:../STM32Cube_FW_F4_V1.4.0/Drivers/STM32F4xx_HAL_Driver/Src/stm32f4xx_hal_sram.c ****   *   1. Redistributions of source code must retain the above copyright notice,
  72:../STM32Cube_FW_F4_V1.4.0/Drivers/STM32F4xx_HAL_Driver/Src/stm32f4xx_hal_sram.c ****   *      this list of conditions and the following disclaimer.
  73:../STM32Cube_FW_F4_V1.4.0/Drivers/STM32F4xx_HAL_Driver/Src/stm32f4xx_hal_sram.c ****   *   2. Redistributions in binary form must reproduce the above copyright notice,
  74:../STM32Cube_FW_F4_V1.4.0/Drivers/STM32F4xx_HAL_Driver/Src/stm32f4xx_hal_sram.c ****   *      this list of conditions and the following disclaimer in the documentation
  75:../STM32Cube_FW_F4_V1.4.0/Drivers/STM32F4xx_HAL_Driver/Src/stm32f4xx_hal_sram.c ****   *      and/or other materials provided with the distribution.
  76:../STM32Cube_FW_F4_V1.4.0/Drivers/STM32F4xx_HAL_Driver/Src/stm32f4xx_hal_sram.c ****   *   3. Neither the name of STMicroelectronics nor the names of its contributors
  77:../STM32Cube_FW_F4_V1.4.0/Drivers/STM32F4xx_HAL_Driver/Src/stm32f4xx_hal_sram.c ****   *      may be used to endorse or promote products derived from this software
  78:../STM32Cube_FW_F4_V1.4.0/Drivers/STM32F4xx_HAL_Driver/Src/stm32f4xx_hal_sram.c ****   *      without specific prior written permission.
  79:../STM32Cube_FW_F4_V1.4.0/Drivers/STM32F4xx_HAL_Driver/Src/stm32f4xx_hal_sram.c ****   *
  80:../STM32Cube_FW_F4_V1.4.0/Drivers/STM32F4xx_HAL_Driver/Src/stm32f4xx_hal_sram.c ****   * THIS SOFTWARE IS PROVIDED BY THE COPYRIGHT HOLDERS AND CONTRIBUTORS "AS IS"
  81:../STM32Cube_FW_F4_V1.4.0/Drivers/STM32F4xx_HAL_Driver/Src/stm32f4xx_hal_sram.c ****   * AND ANY EXPRESS OR IMPLIED WARRANTIES, INCLUDING, BUT NOT LIMITED TO, THE
  82:../STM32Cube_FW_F4_V1.4.0/Drivers/STM32F4xx_HAL_Driver/Src/stm32f4xx_hal_sram.c ****   * IMPLIED WARRANTIES OF MERCHANTABILITY AND FITNESS FOR A PARTICULAR PURPOSE ARE
  83:../STM32Cube_FW_F4_V1.4.0/Drivers/STM32F4xx_HAL_Driver/Src/stm32f4xx_hal_sram.c ****   * DISCLAIMED. IN NO EVENT SHALL THE COPYRIGHT HOLDER OR CONTRIBUTORS BE LIABLE
  84:../STM32Cube_FW_F4_V1.4.0/Drivers/STM32F4xx_HAL_Driver/Src/stm32f4xx_hal_sram.c ****   * FOR ANY DIRECT, INDIRECT, INCIDENTAL, SPECIAL, EXEMPLARY, OR CONSEQUENTIAL
  85:../STM32Cube_FW_F4_V1.4.0/Drivers/STM32F4xx_HAL_Driver/Src/stm32f4xx_hal_sram.c ****   * DAMAGES (INCLUDING, BUT NOT LIMITED TO, PROCUREMENT OF SUBSTITUTE GOODS OR
  86:../STM32Cube_FW_F4_V1.4.0/Drivers/STM32F4xx_HAL_Driver/Src/stm32f4xx_hal_sram.c ****   * SERVICES; LOSS OF USE, DATA, OR PROFITS; OR BUSINESS INTERRUPTION) HOWEVER
  87:../STM32Cube_FW_F4_V1.4.0/Drivers/STM32F4xx_HAL_Driver/Src/stm32f4xx_hal_sram.c ****   * CAUSED AND ON ANY THEORY OF LIABILITY, WHETHER IN CONTRACT, STRICT LIABILITY,
  88:../STM32Cube_FW_F4_V1.4.0/Drivers/STM32F4xx_HAL_Driver/Src/stm32f4xx_hal_sram.c ****   * OR TORT (INCLUDING NEGLIGENCE OR OTHERWISE) ARISING IN ANY WAY OUT OF THE USE
ARM GAS  C:\cygwin\tmp\ccHJheQe.s 			page 4


  89:../STM32Cube_FW_F4_V1.4.0/Drivers/STM32F4xx_HAL_Driver/Src/stm32f4xx_hal_sram.c ****   * OF THIS SOFTWARE, EVEN IF ADVISED OF THE POSSIBILITY OF SUCH DAMAGE.
  90:../STM32Cube_FW_F4_V1.4.0/Drivers/STM32F4xx_HAL_Driver/Src/stm32f4xx_hal_sram.c ****   *
  91:../STM32Cube_FW_F4_V1.4.0/Drivers/STM32F4xx_HAL_Driver/Src/stm32f4xx_hal_sram.c ****   ******************************************************************************
  92:../STM32Cube_FW_F4_V1.4.0/Drivers/STM32F4xx_HAL_Driver/Src/stm32f4xx_hal_sram.c ****   */ 
  93:../STM32Cube_FW_F4_V1.4.0/Drivers/STM32F4xx_HAL_Driver/Src/stm32f4xx_hal_sram.c **** 
  94:../STM32Cube_FW_F4_V1.4.0/Drivers/STM32F4xx_HAL_Driver/Src/stm32f4xx_hal_sram.c **** /* Includes ------------------------------------------------------------------*/
  95:../STM32Cube_FW_F4_V1.4.0/Drivers/STM32F4xx_HAL_Driver/Src/stm32f4xx_hal_sram.c **** #include "stm32f4xx_hal.h"
  96:../STM32Cube_FW_F4_V1.4.0/Drivers/STM32F4xx_HAL_Driver/Src/stm32f4xx_hal_sram.c **** 
  97:../STM32Cube_FW_F4_V1.4.0/Drivers/STM32F4xx_HAL_Driver/Src/stm32f4xx_hal_sram.c **** /** @addtogroup STM32F4xx_HAL_Driver
  98:../STM32Cube_FW_F4_V1.4.0/Drivers/STM32F4xx_HAL_Driver/Src/stm32f4xx_hal_sram.c ****   * @{
  99:../STM32Cube_FW_F4_V1.4.0/Drivers/STM32F4xx_HAL_Driver/Src/stm32f4xx_hal_sram.c ****   */
 100:../STM32Cube_FW_F4_V1.4.0/Drivers/STM32F4xx_HAL_Driver/Src/stm32f4xx_hal_sram.c **** 
 101:../STM32Cube_FW_F4_V1.4.0/Drivers/STM32F4xx_HAL_Driver/Src/stm32f4xx_hal_sram.c **** /** @defgroup SRAM SRAM
 102:../STM32Cube_FW_F4_V1.4.0/Drivers/STM32F4xx_HAL_Driver/Src/stm32f4xx_hal_sram.c ****   * @brief SRAM driver modules
 103:../STM32Cube_FW_F4_V1.4.0/Drivers/STM32F4xx_HAL_Driver/Src/stm32f4xx_hal_sram.c ****   * @{
 104:../STM32Cube_FW_F4_V1.4.0/Drivers/STM32F4xx_HAL_Driver/Src/stm32f4xx_hal_sram.c ****   */
 105:../STM32Cube_FW_F4_V1.4.0/Drivers/STM32F4xx_HAL_Driver/Src/stm32f4xx_hal_sram.c **** #ifdef HAL_SRAM_MODULE_ENABLED
 106:../STM32Cube_FW_F4_V1.4.0/Drivers/STM32F4xx_HAL_Driver/Src/stm32f4xx_hal_sram.c **** 
 107:../STM32Cube_FW_F4_V1.4.0/Drivers/STM32F4xx_HAL_Driver/Src/stm32f4xx_hal_sram.c **** #if defined(STM32F405xx) || defined(STM32F415xx) || defined(STM32F407xx) || defined(STM32F417xx) ||
 108:../STM32Cube_FW_F4_V1.4.0/Drivers/STM32F4xx_HAL_Driver/Src/stm32f4xx_hal_sram.c **** 
 109:../STM32Cube_FW_F4_V1.4.0/Drivers/STM32F4xx_HAL_Driver/Src/stm32f4xx_hal_sram.c **** /* Private typedef -----------------------------------------------------------*/
 110:../STM32Cube_FW_F4_V1.4.0/Drivers/STM32F4xx_HAL_Driver/Src/stm32f4xx_hal_sram.c **** /* Private define ------------------------------------------------------------*/
 111:../STM32Cube_FW_F4_V1.4.0/Drivers/STM32F4xx_HAL_Driver/Src/stm32f4xx_hal_sram.c **** /* Private macro -------------------------------------------------------------*/    
 112:../STM32Cube_FW_F4_V1.4.0/Drivers/STM32F4xx_HAL_Driver/Src/stm32f4xx_hal_sram.c **** /* Private variables ---------------------------------------------------------*/
 113:../STM32Cube_FW_F4_V1.4.0/Drivers/STM32F4xx_HAL_Driver/Src/stm32f4xx_hal_sram.c **** /* Private functions ---------------------------------------------------------*/
 114:../STM32Cube_FW_F4_V1.4.0/Drivers/STM32F4xx_HAL_Driver/Src/stm32f4xx_hal_sram.c **** 
 115:../STM32Cube_FW_F4_V1.4.0/Drivers/STM32F4xx_HAL_Driver/Src/stm32f4xx_hal_sram.c **** /* Exported functions --------------------------------------------------------*/
 116:../STM32Cube_FW_F4_V1.4.0/Drivers/STM32F4xx_HAL_Driver/Src/stm32f4xx_hal_sram.c **** /** @defgroup SRAM_Exported_Functions SRAM Exported Functions
 117:../STM32Cube_FW_F4_V1.4.0/Drivers/STM32F4xx_HAL_Driver/Src/stm32f4xx_hal_sram.c ****   * @{
 118:../STM32Cube_FW_F4_V1.4.0/Drivers/STM32F4xx_HAL_Driver/Src/stm32f4xx_hal_sram.c ****   */
 119:../STM32Cube_FW_F4_V1.4.0/Drivers/STM32F4xx_HAL_Driver/Src/stm32f4xx_hal_sram.c **** /** @defgroup SRAM_Exported_Functions_Group1 Initialization and de-initialization functions 
 120:../STM32Cube_FW_F4_V1.4.0/Drivers/STM32F4xx_HAL_Driver/Src/stm32f4xx_hal_sram.c ****   * @brief    Initialization and Configuration functions 
 121:../STM32Cube_FW_F4_V1.4.0/Drivers/STM32F4xx_HAL_Driver/Src/stm32f4xx_hal_sram.c ****   *
 122:../STM32Cube_FW_F4_V1.4.0/Drivers/STM32F4xx_HAL_Driver/Src/stm32f4xx_hal_sram.c ****   @verbatim    
 123:../STM32Cube_FW_F4_V1.4.0/Drivers/STM32F4xx_HAL_Driver/Src/stm32f4xx_hal_sram.c ****   ==============================================================================
 124:../STM32Cube_FW_F4_V1.4.0/Drivers/STM32F4xx_HAL_Driver/Src/stm32f4xx_hal_sram.c ****            ##### SRAM Initialization and de_initialization functions #####
 125:../STM32Cube_FW_F4_V1.4.0/Drivers/STM32F4xx_HAL_Driver/Src/stm32f4xx_hal_sram.c ****   ==============================================================================
 126:../STM32Cube_FW_F4_V1.4.0/Drivers/STM32F4xx_HAL_Driver/Src/stm32f4xx_hal_sram.c ****     [..]  This section provides functions allowing to initialize/de-initialize
 127:../STM32Cube_FW_F4_V1.4.0/Drivers/STM32F4xx_HAL_Driver/Src/stm32f4xx_hal_sram.c ****           the SRAM memory
 128:../STM32Cube_FW_F4_V1.4.0/Drivers/STM32F4xx_HAL_Driver/Src/stm32f4xx_hal_sram.c ****   
 129:../STM32Cube_FW_F4_V1.4.0/Drivers/STM32F4xx_HAL_Driver/Src/stm32f4xx_hal_sram.c **** @endverbatim
 130:../STM32Cube_FW_F4_V1.4.0/Drivers/STM32F4xx_HAL_Driver/Src/stm32f4xx_hal_sram.c ****   * @{
 131:../STM32Cube_FW_F4_V1.4.0/Drivers/STM32F4xx_HAL_Driver/Src/stm32f4xx_hal_sram.c ****   */
 132:../STM32Cube_FW_F4_V1.4.0/Drivers/STM32F4xx_HAL_Driver/Src/stm32f4xx_hal_sram.c **** 
 133:../STM32Cube_FW_F4_V1.4.0/Drivers/STM32F4xx_HAL_Driver/Src/stm32f4xx_hal_sram.c **** /**
 134:../STM32Cube_FW_F4_V1.4.0/Drivers/STM32F4xx_HAL_Driver/Src/stm32f4xx_hal_sram.c ****   * @brief  Performs the SRAM device initialization sequence
 135:../STM32Cube_FW_F4_V1.4.0/Drivers/STM32F4xx_HAL_Driver/Src/stm32f4xx_hal_sram.c ****   * @param  hsram: pointer to a SRAM_HandleTypeDef structure that contains
 136:../STM32Cube_FW_F4_V1.4.0/Drivers/STM32F4xx_HAL_Driver/Src/stm32f4xx_hal_sram.c ****   *                the configuration information for SRAM module.
 137:../STM32Cube_FW_F4_V1.4.0/Drivers/STM32F4xx_HAL_Driver/Src/stm32f4xx_hal_sram.c ****   * @param  Timing: Pointer to SRAM control timing structure 
 138:../STM32Cube_FW_F4_V1.4.0/Drivers/STM32F4xx_HAL_Driver/Src/stm32f4xx_hal_sram.c ****   * @param  ExtTiming: Pointer to SRAM extended mode timing structure  
 139:../STM32Cube_FW_F4_V1.4.0/Drivers/STM32F4xx_HAL_Driver/Src/stm32f4xx_hal_sram.c ****   * @retval HAL status
 140:../STM32Cube_FW_F4_V1.4.0/Drivers/STM32F4xx_HAL_Driver/Src/stm32f4xx_hal_sram.c ****   */
 141:../STM32Cube_FW_F4_V1.4.0/Drivers/STM32F4xx_HAL_Driver/Src/stm32f4xx_hal_sram.c **** HAL_StatusTypeDef HAL_SRAM_Init(SRAM_HandleTypeDef *hsram, FMC_NORSRAM_TimingTypeDef *Timing, FMC_N
 142:../STM32Cube_FW_F4_V1.4.0/Drivers/STM32F4xx_HAL_Driver/Src/stm32f4xx_hal_sram.c **** { 
 143:../STM32Cube_FW_F4_V1.4.0/Drivers/STM32F4xx_HAL_Driver/Src/stm32f4xx_hal_sram.c ****   /* Check the SRAM handle parameter */
 144:../STM32Cube_FW_F4_V1.4.0/Drivers/STM32F4xx_HAL_Driver/Src/stm32f4xx_hal_sram.c ****   if(hsram == NULL)
 145:../STM32Cube_FW_F4_V1.4.0/Drivers/STM32F4xx_HAL_Driver/Src/stm32f4xx_hal_sram.c ****   {
ARM GAS  C:\cygwin\tmp\ccHJheQe.s 			page 5


 146:../STM32Cube_FW_F4_V1.4.0/Drivers/STM32F4xx_HAL_Driver/Src/stm32f4xx_hal_sram.c ****      return HAL_ERROR;
 147:../STM32Cube_FW_F4_V1.4.0/Drivers/STM32F4xx_HAL_Driver/Src/stm32f4xx_hal_sram.c ****   }
 148:../STM32Cube_FW_F4_V1.4.0/Drivers/STM32F4xx_HAL_Driver/Src/stm32f4xx_hal_sram.c ****   
 149:../STM32Cube_FW_F4_V1.4.0/Drivers/STM32F4xx_HAL_Driver/Src/stm32f4xx_hal_sram.c ****   if(hsram->State == HAL_SRAM_STATE_RESET)
 150:../STM32Cube_FW_F4_V1.4.0/Drivers/STM32F4xx_HAL_Driver/Src/stm32f4xx_hal_sram.c ****   {  
 151:../STM32Cube_FW_F4_V1.4.0/Drivers/STM32F4xx_HAL_Driver/Src/stm32f4xx_hal_sram.c ****     /* Initialize the low level hardware (MSP) */
 152:../STM32Cube_FW_F4_V1.4.0/Drivers/STM32F4xx_HAL_Driver/Src/stm32f4xx_hal_sram.c ****     HAL_SRAM_MspInit(hsram);
 153:../STM32Cube_FW_F4_V1.4.0/Drivers/STM32F4xx_HAL_Driver/Src/stm32f4xx_hal_sram.c ****   }
 154:../STM32Cube_FW_F4_V1.4.0/Drivers/STM32F4xx_HAL_Driver/Src/stm32f4xx_hal_sram.c ****   
 155:../STM32Cube_FW_F4_V1.4.0/Drivers/STM32F4xx_HAL_Driver/Src/stm32f4xx_hal_sram.c ****   /* Initialize SRAM control Interface */
 156:../STM32Cube_FW_F4_V1.4.0/Drivers/STM32F4xx_HAL_Driver/Src/stm32f4xx_hal_sram.c ****   FMC_NORSRAM_Init(hsram->Instance, &(hsram->Init));
 157:../STM32Cube_FW_F4_V1.4.0/Drivers/STM32F4xx_HAL_Driver/Src/stm32f4xx_hal_sram.c **** 
 158:../STM32Cube_FW_F4_V1.4.0/Drivers/STM32F4xx_HAL_Driver/Src/stm32f4xx_hal_sram.c ****   /* Initialize SRAM timing Interface */
 159:../STM32Cube_FW_F4_V1.4.0/Drivers/STM32F4xx_HAL_Driver/Src/stm32f4xx_hal_sram.c ****   FMC_NORSRAM_Timing_Init(hsram->Instance, Timing, hsram->Init.NSBank); 
 160:../STM32Cube_FW_F4_V1.4.0/Drivers/STM32F4xx_HAL_Driver/Src/stm32f4xx_hal_sram.c **** 
 161:../STM32Cube_FW_F4_V1.4.0/Drivers/STM32F4xx_HAL_Driver/Src/stm32f4xx_hal_sram.c ****   /* Initialize SRAM extended mode timing Interface */
 162:../STM32Cube_FW_F4_V1.4.0/Drivers/STM32F4xx_HAL_Driver/Src/stm32f4xx_hal_sram.c ****   FMC_NORSRAM_Extended_Timing_Init(hsram->Extended, ExtTiming, hsram->Init.NSBank,  hsram->Init.Ext
 163:../STM32Cube_FW_F4_V1.4.0/Drivers/STM32F4xx_HAL_Driver/Src/stm32f4xx_hal_sram.c ****   
 164:../STM32Cube_FW_F4_V1.4.0/Drivers/STM32F4xx_HAL_Driver/Src/stm32f4xx_hal_sram.c ****   /* Enable the NORSRAM device */
 165:../STM32Cube_FW_F4_V1.4.0/Drivers/STM32F4xx_HAL_Driver/Src/stm32f4xx_hal_sram.c ****   __FMC_NORSRAM_ENABLE(hsram->Instance, hsram->Init.NSBank); 
 166:../STM32Cube_FW_F4_V1.4.0/Drivers/STM32F4xx_HAL_Driver/Src/stm32f4xx_hal_sram.c ****   
 167:../STM32Cube_FW_F4_V1.4.0/Drivers/STM32F4xx_HAL_Driver/Src/stm32f4xx_hal_sram.c ****   return HAL_OK;
 168:../STM32Cube_FW_F4_V1.4.0/Drivers/STM32F4xx_HAL_Driver/Src/stm32f4xx_hal_sram.c **** }
 169:../STM32Cube_FW_F4_V1.4.0/Drivers/STM32F4xx_HAL_Driver/Src/stm32f4xx_hal_sram.c **** 
 170:../STM32Cube_FW_F4_V1.4.0/Drivers/STM32F4xx_HAL_Driver/Src/stm32f4xx_hal_sram.c **** /**
 171:../STM32Cube_FW_F4_V1.4.0/Drivers/STM32F4xx_HAL_Driver/Src/stm32f4xx_hal_sram.c ****   * @brief  Performs the SRAM device De-initialization sequence.
 172:../STM32Cube_FW_F4_V1.4.0/Drivers/STM32F4xx_HAL_Driver/Src/stm32f4xx_hal_sram.c ****   * @param  hsram: pointer to a SRAM_HandleTypeDef structure that contains
 173:../STM32Cube_FW_F4_V1.4.0/Drivers/STM32F4xx_HAL_Driver/Src/stm32f4xx_hal_sram.c ****   *                the configuration information for SRAM module.
 174:../STM32Cube_FW_F4_V1.4.0/Drivers/STM32F4xx_HAL_Driver/Src/stm32f4xx_hal_sram.c ****   * @retval HAL status
 175:../STM32Cube_FW_F4_V1.4.0/Drivers/STM32F4xx_HAL_Driver/Src/stm32f4xx_hal_sram.c ****   */
 176:../STM32Cube_FW_F4_V1.4.0/Drivers/STM32F4xx_HAL_Driver/Src/stm32f4xx_hal_sram.c **** HAL_StatusTypeDef  HAL_SRAM_DeInit(SRAM_HandleTypeDef *hsram)
 177:../STM32Cube_FW_F4_V1.4.0/Drivers/STM32F4xx_HAL_Driver/Src/stm32f4xx_hal_sram.c **** { 
 178:../STM32Cube_FW_F4_V1.4.0/Drivers/STM32F4xx_HAL_Driver/Src/stm32f4xx_hal_sram.c ****   /* De-Initialize the low level hardware (MSP) */
 179:../STM32Cube_FW_F4_V1.4.0/Drivers/STM32F4xx_HAL_Driver/Src/stm32f4xx_hal_sram.c ****   HAL_SRAM_MspDeInit(hsram);
 180:../STM32Cube_FW_F4_V1.4.0/Drivers/STM32F4xx_HAL_Driver/Src/stm32f4xx_hal_sram.c ****    
 181:../STM32Cube_FW_F4_V1.4.0/Drivers/STM32F4xx_HAL_Driver/Src/stm32f4xx_hal_sram.c ****   /* Configure the SRAM registers with their reset values */
 182:../STM32Cube_FW_F4_V1.4.0/Drivers/STM32F4xx_HAL_Driver/Src/stm32f4xx_hal_sram.c ****   FMC_NORSRAM_DeInit(hsram->Instance, hsram->Extended, hsram->Init.NSBank);
 183:../STM32Cube_FW_F4_V1.4.0/Drivers/STM32F4xx_HAL_Driver/Src/stm32f4xx_hal_sram.c **** 
 184:../STM32Cube_FW_F4_V1.4.0/Drivers/STM32F4xx_HAL_Driver/Src/stm32f4xx_hal_sram.c ****   hsram->State = HAL_SRAM_STATE_RESET;
 185:../STM32Cube_FW_F4_V1.4.0/Drivers/STM32F4xx_HAL_Driver/Src/stm32f4xx_hal_sram.c ****   
 186:../STM32Cube_FW_F4_V1.4.0/Drivers/STM32F4xx_HAL_Driver/Src/stm32f4xx_hal_sram.c ****   /* Release Lock */
 187:../STM32Cube_FW_F4_V1.4.0/Drivers/STM32F4xx_HAL_Driver/Src/stm32f4xx_hal_sram.c ****   __HAL_UNLOCK(hsram);
 188:../STM32Cube_FW_F4_V1.4.0/Drivers/STM32F4xx_HAL_Driver/Src/stm32f4xx_hal_sram.c **** 
 189:../STM32Cube_FW_F4_V1.4.0/Drivers/STM32F4xx_HAL_Driver/Src/stm32f4xx_hal_sram.c ****   return HAL_OK;
 190:../STM32Cube_FW_F4_V1.4.0/Drivers/STM32F4xx_HAL_Driver/Src/stm32f4xx_hal_sram.c **** }
 191:../STM32Cube_FW_F4_V1.4.0/Drivers/STM32F4xx_HAL_Driver/Src/stm32f4xx_hal_sram.c **** 
 192:../STM32Cube_FW_F4_V1.4.0/Drivers/STM32F4xx_HAL_Driver/Src/stm32f4xx_hal_sram.c **** /**
 193:../STM32Cube_FW_F4_V1.4.0/Drivers/STM32F4xx_HAL_Driver/Src/stm32f4xx_hal_sram.c ****   * @brief  SRAM MSP Init.
 194:../STM32Cube_FW_F4_V1.4.0/Drivers/STM32F4xx_HAL_Driver/Src/stm32f4xx_hal_sram.c ****   * @param  hsram: pointer to a SRAM_HandleTypeDef structure that contains
 195:../STM32Cube_FW_F4_V1.4.0/Drivers/STM32F4xx_HAL_Driver/Src/stm32f4xx_hal_sram.c ****   *                the configuration information for SRAM module.
 196:../STM32Cube_FW_F4_V1.4.0/Drivers/STM32F4xx_HAL_Driver/Src/stm32f4xx_hal_sram.c ****   * @retval None
 197:../STM32Cube_FW_F4_V1.4.0/Drivers/STM32F4xx_HAL_Driver/Src/stm32f4xx_hal_sram.c ****   */
 198:../STM32Cube_FW_F4_V1.4.0/Drivers/STM32F4xx_HAL_Driver/Src/stm32f4xx_hal_sram.c **** __weak void HAL_SRAM_MspInit(SRAM_HandleTypeDef *hsram)
 199:../STM32Cube_FW_F4_V1.4.0/Drivers/STM32F4xx_HAL_Driver/Src/stm32f4xx_hal_sram.c **** {
 200:../STM32Cube_FW_F4_V1.4.0/Drivers/STM32F4xx_HAL_Driver/Src/stm32f4xx_hal_sram.c ****   /* NOTE : This function Should not be modified, when the callback is needed,
 201:../STM32Cube_FW_F4_V1.4.0/Drivers/STM32F4xx_HAL_Driver/Src/stm32f4xx_hal_sram.c ****             the HAL_SRAM_MspInit could be implemented in the user file
 202:../STM32Cube_FW_F4_V1.4.0/Drivers/STM32F4xx_HAL_Driver/Src/stm32f4xx_hal_sram.c ****    */ 
ARM GAS  C:\cygwin\tmp\ccHJheQe.s 			page 6


 203:../STM32Cube_FW_F4_V1.4.0/Drivers/STM32F4xx_HAL_Driver/Src/stm32f4xx_hal_sram.c **** }
 204:../STM32Cube_FW_F4_V1.4.0/Drivers/STM32F4xx_HAL_Driver/Src/stm32f4xx_hal_sram.c **** 
 205:../STM32Cube_FW_F4_V1.4.0/Drivers/STM32F4xx_HAL_Driver/Src/stm32f4xx_hal_sram.c **** /**
 206:../STM32Cube_FW_F4_V1.4.0/Drivers/STM32F4xx_HAL_Driver/Src/stm32f4xx_hal_sram.c ****   * @brief  SRAM MSP DeInit.
 207:../STM32Cube_FW_F4_V1.4.0/Drivers/STM32F4xx_HAL_Driver/Src/stm32f4xx_hal_sram.c ****   * @param  hsram: pointer to a SRAM_HandleTypeDef structure that contains
 208:../STM32Cube_FW_F4_V1.4.0/Drivers/STM32F4xx_HAL_Driver/Src/stm32f4xx_hal_sram.c ****   *                the configuration information for SRAM module.
 209:../STM32Cube_FW_F4_V1.4.0/Drivers/STM32F4xx_HAL_Driver/Src/stm32f4xx_hal_sram.c ****   * @retval None
 210:../STM32Cube_FW_F4_V1.4.0/Drivers/STM32F4xx_HAL_Driver/Src/stm32f4xx_hal_sram.c ****   */
 211:../STM32Cube_FW_F4_V1.4.0/Drivers/STM32F4xx_HAL_Driver/Src/stm32f4xx_hal_sram.c **** __weak void HAL_SRAM_MspDeInit(SRAM_HandleTypeDef *hsram)
 212:../STM32Cube_FW_F4_V1.4.0/Drivers/STM32F4xx_HAL_Driver/Src/stm32f4xx_hal_sram.c **** {
 213:../STM32Cube_FW_F4_V1.4.0/Drivers/STM32F4xx_HAL_Driver/Src/stm32f4xx_hal_sram.c ****   /* NOTE : This function Should not be modified, when the callback is needed,
 214:../STM32Cube_FW_F4_V1.4.0/Drivers/STM32F4xx_HAL_Driver/Src/stm32f4xx_hal_sram.c ****             the HAL_SRAM_MspDeInit could be implemented in the user file
 215:../STM32Cube_FW_F4_V1.4.0/Drivers/STM32F4xx_HAL_Driver/Src/stm32f4xx_hal_sram.c ****    */ 
 216:../STM32Cube_FW_F4_V1.4.0/Drivers/STM32F4xx_HAL_Driver/Src/stm32f4xx_hal_sram.c **** }
 217:../STM32Cube_FW_F4_V1.4.0/Drivers/STM32F4xx_HAL_Driver/Src/stm32f4xx_hal_sram.c **** 
 218:../STM32Cube_FW_F4_V1.4.0/Drivers/STM32F4xx_HAL_Driver/Src/stm32f4xx_hal_sram.c **** /**
 219:../STM32Cube_FW_F4_V1.4.0/Drivers/STM32F4xx_HAL_Driver/Src/stm32f4xx_hal_sram.c ****   * @brief  DMA transfer complete callback.
 220:../STM32Cube_FW_F4_V1.4.0/Drivers/STM32F4xx_HAL_Driver/Src/stm32f4xx_hal_sram.c ****   * @param  hdma: pointer to a SRAM_HandleTypeDef structure that contains
 221:../STM32Cube_FW_F4_V1.4.0/Drivers/STM32F4xx_HAL_Driver/Src/stm32f4xx_hal_sram.c ****   *                the configuration information for SRAM module.
 222:../STM32Cube_FW_F4_V1.4.0/Drivers/STM32F4xx_HAL_Driver/Src/stm32f4xx_hal_sram.c ****   * @retval None
 223:../STM32Cube_FW_F4_V1.4.0/Drivers/STM32F4xx_HAL_Driver/Src/stm32f4xx_hal_sram.c ****   */
 224:../STM32Cube_FW_F4_V1.4.0/Drivers/STM32F4xx_HAL_Driver/Src/stm32f4xx_hal_sram.c **** __weak void HAL_SRAM_DMA_XferCpltCallback(DMA_HandleTypeDef *hdma)
 225:../STM32Cube_FW_F4_V1.4.0/Drivers/STM32F4xx_HAL_Driver/Src/stm32f4xx_hal_sram.c **** {
  84              		.loc 1 225 0
  85              		.cfi_startproc
  86              		@ args = 0, pretend = 0, frame = 0
  87              		@ frame_needed = 0, uses_anonymous_args = 0
  88              		@ link register save eliminated.
  89              	.LVL0:
  90 0000 7047     		bx	lr	@
  91              		.cfi_endproc
  92              	.LFE127:
  93              		.size	HAL_SRAM_DMA_XferCpltCallback, .-HAL_SRAM_DMA_XferCpltCallback
  94              		.section	.text.HAL_SRAM_DMA_XferErrorCallback,"ax",%progbits
  95              		.align	1
  96              		.weak	HAL_SRAM_DMA_XferErrorCallback
  97              		.thumb
  98              		.thumb_func
  99              		.type	HAL_SRAM_DMA_XferErrorCallback, %function
 100              	HAL_SRAM_DMA_XferErrorCallback:
 101              	.LFB128:
 226:../STM32Cube_FW_F4_V1.4.0/Drivers/STM32F4xx_HAL_Driver/Src/stm32f4xx_hal_sram.c ****   /* NOTE : This function Should not be modified, when the callback is needed,
 227:../STM32Cube_FW_F4_V1.4.0/Drivers/STM32F4xx_HAL_Driver/Src/stm32f4xx_hal_sram.c ****             the HAL_SRAM_DMA_XferCpltCallback could be implemented in the user file
 228:../STM32Cube_FW_F4_V1.4.0/Drivers/STM32F4xx_HAL_Driver/Src/stm32f4xx_hal_sram.c ****    */ 
 229:../STM32Cube_FW_F4_V1.4.0/Drivers/STM32F4xx_HAL_Driver/Src/stm32f4xx_hal_sram.c **** }
 230:../STM32Cube_FW_F4_V1.4.0/Drivers/STM32F4xx_HAL_Driver/Src/stm32f4xx_hal_sram.c **** 
 231:../STM32Cube_FW_F4_V1.4.0/Drivers/STM32F4xx_HAL_Driver/Src/stm32f4xx_hal_sram.c **** /**
 232:../STM32Cube_FW_F4_V1.4.0/Drivers/STM32F4xx_HAL_Driver/Src/stm32f4xx_hal_sram.c ****   * @brief  DMA transfer complete error callback.
 233:../STM32Cube_FW_F4_V1.4.0/Drivers/STM32F4xx_HAL_Driver/Src/stm32f4xx_hal_sram.c ****   * @param  hdma: pointer to a SRAM_HandleTypeDef structure that contains
 234:../STM32Cube_FW_F4_V1.4.0/Drivers/STM32F4xx_HAL_Driver/Src/stm32f4xx_hal_sram.c ****   *                the configuration information for SRAM module.
 235:../STM32Cube_FW_F4_V1.4.0/Drivers/STM32F4xx_HAL_Driver/Src/stm32f4xx_hal_sram.c ****   * @retval None
 236:../STM32Cube_FW_F4_V1.4.0/Drivers/STM32F4xx_HAL_Driver/Src/stm32f4xx_hal_sram.c ****   */
 237:../STM32Cube_FW_F4_V1.4.0/Drivers/STM32F4xx_HAL_Driver/Src/stm32f4xx_hal_sram.c **** __weak void HAL_SRAM_DMA_XferErrorCallback(DMA_HandleTypeDef *hdma)
 238:../STM32Cube_FW_F4_V1.4.0/Drivers/STM32F4xx_HAL_Driver/Src/stm32f4xx_hal_sram.c **** {
 102              		.loc 1 238 0
 103              		.cfi_startproc
 104              		@ args = 0, pretend = 0, frame = 0
ARM GAS  C:\cygwin\tmp\ccHJheQe.s 			page 7


 105              		@ frame_needed = 0, uses_anonymous_args = 0
 106              		@ link register save eliminated.
 107              	.LVL1:
 108 0000 7047     		bx	lr	@
 109              		.cfi_endproc
 110              	.LFE128:
 111              		.size	HAL_SRAM_DMA_XferErrorCallback, .-HAL_SRAM_DMA_XferErrorCallback
 112              		.section	.text.HAL_SRAM_MspInit,"ax",%progbits
 113              		.align	1
 114              		.weak	HAL_SRAM_MspInit
 115              		.thumb
 116              		.thumb_func
 117              		.type	HAL_SRAM_MspInit, %function
 118              	HAL_SRAM_MspInit:
 119              	.LFB125:
 199:../STM32Cube_FW_F4_V1.4.0/Drivers/STM32F4xx_HAL_Driver/Src/stm32f4xx_hal_sram.c ****   /* NOTE : This function Should not be modified, when the callback is needed,
 120              		.loc 1 199 0
 121              		.cfi_startproc
 122              		@ args = 0, pretend = 0, frame = 0
 123              		@ frame_needed = 0, uses_anonymous_args = 0
 124              		@ link register save eliminated.
 125              	.LVL2:
 126 0000 7047     		bx	lr	@
 127              		.cfi_endproc
 128              	.LFE125:
 129              		.size	HAL_SRAM_MspInit, .-HAL_SRAM_MspInit
 130              		.section	.text.HAL_SRAM_Init,"ax",%progbits
 131              		.align	1
 132              		.global	HAL_SRAM_Init
 133              		.thumb
 134              		.thumb_func
 135              		.type	HAL_SRAM_Init, %function
 136              	HAL_SRAM_Init:
 137              	.LFB123:
 142:../STM32Cube_FW_F4_V1.4.0/Drivers/STM32F4xx_HAL_Driver/Src/stm32f4xx_hal_sram.c ****   /* Check the SRAM handle parameter */
 138              		.loc 1 142 0
 139              		.cfi_startproc
 140              		@ args = 0, pretend = 0, frame = 0
 141              		@ frame_needed = 0, uses_anonymous_args = 0
 142              	.LVL3:
 142:../STM32Cube_FW_F4_V1.4.0/Drivers/STM32F4xx_HAL_Driver/Src/stm32f4xx_hal_sram.c ****   /* Check the SRAM handle parameter */
 143              		.loc 1 142 0
 144 0000 70B5     		push	{r4, r5, r6, lr}	@
 145              		.cfi_def_cfa_offset 16
 146              		.cfi_offset 4, -16
 147              		.cfi_offset 5, -12
 148              		.cfi_offset 6, -8
 149              		.cfi_offset 14, -4
 142:../STM32Cube_FW_F4_V1.4.0/Drivers/STM32F4xx_HAL_Driver/Src/stm32f4xx_hal_sram.c ****   /* Check the SRAM handle parameter */
 150              		.loc 1 142 0
 151 0002 0E46     		mov	r6, r1	@ Timing, Timing
 152 0004 1546     		mov	r5, r2	@ ExtTiming, ExtTiming
 144:../STM32Cube_FW_F4_V1.4.0/Drivers/STM32F4xx_HAL_Driver/Src/stm32f4xx_hal_sram.c ****   {
 153              		.loc 1 144 0
 154 0006 0446     		mov	r4, r0	@ hsram, hsram
 155 0008 F0B1     		cbz	r0, .L7	@ hsram,
 149:../STM32Cube_FW_F4_V1.4.0/Drivers/STM32F4xx_HAL_Driver/Src/stm32f4xx_hal_sram.c ****   {  
ARM GAS  C:\cygwin\tmp\ccHJheQe.s 			page 8


 156              		.loc 1 149 0
 157 000a 90F83D30 		ldrb	r3, [r0, #61]	@ zero_extendqisi2	@ hsram_4(D)->State, hsram_4(D)->State
 158 000e 0BB9     		cbnz	r3, .L6	@ hsram_4(D)->State,
 152:../STM32Cube_FW_F4_V1.4.0/Drivers/STM32F4xx_HAL_Driver/Src/stm32f4xx_hal_sram.c ****   }
 159              		.loc 1 152 0
 160 0010 FFF7FEFF 		bl	HAL_SRAM_MspInit	@
 161              	.LVL4:
 162              	.L6:
 156:../STM32Cube_FW_F4_V1.4.0/Drivers/STM32F4xx_HAL_Driver/Src/stm32f4xx_hal_sram.c **** 
 163              		.loc 1 156 0
 164 0014 04F10801 		add	r1, r4, #8	@, hsram,
 165 0018 2068     		ldr	r0, [r4]	@, hsram_4(D)->Instance
 166 001a FFF7FEFF 		bl	FSMC_NORSRAM_Init	@
 167              	.LVL5:
 159:../STM32Cube_FW_F4_V1.4.0/Drivers/STM32F4xx_HAL_Driver/Src/stm32f4xx_hal_sram.c **** 
 168              		.loc 1 159 0
 169 001e 3146     		mov	r1, r6	@, Timing
 170 0020 A268     		ldr	r2, [r4, #8]	@, hsram_4(D)->Init.NSBank
 171 0022 2068     		ldr	r0, [r4]	@, hsram_4(D)->Instance
 172 0024 FFF7FEFF 		bl	FSMC_NORSRAM_Timing_Init	@
 173              	.LVL6:
 162:../STM32Cube_FW_F4_V1.4.0/Drivers/STM32F4xx_HAL_Driver/Src/stm32f4xx_hal_sram.c ****   
 174              		.loc 1 162 0
 175 0028 2946     		mov	r1, r5	@, ExtTiming
 176 002a A268     		ldr	r2, [r4, #8]	@, hsram_4(D)->Init.NSBank
 177 002c 236B     		ldr	r3, [r4, #48]	@, hsram_4(D)->Init.ExtendedMode
 178 002e 6068     		ldr	r0, [r4, #4]	@, hsram_4(D)->Extended
 179 0030 FFF7FEFF 		bl	FSMC_NORSRAM_Extended_Timing_Init	@
 180              	.LVL7:
 181 0034 A168     		ldr	r1, [r4, #8]	@ hsram_4(D)->Init.NSBank, hsram_4(D)->Init.NSBank
 182 0036 2268     		ldr	r2, [r4]	@ hsram_4(D)->Instance, hsram_4(D)->Instance
 165:../STM32Cube_FW_F4_V1.4.0/Drivers/STM32F4xx_HAL_Driver/Src/stm32f4xx_hal_sram.c ****   
 183              		.loc 1 165 0
 184 0038 52F82130 		ldr	r3, [r2, r1, lsl #2]	@ D.7557, MEM[(struct FSMC_Bank1_TypeDef *)_25]
 185 003c 43F00103 		orr	r3, r3, #1	@ D.7557, D.7557,
 186 0040 42F82130 		str	r3, [r2, r1, lsl #2]	@ D.7557, MEM[(struct FSMC_Bank1_TypeDef *)_25]
 167:../STM32Cube_FW_F4_V1.4.0/Drivers/STM32F4xx_HAL_Driver/Src/stm32f4xx_hal_sram.c **** }
 187              		.loc 1 167 0
 188 0044 0020     		movs	r0, #0	@ D.7553,
 189 0046 70BD     		pop	{r4, r5, r6, pc}	@
 190              	.LVL8:
 191              	.L7:
 146:../STM32Cube_FW_F4_V1.4.0/Drivers/STM32F4xx_HAL_Driver/Src/stm32f4xx_hal_sram.c ****   }
 192              		.loc 1 146 0
 193 0048 0120     		movs	r0, #1	@ D.7553,
 194              	.LVL9:
 168:../STM32Cube_FW_F4_V1.4.0/Drivers/STM32F4xx_HAL_Driver/Src/stm32f4xx_hal_sram.c **** 
 195              		.loc 1 168 0
 196 004a 70BD     		pop	{r4, r5, r6, pc}	@
 197              		.cfi_endproc
 198              	.LFE123:
 199              		.size	HAL_SRAM_Init, .-HAL_SRAM_Init
 200              		.section	.text.HAL_SRAM_MspDeInit,"ax",%progbits
 201              		.align	1
 202              		.weak	HAL_SRAM_MspDeInit
 203              		.thumb
 204              		.thumb_func
ARM GAS  C:\cygwin\tmp\ccHJheQe.s 			page 9


 205              		.type	HAL_SRAM_MspDeInit, %function
 206              	HAL_SRAM_MspDeInit:
 207              	.LFB126:
 212:../STM32Cube_FW_F4_V1.4.0/Drivers/STM32F4xx_HAL_Driver/Src/stm32f4xx_hal_sram.c ****   /* NOTE : This function Should not be modified, when the callback is needed,
 208              		.loc 1 212 0
 209              		.cfi_startproc
 210              		@ args = 0, pretend = 0, frame = 0
 211              		@ frame_needed = 0, uses_anonymous_args = 0
 212              		@ link register save eliminated.
 213              	.LVL10:
 214 0000 7047     		bx	lr	@
 215              		.cfi_endproc
 216              	.LFE126:
 217              		.size	HAL_SRAM_MspDeInit, .-HAL_SRAM_MspDeInit
 218              		.section	.text.HAL_SRAM_DeInit,"ax",%progbits
 219              		.align	1
 220              		.global	HAL_SRAM_DeInit
 221              		.thumb
 222              		.thumb_func
 223              		.type	HAL_SRAM_DeInit, %function
 224              	HAL_SRAM_DeInit:
 225              	.LFB124:
 177:../STM32Cube_FW_F4_V1.4.0/Drivers/STM32F4xx_HAL_Driver/Src/stm32f4xx_hal_sram.c ****   /* De-Initialize the low level hardware (MSP) */
 226              		.loc 1 177 0
 227              		.cfi_startproc
 228              		@ args = 0, pretend = 0, frame = 0
 229              		@ frame_needed = 0, uses_anonymous_args = 0
 230              	.LVL11:
 177:../STM32Cube_FW_F4_V1.4.0/Drivers/STM32F4xx_HAL_Driver/Src/stm32f4xx_hal_sram.c ****   /* De-Initialize the low level hardware (MSP) */
 231              		.loc 1 177 0
 232 0000 10B5     		push	{r4, lr}	@
 233              		.cfi_def_cfa_offset 8
 234              		.cfi_offset 4, -8
 235              		.cfi_offset 14, -4
 177:../STM32Cube_FW_F4_V1.4.0/Drivers/STM32F4xx_HAL_Driver/Src/stm32f4xx_hal_sram.c ****   /* De-Initialize the low level hardware (MSP) */
 236              		.loc 1 177 0
 237 0002 0446     		mov	r4, r0	@ hsram, hsram
 179:../STM32Cube_FW_F4_V1.4.0/Drivers/STM32F4xx_HAL_Driver/Src/stm32f4xx_hal_sram.c ****    
 238              		.loc 1 179 0
 239 0004 FFF7FEFF 		bl	HAL_SRAM_MspDeInit	@
 240              	.LVL12:
 182:../STM32Cube_FW_F4_V1.4.0/Drivers/STM32F4xx_HAL_Driver/Src/stm32f4xx_hal_sram.c **** 
 241              		.loc 1 182 0
 242 0008 94E80700 		ldmia	r4, {r0, r1, r2}	@ hsram,,,
 243 000c FFF7FEFF 		bl	FSMC_NORSRAM_DeInit	@
 244              	.LVL13:
 184:../STM32Cube_FW_F4_V1.4.0/Drivers/STM32F4xx_HAL_Driver/Src/stm32f4xx_hal_sram.c ****   
 245              		.loc 1 184 0
 246 0010 0020     		movs	r0, #0	@ tmp115,
 247 0012 84F83D00 		strb	r0, [r4, #61]	@ tmp115, hsram_2(D)->State
 187:../STM32Cube_FW_F4_V1.4.0/Drivers/STM32F4xx_HAL_Driver/Src/stm32f4xx_hal_sram.c **** 
 248              		.loc 1 187 0
 249 0016 84F83C00 		strb	r0, [r4, #60]	@ tmp115, hsram_2(D)->Lock
 190:../STM32Cube_FW_F4_V1.4.0/Drivers/STM32F4xx_HAL_Driver/Src/stm32f4xx_hal_sram.c **** 
 250              		.loc 1 190 0
 251 001a 10BD     		pop	{r4, pc}	@
 252              		.cfi_endproc
ARM GAS  C:\cygwin\tmp\ccHJheQe.s 			page 10


 253              	.LFE124:
 254              		.size	HAL_SRAM_DeInit, .-HAL_SRAM_DeInit
 255              		.section	.text.HAL_SRAM_Read_8b,"ax",%progbits
 256              		.align	1
 257              		.global	HAL_SRAM_Read_8b
 258              		.thumb
 259              		.thumb_func
 260              		.type	HAL_SRAM_Read_8b, %function
 261              	HAL_SRAM_Read_8b:
 262              	.LFB129:
 239:../STM32Cube_FW_F4_V1.4.0/Drivers/STM32F4xx_HAL_Driver/Src/stm32f4xx_hal_sram.c ****   /* NOTE : This function Should not be modified, when the callback is needed,
 240:../STM32Cube_FW_F4_V1.4.0/Drivers/STM32F4xx_HAL_Driver/Src/stm32f4xx_hal_sram.c ****             the HAL_SRAM_DMA_XferErrorCallback could be implemented in the user file
 241:../STM32Cube_FW_F4_V1.4.0/Drivers/STM32F4xx_HAL_Driver/Src/stm32f4xx_hal_sram.c ****    */ 
 242:../STM32Cube_FW_F4_V1.4.0/Drivers/STM32F4xx_HAL_Driver/Src/stm32f4xx_hal_sram.c **** }
 243:../STM32Cube_FW_F4_V1.4.0/Drivers/STM32F4xx_HAL_Driver/Src/stm32f4xx_hal_sram.c **** 
 244:../STM32Cube_FW_F4_V1.4.0/Drivers/STM32F4xx_HAL_Driver/Src/stm32f4xx_hal_sram.c **** /**
 245:../STM32Cube_FW_F4_V1.4.0/Drivers/STM32F4xx_HAL_Driver/Src/stm32f4xx_hal_sram.c ****   * @}
 246:../STM32Cube_FW_F4_V1.4.0/Drivers/STM32F4xx_HAL_Driver/Src/stm32f4xx_hal_sram.c ****   */
 247:../STM32Cube_FW_F4_V1.4.0/Drivers/STM32F4xx_HAL_Driver/Src/stm32f4xx_hal_sram.c **** 
 248:../STM32Cube_FW_F4_V1.4.0/Drivers/STM32F4xx_HAL_Driver/Src/stm32f4xx_hal_sram.c **** /** @defgroup SRAM_Exported_Functions_Group2 Input and Output functions 
 249:../STM32Cube_FW_F4_V1.4.0/Drivers/STM32F4xx_HAL_Driver/Src/stm32f4xx_hal_sram.c ****   * @brief    Input Output and memory control functions 
 250:../STM32Cube_FW_F4_V1.4.0/Drivers/STM32F4xx_HAL_Driver/Src/stm32f4xx_hal_sram.c ****   *
 251:../STM32Cube_FW_F4_V1.4.0/Drivers/STM32F4xx_HAL_Driver/Src/stm32f4xx_hal_sram.c ****   @verbatim    
 252:../STM32Cube_FW_F4_V1.4.0/Drivers/STM32F4xx_HAL_Driver/Src/stm32f4xx_hal_sram.c ****   ==============================================================================
 253:../STM32Cube_FW_F4_V1.4.0/Drivers/STM32F4xx_HAL_Driver/Src/stm32f4xx_hal_sram.c ****                   ##### SRAM Input and Output functions #####
 254:../STM32Cube_FW_F4_V1.4.0/Drivers/STM32F4xx_HAL_Driver/Src/stm32f4xx_hal_sram.c ****   ==============================================================================
 255:../STM32Cube_FW_F4_V1.4.0/Drivers/STM32F4xx_HAL_Driver/Src/stm32f4xx_hal_sram.c ****   [..]  
 256:../STM32Cube_FW_F4_V1.4.0/Drivers/STM32F4xx_HAL_Driver/Src/stm32f4xx_hal_sram.c ****     This section provides functions allowing to use and control the SRAM memory
 257:../STM32Cube_FW_F4_V1.4.0/Drivers/STM32F4xx_HAL_Driver/Src/stm32f4xx_hal_sram.c ****   
 258:../STM32Cube_FW_F4_V1.4.0/Drivers/STM32F4xx_HAL_Driver/Src/stm32f4xx_hal_sram.c **** @endverbatim
 259:../STM32Cube_FW_F4_V1.4.0/Drivers/STM32F4xx_HAL_Driver/Src/stm32f4xx_hal_sram.c ****   * @{
 260:../STM32Cube_FW_F4_V1.4.0/Drivers/STM32F4xx_HAL_Driver/Src/stm32f4xx_hal_sram.c ****   */
 261:../STM32Cube_FW_F4_V1.4.0/Drivers/STM32F4xx_HAL_Driver/Src/stm32f4xx_hal_sram.c **** 
 262:../STM32Cube_FW_F4_V1.4.0/Drivers/STM32F4xx_HAL_Driver/Src/stm32f4xx_hal_sram.c **** /**
 263:../STM32Cube_FW_F4_V1.4.0/Drivers/STM32F4xx_HAL_Driver/Src/stm32f4xx_hal_sram.c ****   * @brief  Reads 8-bit buffer from SRAM memory. 
 264:../STM32Cube_FW_F4_V1.4.0/Drivers/STM32F4xx_HAL_Driver/Src/stm32f4xx_hal_sram.c ****   * @param  hsram: pointer to a SRAM_HandleTypeDef structure that contains
 265:../STM32Cube_FW_F4_V1.4.0/Drivers/STM32F4xx_HAL_Driver/Src/stm32f4xx_hal_sram.c ****   *                the configuration information for SRAM module.
 266:../STM32Cube_FW_F4_V1.4.0/Drivers/STM32F4xx_HAL_Driver/Src/stm32f4xx_hal_sram.c ****   * @param  pAddress: Pointer to read start address
 267:../STM32Cube_FW_F4_V1.4.0/Drivers/STM32F4xx_HAL_Driver/Src/stm32f4xx_hal_sram.c ****   * @param  pDstBuffer: Pointer to destination buffer  
 268:../STM32Cube_FW_F4_V1.4.0/Drivers/STM32F4xx_HAL_Driver/Src/stm32f4xx_hal_sram.c ****   * @param  BufferSize: Size of the buffer to read from memory
 269:../STM32Cube_FW_F4_V1.4.0/Drivers/STM32F4xx_HAL_Driver/Src/stm32f4xx_hal_sram.c ****   * @retval HAL status
 270:../STM32Cube_FW_F4_V1.4.0/Drivers/STM32F4xx_HAL_Driver/Src/stm32f4xx_hal_sram.c ****   */
 271:../STM32Cube_FW_F4_V1.4.0/Drivers/STM32F4xx_HAL_Driver/Src/stm32f4xx_hal_sram.c **** HAL_StatusTypeDef HAL_SRAM_Read_8b(SRAM_HandleTypeDef *hsram, uint32_t *pAddress, uint8_t *pDstBuff
 272:../STM32Cube_FW_F4_V1.4.0/Drivers/STM32F4xx_HAL_Driver/Src/stm32f4xx_hal_sram.c **** {
 263              		.loc 1 272 0
 264              		.cfi_startproc
 265              		@ args = 0, pretend = 0, frame = 0
 266              		@ frame_needed = 0, uses_anonymous_args = 0
 267              	.LVL14:
 268 0000 30B5     		push	{r4, r5, lr}	@
 269              		.cfi_def_cfa_offset 12
 270              		.cfi_offset 4, -12
 271              		.cfi_offset 5, -8
 272              		.cfi_offset 14, -4
 273:../STM32Cube_FW_F4_V1.4.0/Drivers/STM32F4xx_HAL_Driver/Src/stm32f4xx_hal_sram.c ****   __IO uint8_t * pSramAddress = (uint8_t *)pAddress;
 274:../STM32Cube_FW_F4_V1.4.0/Drivers/STM32F4xx_HAL_Driver/Src/stm32f4xx_hal_sram.c ****   
 275:../STM32Cube_FW_F4_V1.4.0/Drivers/STM32F4xx_HAL_Driver/Src/stm32f4xx_hal_sram.c ****   /* Process Locked */
ARM GAS  C:\cygwin\tmp\ccHJheQe.s 			page 11


 276:../STM32Cube_FW_F4_V1.4.0/Drivers/STM32F4xx_HAL_Driver/Src/stm32f4xx_hal_sram.c ****   __HAL_LOCK(hsram);
 273              		.loc 1 276 0
 274 0002 90F83C40 		ldrb	r4, [r0, #60]	@ zero_extendqisi2	@ hsram_9(D)->Lock, hsram_9(D)->Lock
 275 0006 012C     		cmp	r4, #1	@ hsram_9(D)->Lock,
 276 0008 4FF00204 		mov	r4, #2	@ D.7590,
 277 000c 14D0     		beq	.L15	@,
 278              		.loc 1 276 0 is_stmt 0 discriminator 2
 279 000e 0125     		movs	r5, #1	@ tmp150,
 280 0010 80F83C50 		strb	r5, [r0, #60]	@ tmp150, hsram_9(D)->Lock
 277:../STM32Cube_FW_F4_V1.4.0/Drivers/STM32F4xx_HAL_Driver/Src/stm32f4xx_hal_sram.c ****   
 278:../STM32Cube_FW_F4_V1.4.0/Drivers/STM32F4xx_HAL_Driver/Src/stm32f4xx_hal_sram.c ****   /* Update the SRAM controller state */
 279:../STM32Cube_FW_F4_V1.4.0/Drivers/STM32F4xx_HAL_Driver/Src/stm32f4xx_hal_sram.c ****   hsram->State = HAL_SRAM_STATE_BUSY;  
 281              		.loc 1 279 0 is_stmt 1 discriminator 2
 282 0014 80F83D40 		strb	r4, [r0, #61]	@ D.7590, hsram_9(D)->State
 283 0018 0B44     		add	r3, r3, r1	@ D.7593, pAddress
 284              	.LVL15:
 285              	.L13:
 280:../STM32Cube_FW_F4_V1.4.0/Drivers/STM32F4xx_HAL_Driver/Src/stm32f4xx_hal_sram.c ****   
 281:../STM32Cube_FW_F4_V1.4.0/Drivers/STM32F4xx_HAL_Driver/Src/stm32f4xx_hal_sram.c ****   /* Read data from memory */
 282:../STM32Cube_FW_F4_V1.4.0/Drivers/STM32F4xx_HAL_Driver/Src/stm32f4xx_hal_sram.c ****   for(; BufferSize != 0; BufferSize--)
 286              		.loc 1 282 0 discriminator 1
 287 001a 9942     		cmp	r1, r3	@ pAddress, D.7593
 288 001c 04D0     		beq	.L16	@,
 283:../STM32Cube_FW_F4_V1.4.0/Drivers/STM32F4xx_HAL_Driver/Src/stm32f4xx_hal_sram.c ****   {
 284:../STM32Cube_FW_F4_V1.4.0/Drivers/STM32F4xx_HAL_Driver/Src/stm32f4xx_hal_sram.c ****     *pDstBuffer = *(__IO uint8_t *)pSramAddress;
 289              		.loc 1 284 0 discriminator 2
 290 001e 11F8014B 		ldrb	r4, [r1], #1	@ zero_extendqisi2	@ MEM[(volatile uint8_t *)pAddress_3], MEM[(volatile uint8_t 
 291              	.LVL16:
 292 0022 02F8014B 		strb	r4, [r2], #1	@ MEM[(volatile uint8_t *)pAddress_3], MEM[base: pDstBuffer_1, offset: 0B]
 293              	.LVL17:
 294 0026 F8E7     		b	.L13	@
 295              	.L16:
 285:../STM32Cube_FW_F4_V1.4.0/Drivers/STM32F4xx_HAL_Driver/Src/stm32f4xx_hal_sram.c ****     pDstBuffer++;
 286:../STM32Cube_FW_F4_V1.4.0/Drivers/STM32F4xx_HAL_Driver/Src/stm32f4xx_hal_sram.c ****     pSramAddress++;
 287:../STM32Cube_FW_F4_V1.4.0/Drivers/STM32F4xx_HAL_Driver/Src/stm32f4xx_hal_sram.c ****   }
 288:../STM32Cube_FW_F4_V1.4.0/Drivers/STM32F4xx_HAL_Driver/Src/stm32f4xx_hal_sram.c ****   
 289:../STM32Cube_FW_F4_V1.4.0/Drivers/STM32F4xx_HAL_Driver/Src/stm32f4xx_hal_sram.c ****   /* Update the SRAM controller state */
 290:../STM32Cube_FW_F4_V1.4.0/Drivers/STM32F4xx_HAL_Driver/Src/stm32f4xx_hal_sram.c ****   hsram->State = HAL_SRAM_STATE_READY;    
 296              		.loc 1 290 0
 297 0028 0123     		movs	r3, #1	@ tmp157,
 298 002a 80F83D30 		strb	r3, [r0, #61]	@ tmp157, hsram_9(D)->State
 291:../STM32Cube_FW_F4_V1.4.0/Drivers/STM32F4xx_HAL_Driver/Src/stm32f4xx_hal_sram.c **** 
 292:../STM32Cube_FW_F4_V1.4.0/Drivers/STM32F4xx_HAL_Driver/Src/stm32f4xx_hal_sram.c ****   /* Process unlocked */
 293:../STM32Cube_FW_F4_V1.4.0/Drivers/STM32F4xx_HAL_Driver/Src/stm32f4xx_hal_sram.c ****   __HAL_UNLOCK(hsram); 
 299              		.loc 1 293 0
 300 002e 0023     		movs	r3, #0	@ tmp159,
 301 0030 80F83C30 		strb	r3, [r0, #60]	@ tmp159, hsram_9(D)->Lock
 294:../STM32Cube_FW_F4_V1.4.0/Drivers/STM32F4xx_HAL_Driver/Src/stm32f4xx_hal_sram.c ****     
 295:../STM32Cube_FW_F4_V1.4.0/Drivers/STM32F4xx_HAL_Driver/Src/stm32f4xx_hal_sram.c ****   return HAL_OK;   
 302              		.loc 1 295 0
 303 0034 1846     		mov	r0, r3	@ D.7590, tmp159
 304              	.LVL18:
 305 0036 30BD     		pop	{r4, r5, pc}	@
 306              	.LVL19:
 307              	.L15:
 276:../STM32Cube_FW_F4_V1.4.0/Drivers/STM32F4xx_HAL_Driver/Src/stm32f4xx_hal_sram.c ****   
 308              		.loc 1 276 0
ARM GAS  C:\cygwin\tmp\ccHJheQe.s 			page 12


 309 0038 2046     		mov	r0, r4	@ D.7590, D.7590
 310              	.LVL20:
 296:../STM32Cube_FW_F4_V1.4.0/Drivers/STM32F4xx_HAL_Driver/Src/stm32f4xx_hal_sram.c **** }
 311              		.loc 1 296 0
 312 003a 30BD     		pop	{r4, r5, pc}	@
 313              		.cfi_endproc
 314              	.LFE129:
 315              		.size	HAL_SRAM_Read_8b, .-HAL_SRAM_Read_8b
 316              		.section	.text.HAL_SRAM_Write_8b,"ax",%progbits
 317              		.align	1
 318              		.global	HAL_SRAM_Write_8b
 319              		.thumb
 320              		.thumb_func
 321              		.type	HAL_SRAM_Write_8b, %function
 322              	HAL_SRAM_Write_8b:
 323              	.LFB130:
 297:../STM32Cube_FW_F4_V1.4.0/Drivers/STM32F4xx_HAL_Driver/Src/stm32f4xx_hal_sram.c **** 
 298:../STM32Cube_FW_F4_V1.4.0/Drivers/STM32F4xx_HAL_Driver/Src/stm32f4xx_hal_sram.c **** /**
 299:../STM32Cube_FW_F4_V1.4.0/Drivers/STM32F4xx_HAL_Driver/Src/stm32f4xx_hal_sram.c ****   * @brief  Writes 8-bit buffer to SRAM memory. 
 300:../STM32Cube_FW_F4_V1.4.0/Drivers/STM32F4xx_HAL_Driver/Src/stm32f4xx_hal_sram.c ****   * @param  hsram: pointer to a SRAM_HandleTypeDef structure that contains
 301:../STM32Cube_FW_F4_V1.4.0/Drivers/STM32F4xx_HAL_Driver/Src/stm32f4xx_hal_sram.c ****   *                the configuration information for SRAM module.
 302:../STM32Cube_FW_F4_V1.4.0/Drivers/STM32F4xx_HAL_Driver/Src/stm32f4xx_hal_sram.c ****   * @param  pAddress: Pointer to write start address
 303:../STM32Cube_FW_F4_V1.4.0/Drivers/STM32F4xx_HAL_Driver/Src/stm32f4xx_hal_sram.c ****   * @param  pSrcBuffer: Pointer to source buffer to write  
 304:../STM32Cube_FW_F4_V1.4.0/Drivers/STM32F4xx_HAL_Driver/Src/stm32f4xx_hal_sram.c ****   * @param  BufferSize: Size of the buffer to write to memory
 305:../STM32Cube_FW_F4_V1.4.0/Drivers/STM32F4xx_HAL_Driver/Src/stm32f4xx_hal_sram.c ****   * @retval HAL status
 306:../STM32Cube_FW_F4_V1.4.0/Drivers/STM32F4xx_HAL_Driver/Src/stm32f4xx_hal_sram.c ****   */
 307:../STM32Cube_FW_F4_V1.4.0/Drivers/STM32F4xx_HAL_Driver/Src/stm32f4xx_hal_sram.c **** HAL_StatusTypeDef HAL_SRAM_Write_8b(SRAM_HandleTypeDef *hsram, uint32_t *pAddress, uint8_t *pSrcBuf
 308:../STM32Cube_FW_F4_V1.4.0/Drivers/STM32F4xx_HAL_Driver/Src/stm32f4xx_hal_sram.c **** {
 324              		.loc 1 308 0
 325              		.cfi_startproc
 326              		@ args = 0, pretend = 0, frame = 0
 327              		@ frame_needed = 0, uses_anonymous_args = 0
 328              	.LVL21:
 329 0000 30B5     		push	{r4, r5, lr}	@
 330              		.cfi_def_cfa_offset 12
 331              		.cfi_offset 4, -12
 332              		.cfi_offset 5, -8
 333              		.cfi_offset 14, -4
 309:../STM32Cube_FW_F4_V1.4.0/Drivers/STM32F4xx_HAL_Driver/Src/stm32f4xx_hal_sram.c ****   __IO uint8_t * pSramAddress = (uint8_t *)pAddress;
 310:../STM32Cube_FW_F4_V1.4.0/Drivers/STM32F4xx_HAL_Driver/Src/stm32f4xx_hal_sram.c ****   
 311:../STM32Cube_FW_F4_V1.4.0/Drivers/STM32F4xx_HAL_Driver/Src/stm32f4xx_hal_sram.c ****   /* Check the SRAM controller state */
 312:../STM32Cube_FW_F4_V1.4.0/Drivers/STM32F4xx_HAL_Driver/Src/stm32f4xx_hal_sram.c ****   if(hsram->State == HAL_SRAM_STATE_PROTECTED)
 334              		.loc 1 312 0
 335 0002 90F83D40 		ldrb	r4, [r0, #61]	@ zero_extendqisi2	@ hsram_9(D)->State, hsram_9(D)->State
 336 0006 042C     		cmp	r4, #4	@ hsram_9(D)->State,
 337 0008 1AD0     		beq	.L21	@,
 313:../STM32Cube_FW_F4_V1.4.0/Drivers/STM32F4xx_HAL_Driver/Src/stm32f4xx_hal_sram.c ****   {
 314:../STM32Cube_FW_F4_V1.4.0/Drivers/STM32F4xx_HAL_Driver/Src/stm32f4xx_hal_sram.c ****     return  HAL_ERROR; 
 315:../STM32Cube_FW_F4_V1.4.0/Drivers/STM32F4xx_HAL_Driver/Src/stm32f4xx_hal_sram.c ****   }
 316:../STM32Cube_FW_F4_V1.4.0/Drivers/STM32F4xx_HAL_Driver/Src/stm32f4xx_hal_sram.c ****   
 317:../STM32Cube_FW_F4_V1.4.0/Drivers/STM32F4xx_HAL_Driver/Src/stm32f4xx_hal_sram.c ****   /* Process Locked */
 318:../STM32Cube_FW_F4_V1.4.0/Drivers/STM32F4xx_HAL_Driver/Src/stm32f4xx_hal_sram.c ****   __HAL_LOCK(hsram);
 338              		.loc 1 318 0
 339 000a 90F83C40 		ldrb	r4, [r0, #60]	@ zero_extendqisi2	@ hsram_9(D)->Lock, hsram_9(D)->Lock
 340 000e 012C     		cmp	r4, #1	@ hsram_9(D)->Lock,
 341 0010 4FF00204 		mov	r4, #2	@ D.7616,
 342 0014 16D0     		beq	.L22	@,
ARM GAS  C:\cygwin\tmp\ccHJheQe.s 			page 13


 343              		.loc 1 318 0 is_stmt 0 discriminator 2
 344 0016 0125     		movs	r5, #1	@ tmp124,
 345 0018 80F83C50 		strb	r5, [r0, #60]	@ tmp124, hsram_9(D)->Lock
 319:../STM32Cube_FW_F4_V1.4.0/Drivers/STM32F4xx_HAL_Driver/Src/stm32f4xx_hal_sram.c ****   
 320:../STM32Cube_FW_F4_V1.4.0/Drivers/STM32F4xx_HAL_Driver/Src/stm32f4xx_hal_sram.c ****   /* Update the SRAM controller state */
 321:../STM32Cube_FW_F4_V1.4.0/Drivers/STM32F4xx_HAL_Driver/Src/stm32f4xx_hal_sram.c ****   hsram->State = HAL_SRAM_STATE_BUSY; 
 346              		.loc 1 321 0 is_stmt 1 discriminator 2
 347 001c 80F83D40 		strb	r4, [r0, #61]	@ D.7616, hsram_9(D)->State
 348 0020 1344     		add	r3, r3, r2	@ D.7620, pSrcBuffer
 349              	.LVL22:
 350              	.L19:
 322:../STM32Cube_FW_F4_V1.4.0/Drivers/STM32F4xx_HAL_Driver/Src/stm32f4xx_hal_sram.c **** 
 323:../STM32Cube_FW_F4_V1.4.0/Drivers/STM32F4xx_HAL_Driver/Src/stm32f4xx_hal_sram.c ****   /* Write data to memory */
 324:../STM32Cube_FW_F4_V1.4.0/Drivers/STM32F4xx_HAL_Driver/Src/stm32f4xx_hal_sram.c ****   for(; BufferSize != 0; BufferSize--)
 351              		.loc 1 324 0 discriminator 1
 352 0022 9A42     		cmp	r2, r3	@ pSrcBuffer, D.7620
 353 0024 04D0     		beq	.L23	@,
 325:../STM32Cube_FW_F4_V1.4.0/Drivers/STM32F4xx_HAL_Driver/Src/stm32f4xx_hal_sram.c ****   {
 326:../STM32Cube_FW_F4_V1.4.0/Drivers/STM32F4xx_HAL_Driver/Src/stm32f4xx_hal_sram.c ****     *(__IO uint8_t *)pSramAddress = *pSrcBuffer; 
 354              		.loc 1 326 0 discriminator 2
 355 0026 12F8014B 		ldrb	r4, [r2], #1	@ zero_extendqisi2	@ D.7619, MEM[base: pSrcBuffer_1, offset: 0B]
 356              	.LVL23:
 357 002a 01F8014B 		strb	r4, [r1], #1	@ D.7619, MEM[(volatile uint8_t *)pAddress_3]
 358              	.LVL24:
 359 002e F8E7     		b	.L19	@
 360              	.L23:
 327:../STM32Cube_FW_F4_V1.4.0/Drivers/STM32F4xx_HAL_Driver/Src/stm32f4xx_hal_sram.c ****     pSrcBuffer++;
 328:../STM32Cube_FW_F4_V1.4.0/Drivers/STM32F4xx_HAL_Driver/Src/stm32f4xx_hal_sram.c ****     pSramAddress++;    
 329:../STM32Cube_FW_F4_V1.4.0/Drivers/STM32F4xx_HAL_Driver/Src/stm32f4xx_hal_sram.c ****   }    
 330:../STM32Cube_FW_F4_V1.4.0/Drivers/STM32F4xx_HAL_Driver/Src/stm32f4xx_hal_sram.c **** 
 331:../STM32Cube_FW_F4_V1.4.0/Drivers/STM32F4xx_HAL_Driver/Src/stm32f4xx_hal_sram.c ****   /* Update the SRAM controller state */
 332:../STM32Cube_FW_F4_V1.4.0/Drivers/STM32F4xx_HAL_Driver/Src/stm32f4xx_hal_sram.c ****   hsram->State = HAL_SRAM_STATE_READY; 
 361              		.loc 1 332 0
 362 0030 0123     		movs	r3, #1	@ tmp129,
 363 0032 80F83D30 		strb	r3, [r0, #61]	@ tmp129, hsram_9(D)->State
 333:../STM32Cube_FW_F4_V1.4.0/Drivers/STM32F4xx_HAL_Driver/Src/stm32f4xx_hal_sram.c ****   
 334:../STM32Cube_FW_F4_V1.4.0/Drivers/STM32F4xx_HAL_Driver/Src/stm32f4xx_hal_sram.c ****   /* Process unlocked */
 335:../STM32Cube_FW_F4_V1.4.0/Drivers/STM32F4xx_HAL_Driver/Src/stm32f4xx_hal_sram.c ****   __HAL_UNLOCK(hsram);
 364              		.loc 1 335 0
 365 0036 0023     		movs	r3, #0	@ tmp131,
 366 0038 80F83C30 		strb	r3, [r0, #60]	@ tmp131, hsram_9(D)->Lock
 336:../STM32Cube_FW_F4_V1.4.0/Drivers/STM32F4xx_HAL_Driver/Src/stm32f4xx_hal_sram.c ****     
 337:../STM32Cube_FW_F4_V1.4.0/Drivers/STM32F4xx_HAL_Driver/Src/stm32f4xx_hal_sram.c ****   return HAL_OK;   
 367              		.loc 1 337 0
 368 003c 1846     		mov	r0, r3	@ D.7616, tmp131
 369              	.LVL25:
 370 003e 30BD     		pop	{r4, r5, pc}	@
 371              	.LVL26:
 372              	.L21:
 314:../STM32Cube_FW_F4_V1.4.0/Drivers/STM32F4xx_HAL_Driver/Src/stm32f4xx_hal_sram.c ****   }
 373              		.loc 1 314 0
 374 0040 0120     		movs	r0, #1	@ D.7616,
 375              	.LVL27:
 376 0042 30BD     		pop	{r4, r5, pc}	@
 377              	.LVL28:
 378              	.L22:
 318:../STM32Cube_FW_F4_V1.4.0/Drivers/STM32F4xx_HAL_Driver/Src/stm32f4xx_hal_sram.c ****   
ARM GAS  C:\cygwin\tmp\ccHJheQe.s 			page 14


 379              		.loc 1 318 0
 380 0044 2046     		mov	r0, r4	@ D.7616, D.7616
 381              	.LVL29:
 338:../STM32Cube_FW_F4_V1.4.0/Drivers/STM32F4xx_HAL_Driver/Src/stm32f4xx_hal_sram.c **** }
 382              		.loc 1 338 0
 383 0046 30BD     		pop	{r4, r5, pc}	@
 384              		.cfi_endproc
 385              	.LFE130:
 386              		.size	HAL_SRAM_Write_8b, .-HAL_SRAM_Write_8b
 387              		.section	.text.HAL_SRAM_Read_16b,"ax",%progbits
 388              		.align	1
 389              		.global	HAL_SRAM_Read_16b
 390              		.thumb
 391              		.thumb_func
 392              		.type	HAL_SRAM_Read_16b, %function
 393              	HAL_SRAM_Read_16b:
 394              	.LFB131:
 339:../STM32Cube_FW_F4_V1.4.0/Drivers/STM32F4xx_HAL_Driver/Src/stm32f4xx_hal_sram.c **** 
 340:../STM32Cube_FW_F4_V1.4.0/Drivers/STM32F4xx_HAL_Driver/Src/stm32f4xx_hal_sram.c **** /**
 341:../STM32Cube_FW_F4_V1.4.0/Drivers/STM32F4xx_HAL_Driver/Src/stm32f4xx_hal_sram.c ****   * @brief  Reads 16-bit buffer from SRAM memory. 
 342:../STM32Cube_FW_F4_V1.4.0/Drivers/STM32F4xx_HAL_Driver/Src/stm32f4xx_hal_sram.c ****   * @param  hsram: pointer to a SRAM_HandleTypeDef structure that contains
 343:../STM32Cube_FW_F4_V1.4.0/Drivers/STM32F4xx_HAL_Driver/Src/stm32f4xx_hal_sram.c ****   *                the configuration information for SRAM module.
 344:../STM32Cube_FW_F4_V1.4.0/Drivers/STM32F4xx_HAL_Driver/Src/stm32f4xx_hal_sram.c ****   * @param  pAddress: Pointer to read start address
 345:../STM32Cube_FW_F4_V1.4.0/Drivers/STM32F4xx_HAL_Driver/Src/stm32f4xx_hal_sram.c ****   * @param  pDstBuffer: Pointer to destination buffer  
 346:../STM32Cube_FW_F4_V1.4.0/Drivers/STM32F4xx_HAL_Driver/Src/stm32f4xx_hal_sram.c ****   * @param  BufferSize: Size of the buffer to read from memory
 347:../STM32Cube_FW_F4_V1.4.0/Drivers/STM32F4xx_HAL_Driver/Src/stm32f4xx_hal_sram.c ****   * @retval HAL status
 348:../STM32Cube_FW_F4_V1.4.0/Drivers/STM32F4xx_HAL_Driver/Src/stm32f4xx_hal_sram.c ****   */
 349:../STM32Cube_FW_F4_V1.4.0/Drivers/STM32F4xx_HAL_Driver/Src/stm32f4xx_hal_sram.c **** HAL_StatusTypeDef HAL_SRAM_Read_16b(SRAM_HandleTypeDef *hsram, uint32_t *pAddress, uint16_t *pDstBu
 350:../STM32Cube_FW_F4_V1.4.0/Drivers/STM32F4xx_HAL_Driver/Src/stm32f4xx_hal_sram.c **** {
 395              		.loc 1 350 0
 396              		.cfi_startproc
 397              		@ args = 0, pretend = 0, frame = 0
 398              		@ frame_needed = 0, uses_anonymous_args = 0
 399              	.LVL30:
 400 0000 30B5     		push	{r4, r5, lr}	@
 401              		.cfi_def_cfa_offset 12
 402              		.cfi_offset 4, -12
 403              		.cfi_offset 5, -8
 404              		.cfi_offset 14, -4
 351:../STM32Cube_FW_F4_V1.4.0/Drivers/STM32F4xx_HAL_Driver/Src/stm32f4xx_hal_sram.c ****   __IO uint16_t * pSramAddress = (uint16_t *)pAddress;
 352:../STM32Cube_FW_F4_V1.4.0/Drivers/STM32F4xx_HAL_Driver/Src/stm32f4xx_hal_sram.c ****   
 353:../STM32Cube_FW_F4_V1.4.0/Drivers/STM32F4xx_HAL_Driver/Src/stm32f4xx_hal_sram.c ****   /* Process Locked */
 354:../STM32Cube_FW_F4_V1.4.0/Drivers/STM32F4xx_HAL_Driver/Src/stm32f4xx_hal_sram.c ****   __HAL_LOCK(hsram);
 405              		.loc 1 354 0
 406 0002 90F83C40 		ldrb	r4, [r0, #60]	@ zero_extendqisi2	@ hsram_9(D)->Lock, hsram_9(D)->Lock
 407 0006 012C     		cmp	r4, #1	@ hsram_9(D)->Lock,
 408 0008 4FF00204 		mov	r4, #2	@ D.7645,
 409 000c 12D0     		beq	.L28	@,
 410              		.loc 1 354 0 is_stmt 0 discriminator 2
 411 000e 0125     		movs	r5, #1	@ tmp149,
 412 0010 80F83C50 		strb	r5, [r0, #60]	@ tmp149, hsram_9(D)->Lock
 355:../STM32Cube_FW_F4_V1.4.0/Drivers/STM32F4xx_HAL_Driver/Src/stm32f4xx_hal_sram.c ****   
 356:../STM32Cube_FW_F4_V1.4.0/Drivers/STM32F4xx_HAL_Driver/Src/stm32f4xx_hal_sram.c ****   /* Update the SRAM controller state */
 357:../STM32Cube_FW_F4_V1.4.0/Drivers/STM32F4xx_HAL_Driver/Src/stm32f4xx_hal_sram.c ****   hsram->State = HAL_SRAM_STATE_BUSY;  
 413              		.loc 1 357 0 is_stmt 1 discriminator 2
 414 0014 80F83D40 		strb	r4, [r0, #61]	@ D.7645, hsram_9(D)->State
 415              	.LVL31:
ARM GAS  C:\cygwin\tmp\ccHJheQe.s 			page 15


 416              	.L26:
 358:../STM32Cube_FW_F4_V1.4.0/Drivers/STM32F4xx_HAL_Driver/Src/stm32f4xx_hal_sram.c ****   
 359:../STM32Cube_FW_F4_V1.4.0/Drivers/STM32F4xx_HAL_Driver/Src/stm32f4xx_hal_sram.c ****   /* Read data from memory */
 360:../STM32Cube_FW_F4_V1.4.0/Drivers/STM32F4xx_HAL_Driver/Src/stm32f4xx_hal_sram.c ****   for(; BufferSize != 0; BufferSize--)
 417              		.loc 1 360 0 discriminator 1
 418 0018 2BB1     		cbz	r3, .L29	@ BufferSize,
 361:../STM32Cube_FW_F4_V1.4.0/Drivers/STM32F4xx_HAL_Driver/Src/stm32f4xx_hal_sram.c ****   {
 362:../STM32Cube_FW_F4_V1.4.0/Drivers/STM32F4xx_HAL_Driver/Src/stm32f4xx_hal_sram.c ****     *pDstBuffer = *(__IO uint16_t *)pSramAddress;
 419              		.loc 1 362 0 discriminator 2
 420 001a 31F8024B 		ldrh	r4, [r1], #2	@, MEM[(volatile uint16_t *)pAddress_3]
 421              	.LVL32:
 422 001e 22F8024B 		strh	r4, [r2], #2	@ movhi	@ MEM[(volatile uint16_t *)pAddress_3], MEM[base: pDstBuffer_1, offset: 
 423              	.LVL33:
 360:../STM32Cube_FW_F4_V1.4.0/Drivers/STM32F4xx_HAL_Driver/Src/stm32f4xx_hal_sram.c ****   {
 424              		.loc 1 360 0 discriminator 2
 425 0022 013B     		subs	r3, r3, #1	@ BufferSize, BufferSize,
 426              	.LVL34:
 427 0024 F8E7     		b	.L26	@
 428              	.L29:
 363:../STM32Cube_FW_F4_V1.4.0/Drivers/STM32F4xx_HAL_Driver/Src/stm32f4xx_hal_sram.c ****     pDstBuffer++;
 364:../STM32Cube_FW_F4_V1.4.0/Drivers/STM32F4xx_HAL_Driver/Src/stm32f4xx_hal_sram.c ****     pSramAddress++;
 365:../STM32Cube_FW_F4_V1.4.0/Drivers/STM32F4xx_HAL_Driver/Src/stm32f4xx_hal_sram.c ****   }
 366:../STM32Cube_FW_F4_V1.4.0/Drivers/STM32F4xx_HAL_Driver/Src/stm32f4xx_hal_sram.c ****   
 367:../STM32Cube_FW_F4_V1.4.0/Drivers/STM32F4xx_HAL_Driver/Src/stm32f4xx_hal_sram.c ****   /* Update the SRAM controller state */
 368:../STM32Cube_FW_F4_V1.4.0/Drivers/STM32F4xx_HAL_Driver/Src/stm32f4xx_hal_sram.c ****   hsram->State = HAL_SRAM_STATE_READY;    
 429              		.loc 1 368 0
 430 0026 0122     		movs	r2, #1	@ tmp155,
 431              	.LVL35:
 432 0028 80F83D20 		strb	r2, [r0, #61]	@ tmp155, hsram_9(D)->State
 369:../STM32Cube_FW_F4_V1.4.0/Drivers/STM32F4xx_HAL_Driver/Src/stm32f4xx_hal_sram.c **** 
 370:../STM32Cube_FW_F4_V1.4.0/Drivers/STM32F4xx_HAL_Driver/Src/stm32f4xx_hal_sram.c ****   /* Process unlocked */
 371:../STM32Cube_FW_F4_V1.4.0/Drivers/STM32F4xx_HAL_Driver/Src/stm32f4xx_hal_sram.c ****   __HAL_UNLOCK(hsram); 
 433              		.loc 1 371 0
 434 002c 80F83C30 		strb	r3, [r0, #60]	@ BufferSize, hsram_9(D)->Lock
 372:../STM32Cube_FW_F4_V1.4.0/Drivers/STM32F4xx_HAL_Driver/Src/stm32f4xx_hal_sram.c ****     
 373:../STM32Cube_FW_F4_V1.4.0/Drivers/STM32F4xx_HAL_Driver/Src/stm32f4xx_hal_sram.c ****   return HAL_OK;  
 435              		.loc 1 373 0
 436 0030 1846     		mov	r0, r3	@ D.7645, BufferSize
 437              	.LVL36:
 438 0032 30BD     		pop	{r4, r5, pc}	@
 439              	.LVL37:
 440              	.L28:
 354:../STM32Cube_FW_F4_V1.4.0/Drivers/STM32F4xx_HAL_Driver/Src/stm32f4xx_hal_sram.c ****   
 441              		.loc 1 354 0
 442 0034 2046     		mov	r0, r4	@ D.7645, D.7645
 443              	.LVL38:
 374:../STM32Cube_FW_F4_V1.4.0/Drivers/STM32F4xx_HAL_Driver/Src/stm32f4xx_hal_sram.c **** }
 444              		.loc 1 374 0
 445 0036 30BD     		pop	{r4, r5, pc}	@
 446              		.cfi_endproc
 447              	.LFE131:
 448              		.size	HAL_SRAM_Read_16b, .-HAL_SRAM_Read_16b
 449              		.section	.text.HAL_SRAM_Write_16b,"ax",%progbits
 450              		.align	1
 451              		.global	HAL_SRAM_Write_16b
 452              		.thumb
 453              		.thumb_func
ARM GAS  C:\cygwin\tmp\ccHJheQe.s 			page 16


 454              		.type	HAL_SRAM_Write_16b, %function
 455              	HAL_SRAM_Write_16b:
 456              	.LFB132:
 375:../STM32Cube_FW_F4_V1.4.0/Drivers/STM32F4xx_HAL_Driver/Src/stm32f4xx_hal_sram.c **** 
 376:../STM32Cube_FW_F4_V1.4.0/Drivers/STM32F4xx_HAL_Driver/Src/stm32f4xx_hal_sram.c **** /**
 377:../STM32Cube_FW_F4_V1.4.0/Drivers/STM32F4xx_HAL_Driver/Src/stm32f4xx_hal_sram.c ****   * @brief  Writes 16-bit buffer to SRAM memory. 
 378:../STM32Cube_FW_F4_V1.4.0/Drivers/STM32F4xx_HAL_Driver/Src/stm32f4xx_hal_sram.c ****   * @param  hsram: pointer to a SRAM_HandleTypeDef structure that contains
 379:../STM32Cube_FW_F4_V1.4.0/Drivers/STM32F4xx_HAL_Driver/Src/stm32f4xx_hal_sram.c ****   *                the configuration information for SRAM module.
 380:../STM32Cube_FW_F4_V1.4.0/Drivers/STM32F4xx_HAL_Driver/Src/stm32f4xx_hal_sram.c ****   * @param  pAddress: Pointer to write start address
 381:../STM32Cube_FW_F4_V1.4.0/Drivers/STM32F4xx_HAL_Driver/Src/stm32f4xx_hal_sram.c ****   * @param  pSrcBuffer: Pointer to source buffer to write  
 382:../STM32Cube_FW_F4_V1.4.0/Drivers/STM32F4xx_HAL_Driver/Src/stm32f4xx_hal_sram.c ****   * @param  BufferSize: Size of the buffer to write to memory
 383:../STM32Cube_FW_F4_V1.4.0/Drivers/STM32F4xx_HAL_Driver/Src/stm32f4xx_hal_sram.c ****   * @retval HAL status
 384:../STM32Cube_FW_F4_V1.4.0/Drivers/STM32F4xx_HAL_Driver/Src/stm32f4xx_hal_sram.c ****   */
 385:../STM32Cube_FW_F4_V1.4.0/Drivers/STM32F4xx_HAL_Driver/Src/stm32f4xx_hal_sram.c **** HAL_StatusTypeDef HAL_SRAM_Write_16b(SRAM_HandleTypeDef *hsram, uint32_t *pAddress, uint16_t *pSrcB
 386:../STM32Cube_FW_F4_V1.4.0/Drivers/STM32F4xx_HAL_Driver/Src/stm32f4xx_hal_sram.c **** {
 457              		.loc 1 386 0
 458              		.cfi_startproc
 459              		@ args = 0, pretend = 0, frame = 0
 460              		@ frame_needed = 0, uses_anonymous_args = 0
 461              	.LVL39:
 462 0000 30B5     		push	{r4, r5, lr}	@
 463              		.cfi_def_cfa_offset 12
 464              		.cfi_offset 4, -12
 465              		.cfi_offset 5, -8
 466              		.cfi_offset 14, -4
 387:../STM32Cube_FW_F4_V1.4.0/Drivers/STM32F4xx_HAL_Driver/Src/stm32f4xx_hal_sram.c ****   __IO uint16_t * pSramAddress = (uint16_t *)pAddress; 
 388:../STM32Cube_FW_F4_V1.4.0/Drivers/STM32F4xx_HAL_Driver/Src/stm32f4xx_hal_sram.c ****   
 389:../STM32Cube_FW_F4_V1.4.0/Drivers/STM32F4xx_HAL_Driver/Src/stm32f4xx_hal_sram.c ****   /* Check the SRAM controller state */
 390:../STM32Cube_FW_F4_V1.4.0/Drivers/STM32F4xx_HAL_Driver/Src/stm32f4xx_hal_sram.c ****   if(hsram->State == HAL_SRAM_STATE_PROTECTED)
 467              		.loc 1 390 0
 468 0002 90F83D40 		ldrb	r4, [r0, #61]	@ zero_extendqisi2	@ hsram_9(D)->State, hsram_9(D)->State
 469 0006 042C     		cmp	r4, #4	@ hsram_9(D)->State,
 470 0008 18D0     		beq	.L34	@,
 391:../STM32Cube_FW_F4_V1.4.0/Drivers/STM32F4xx_HAL_Driver/Src/stm32f4xx_hal_sram.c ****   {
 392:../STM32Cube_FW_F4_V1.4.0/Drivers/STM32F4xx_HAL_Driver/Src/stm32f4xx_hal_sram.c ****     return  HAL_ERROR; 
 393:../STM32Cube_FW_F4_V1.4.0/Drivers/STM32F4xx_HAL_Driver/Src/stm32f4xx_hal_sram.c ****   }
 394:../STM32Cube_FW_F4_V1.4.0/Drivers/STM32F4xx_HAL_Driver/Src/stm32f4xx_hal_sram.c ****   
 395:../STM32Cube_FW_F4_V1.4.0/Drivers/STM32F4xx_HAL_Driver/Src/stm32f4xx_hal_sram.c ****   /* Process Locked */
 396:../STM32Cube_FW_F4_V1.4.0/Drivers/STM32F4xx_HAL_Driver/Src/stm32f4xx_hal_sram.c ****   __HAL_LOCK(hsram);
 471              		.loc 1 396 0
 472 000a 90F83C40 		ldrb	r4, [r0, #60]	@ zero_extendqisi2	@ hsram_9(D)->Lock, hsram_9(D)->Lock
 473 000e 012C     		cmp	r4, #1	@ hsram_9(D)->Lock,
 474 0010 4FF00204 		mov	r4, #2	@ D.7672,
 475 0014 14D0     		beq	.L35	@,
 476              		.loc 1 396 0 is_stmt 0 discriminator 2
 477 0016 0125     		movs	r5, #1	@ tmp123,
 478 0018 80F83C50 		strb	r5, [r0, #60]	@ tmp123, hsram_9(D)->Lock
 397:../STM32Cube_FW_F4_V1.4.0/Drivers/STM32F4xx_HAL_Driver/Src/stm32f4xx_hal_sram.c ****   
 398:../STM32Cube_FW_F4_V1.4.0/Drivers/STM32F4xx_HAL_Driver/Src/stm32f4xx_hal_sram.c ****   /* Update the SRAM controller state */
 399:../STM32Cube_FW_F4_V1.4.0/Drivers/STM32F4xx_HAL_Driver/Src/stm32f4xx_hal_sram.c ****   hsram->State = HAL_SRAM_STATE_BUSY; 
 479              		.loc 1 399 0 is_stmt 1 discriminator 2
 480 001c 80F83D40 		strb	r4, [r0, #61]	@ D.7672, hsram_9(D)->State
 481              	.LVL40:
 482              	.L32:
 400:../STM32Cube_FW_F4_V1.4.0/Drivers/STM32F4xx_HAL_Driver/Src/stm32f4xx_hal_sram.c **** 
 401:../STM32Cube_FW_F4_V1.4.0/Drivers/STM32F4xx_HAL_Driver/Src/stm32f4xx_hal_sram.c ****   /* Write data to memory */
 402:../STM32Cube_FW_F4_V1.4.0/Drivers/STM32F4xx_HAL_Driver/Src/stm32f4xx_hal_sram.c ****   for(; BufferSize != 0; BufferSize--)
ARM GAS  C:\cygwin\tmp\ccHJheQe.s 			page 17


 483              		.loc 1 402 0 discriminator 1
 484 0020 2BB1     		cbz	r3, .L36	@ BufferSize,
 403:../STM32Cube_FW_F4_V1.4.0/Drivers/STM32F4xx_HAL_Driver/Src/stm32f4xx_hal_sram.c ****   {
 404:../STM32Cube_FW_F4_V1.4.0/Drivers/STM32F4xx_HAL_Driver/Src/stm32f4xx_hal_sram.c ****     *(__IO uint16_t *)pSramAddress = *pSrcBuffer; 
 485              		.loc 1 404 0 discriminator 2
 486 0022 32F8024B 		ldrh	r4, [r2], #2	@ D.7675, MEM[base: pSrcBuffer_1, offset: 0B]
 487              	.LVL41:
 488 0026 21F8024B 		strh	r4, [r1], #2	@ movhi	@ D.7675, MEM[(volatile uint16_t *)pAddress_3]
 489              	.LVL42:
 402:../STM32Cube_FW_F4_V1.4.0/Drivers/STM32F4xx_HAL_Driver/Src/stm32f4xx_hal_sram.c ****   {
 490              		.loc 1 402 0 discriminator 2
 491 002a 013B     		subs	r3, r3, #1	@ BufferSize, BufferSize,
 492              	.LVL43:
 493 002c F8E7     		b	.L32	@
 494              	.L36:
 405:../STM32Cube_FW_F4_V1.4.0/Drivers/STM32F4xx_HAL_Driver/Src/stm32f4xx_hal_sram.c ****     pSrcBuffer++;
 406:../STM32Cube_FW_F4_V1.4.0/Drivers/STM32F4xx_HAL_Driver/Src/stm32f4xx_hal_sram.c ****     pSramAddress++;    
 407:../STM32Cube_FW_F4_V1.4.0/Drivers/STM32F4xx_HAL_Driver/Src/stm32f4xx_hal_sram.c ****   }    
 408:../STM32Cube_FW_F4_V1.4.0/Drivers/STM32F4xx_HAL_Driver/Src/stm32f4xx_hal_sram.c **** 
 409:../STM32Cube_FW_F4_V1.4.0/Drivers/STM32F4xx_HAL_Driver/Src/stm32f4xx_hal_sram.c ****   /* Update the SRAM controller state */
 410:../STM32Cube_FW_F4_V1.4.0/Drivers/STM32F4xx_HAL_Driver/Src/stm32f4xx_hal_sram.c ****   hsram->State = HAL_SRAM_STATE_READY; 
 495              		.loc 1 410 0
 496 002e 0122     		movs	r2, #1	@ tmp128,
 497              	.LVL44:
 498 0030 80F83D20 		strb	r2, [r0, #61]	@ tmp128, hsram_9(D)->State
 411:../STM32Cube_FW_F4_V1.4.0/Drivers/STM32F4xx_HAL_Driver/Src/stm32f4xx_hal_sram.c ****   
 412:../STM32Cube_FW_F4_V1.4.0/Drivers/STM32F4xx_HAL_Driver/Src/stm32f4xx_hal_sram.c ****   /* Process unlocked */
 413:../STM32Cube_FW_F4_V1.4.0/Drivers/STM32F4xx_HAL_Driver/Src/stm32f4xx_hal_sram.c ****   __HAL_UNLOCK(hsram);
 499              		.loc 1 413 0
 500 0034 80F83C30 		strb	r3, [r0, #60]	@ BufferSize, hsram_9(D)->Lock
 414:../STM32Cube_FW_F4_V1.4.0/Drivers/STM32F4xx_HAL_Driver/Src/stm32f4xx_hal_sram.c ****     
 415:../STM32Cube_FW_F4_V1.4.0/Drivers/STM32F4xx_HAL_Driver/Src/stm32f4xx_hal_sram.c ****   return HAL_OK;  
 501              		.loc 1 415 0
 502 0038 1846     		mov	r0, r3	@ D.7672, BufferSize
 503              	.LVL45:
 504 003a 30BD     		pop	{r4, r5, pc}	@
 505              	.LVL46:
 506              	.L34:
 392:../STM32Cube_FW_F4_V1.4.0/Drivers/STM32F4xx_HAL_Driver/Src/stm32f4xx_hal_sram.c ****   }
 507              		.loc 1 392 0
 508 003c 0120     		movs	r0, #1	@ D.7672,
 509              	.LVL47:
 510 003e 30BD     		pop	{r4, r5, pc}	@
 511              	.LVL48:
 512              	.L35:
 396:../STM32Cube_FW_F4_V1.4.0/Drivers/STM32F4xx_HAL_Driver/Src/stm32f4xx_hal_sram.c ****   
 513              		.loc 1 396 0
 514 0040 2046     		mov	r0, r4	@ D.7672, D.7672
 515              	.LVL49:
 416:../STM32Cube_FW_F4_V1.4.0/Drivers/STM32F4xx_HAL_Driver/Src/stm32f4xx_hal_sram.c **** }
 516              		.loc 1 416 0
 517 0042 30BD     		pop	{r4, r5, pc}	@
 518              		.cfi_endproc
 519              	.LFE132:
 520              		.size	HAL_SRAM_Write_16b, .-HAL_SRAM_Write_16b
 521              		.section	.text.HAL_SRAM_Read_32b,"ax",%progbits
 522              		.align	1
ARM GAS  C:\cygwin\tmp\ccHJheQe.s 			page 18


 523              		.global	HAL_SRAM_Read_32b
 524              		.thumb
 525              		.thumb_func
 526              		.type	HAL_SRAM_Read_32b, %function
 527              	HAL_SRAM_Read_32b:
 528              	.LFB133:
 417:../STM32Cube_FW_F4_V1.4.0/Drivers/STM32F4xx_HAL_Driver/Src/stm32f4xx_hal_sram.c **** 
 418:../STM32Cube_FW_F4_V1.4.0/Drivers/STM32F4xx_HAL_Driver/Src/stm32f4xx_hal_sram.c **** /**
 419:../STM32Cube_FW_F4_V1.4.0/Drivers/STM32F4xx_HAL_Driver/Src/stm32f4xx_hal_sram.c ****   * @brief  Reads 32-bit buffer from SRAM memory. 
 420:../STM32Cube_FW_F4_V1.4.0/Drivers/STM32F4xx_HAL_Driver/Src/stm32f4xx_hal_sram.c ****   * @param  hsram: pointer to a SRAM_HandleTypeDef structure that contains
 421:../STM32Cube_FW_F4_V1.4.0/Drivers/STM32F4xx_HAL_Driver/Src/stm32f4xx_hal_sram.c ****   *                the configuration information for SRAM module.
 422:../STM32Cube_FW_F4_V1.4.0/Drivers/STM32F4xx_HAL_Driver/Src/stm32f4xx_hal_sram.c ****   * @param  pAddress: Pointer to read start address
 423:../STM32Cube_FW_F4_V1.4.0/Drivers/STM32F4xx_HAL_Driver/Src/stm32f4xx_hal_sram.c ****   * @param  pDstBuffer: Pointer to destination buffer  
 424:../STM32Cube_FW_F4_V1.4.0/Drivers/STM32F4xx_HAL_Driver/Src/stm32f4xx_hal_sram.c ****   * @param  BufferSize: Size of the buffer to read from memory
 425:../STM32Cube_FW_F4_V1.4.0/Drivers/STM32F4xx_HAL_Driver/Src/stm32f4xx_hal_sram.c ****   * @retval HAL status
 426:../STM32Cube_FW_F4_V1.4.0/Drivers/STM32F4xx_HAL_Driver/Src/stm32f4xx_hal_sram.c ****   */
 427:../STM32Cube_FW_F4_V1.4.0/Drivers/STM32F4xx_HAL_Driver/Src/stm32f4xx_hal_sram.c **** HAL_StatusTypeDef HAL_SRAM_Read_32b(SRAM_HandleTypeDef *hsram, uint32_t *pAddress, uint32_t *pDstBu
 428:../STM32Cube_FW_F4_V1.4.0/Drivers/STM32F4xx_HAL_Driver/Src/stm32f4xx_hal_sram.c **** {
 529              		.loc 1 428 0
 530              		.cfi_startproc
 531              		@ args = 0, pretend = 0, frame = 0
 532              		@ frame_needed = 0, uses_anonymous_args = 0
 533              	.LVL50:
 534 0000 30B5     		push	{r4, r5, lr}	@
 535              		.cfi_def_cfa_offset 12
 536              		.cfi_offset 4, -12
 537              		.cfi_offset 5, -8
 538              		.cfi_offset 14, -4
 429:../STM32Cube_FW_F4_V1.4.0/Drivers/STM32F4xx_HAL_Driver/Src/stm32f4xx_hal_sram.c ****   /* Process Locked */
 430:../STM32Cube_FW_F4_V1.4.0/Drivers/STM32F4xx_HAL_Driver/Src/stm32f4xx_hal_sram.c ****   __HAL_LOCK(hsram);
 539              		.loc 1 430 0
 540 0002 90F83C40 		ldrb	r4, [r0, #60]	@ zero_extendqisi2	@ hsram_8(D)->Lock, hsram_8(D)->Lock
 541 0006 012C     		cmp	r4, #1	@ hsram_8(D)->Lock,
 542 0008 4FF00204 		mov	r4, #2	@ D.7700,
 543 000c 12D0     		beq	.L41	@,
 544              		.loc 1 430 0 is_stmt 0 discriminator 2
 545 000e 0125     		movs	r5, #1	@ tmp149,
 546 0010 80F83C50 		strb	r5, [r0, #60]	@ tmp149, hsram_8(D)->Lock
 431:../STM32Cube_FW_F4_V1.4.0/Drivers/STM32F4xx_HAL_Driver/Src/stm32f4xx_hal_sram.c ****   
 432:../STM32Cube_FW_F4_V1.4.0/Drivers/STM32F4xx_HAL_Driver/Src/stm32f4xx_hal_sram.c ****   /* Update the SRAM controller state */
 433:../STM32Cube_FW_F4_V1.4.0/Drivers/STM32F4xx_HAL_Driver/Src/stm32f4xx_hal_sram.c ****   hsram->State = HAL_SRAM_STATE_BUSY;  
 547              		.loc 1 433 0 is_stmt 1 discriminator 2
 548 0014 80F83D40 		strb	r4, [r0, #61]	@ D.7700, hsram_8(D)->State
 549              	.L39:
 434:../STM32Cube_FW_F4_V1.4.0/Drivers/STM32F4xx_HAL_Driver/Src/stm32f4xx_hal_sram.c ****   
 435:../STM32Cube_FW_F4_V1.4.0/Drivers/STM32F4xx_HAL_Driver/Src/stm32f4xx_hal_sram.c ****   /* Read data from memory */
 436:../STM32Cube_FW_F4_V1.4.0/Drivers/STM32F4xx_HAL_Driver/Src/stm32f4xx_hal_sram.c ****   for(; BufferSize != 0; BufferSize--)
 550              		.loc 1 436 0 discriminator 1
 551 0018 2BB1     		cbz	r3, .L42	@ BufferSize,
 437:../STM32Cube_FW_F4_V1.4.0/Drivers/STM32F4xx_HAL_Driver/Src/stm32f4xx_hal_sram.c ****   {
 438:../STM32Cube_FW_F4_V1.4.0/Drivers/STM32F4xx_HAL_Driver/Src/stm32f4xx_hal_sram.c ****     *pDstBuffer = *(__IO uint32_t *)pAddress;
 552              		.loc 1 438 0 discriminator 2
 553 001a 51F8044B 		ldr	r4, [r1], #4	@ D.7702, MEM[(volatile uint32_t *)pAddress_1]
 554              	.LVL51:
 555 001e 42F8044B 		str	r4, [r2], #4	@ D.7702, MEM[base: pDstBuffer_2, offset: 0B]
 556              	.LVL52:
 436:../STM32Cube_FW_F4_V1.4.0/Drivers/STM32F4xx_HAL_Driver/Src/stm32f4xx_hal_sram.c ****   {
ARM GAS  C:\cygwin\tmp\ccHJheQe.s 			page 19


 557              		.loc 1 436 0 discriminator 2
 558 0022 013B     		subs	r3, r3, #1	@ BufferSize, BufferSize,
 559              	.LVL53:
 560 0024 F8E7     		b	.L39	@
 561              	.L42:
 439:../STM32Cube_FW_F4_V1.4.0/Drivers/STM32F4xx_HAL_Driver/Src/stm32f4xx_hal_sram.c ****     pDstBuffer++;
 440:../STM32Cube_FW_F4_V1.4.0/Drivers/STM32F4xx_HAL_Driver/Src/stm32f4xx_hal_sram.c ****     pAddress++;
 441:../STM32Cube_FW_F4_V1.4.0/Drivers/STM32F4xx_HAL_Driver/Src/stm32f4xx_hal_sram.c ****   }
 442:../STM32Cube_FW_F4_V1.4.0/Drivers/STM32F4xx_HAL_Driver/Src/stm32f4xx_hal_sram.c ****   
 443:../STM32Cube_FW_F4_V1.4.0/Drivers/STM32F4xx_HAL_Driver/Src/stm32f4xx_hal_sram.c ****   /* Update the SRAM controller state */
 444:../STM32Cube_FW_F4_V1.4.0/Drivers/STM32F4xx_HAL_Driver/Src/stm32f4xx_hal_sram.c ****   hsram->State = HAL_SRAM_STATE_READY;    
 562              		.loc 1 444 0
 563 0026 0122     		movs	r2, #1	@ tmp153,
 564              	.LVL54:
 565 0028 80F83D20 		strb	r2, [r0, #61]	@ tmp153, hsram_8(D)->State
 445:../STM32Cube_FW_F4_V1.4.0/Drivers/STM32F4xx_HAL_Driver/Src/stm32f4xx_hal_sram.c **** 
 446:../STM32Cube_FW_F4_V1.4.0/Drivers/STM32F4xx_HAL_Driver/Src/stm32f4xx_hal_sram.c ****   /* Process unlocked */
 447:../STM32Cube_FW_F4_V1.4.0/Drivers/STM32F4xx_HAL_Driver/Src/stm32f4xx_hal_sram.c ****   __HAL_UNLOCK(hsram); 
 566              		.loc 1 447 0
 567 002c 80F83C30 		strb	r3, [r0, #60]	@ BufferSize, hsram_8(D)->Lock
 448:../STM32Cube_FW_F4_V1.4.0/Drivers/STM32F4xx_HAL_Driver/Src/stm32f4xx_hal_sram.c ****     
 449:../STM32Cube_FW_F4_V1.4.0/Drivers/STM32F4xx_HAL_Driver/Src/stm32f4xx_hal_sram.c ****   return HAL_OK;  
 568              		.loc 1 449 0
 569 0030 1846     		mov	r0, r3	@ D.7700, BufferSize
 570              	.LVL55:
 571 0032 30BD     		pop	{r4, r5, pc}	@
 572              	.LVL56:
 573              	.L41:
 430:../STM32Cube_FW_F4_V1.4.0/Drivers/STM32F4xx_HAL_Driver/Src/stm32f4xx_hal_sram.c ****   
 574              		.loc 1 430 0
 575 0034 2046     		mov	r0, r4	@ D.7700, D.7700
 576              	.LVL57:
 450:../STM32Cube_FW_F4_V1.4.0/Drivers/STM32F4xx_HAL_Driver/Src/stm32f4xx_hal_sram.c **** }
 577              		.loc 1 450 0
 578 0036 30BD     		pop	{r4, r5, pc}	@
 579              		.cfi_endproc
 580              	.LFE133:
 581              		.size	HAL_SRAM_Read_32b, .-HAL_SRAM_Read_32b
 582              		.section	.text.HAL_SRAM_Write_32b,"ax",%progbits
 583              		.align	1
 584              		.global	HAL_SRAM_Write_32b
 585              		.thumb
 586              		.thumb_func
 587              		.type	HAL_SRAM_Write_32b, %function
 588              	HAL_SRAM_Write_32b:
 589              	.LFB134:
 451:../STM32Cube_FW_F4_V1.4.0/Drivers/STM32F4xx_HAL_Driver/Src/stm32f4xx_hal_sram.c **** 
 452:../STM32Cube_FW_F4_V1.4.0/Drivers/STM32F4xx_HAL_Driver/Src/stm32f4xx_hal_sram.c **** /**
 453:../STM32Cube_FW_F4_V1.4.0/Drivers/STM32F4xx_HAL_Driver/Src/stm32f4xx_hal_sram.c ****   * @brief  Writes 32-bit buffer to SRAM memory. 
 454:../STM32Cube_FW_F4_V1.4.0/Drivers/STM32F4xx_HAL_Driver/Src/stm32f4xx_hal_sram.c ****   * @param  hsram: pointer to a SRAM_HandleTypeDef structure that contains
 455:../STM32Cube_FW_F4_V1.4.0/Drivers/STM32F4xx_HAL_Driver/Src/stm32f4xx_hal_sram.c ****   *                the configuration information for SRAM module.
 456:../STM32Cube_FW_F4_V1.4.0/Drivers/STM32F4xx_HAL_Driver/Src/stm32f4xx_hal_sram.c ****   * @param  pAddress: Pointer to write start address
 457:../STM32Cube_FW_F4_V1.4.0/Drivers/STM32F4xx_HAL_Driver/Src/stm32f4xx_hal_sram.c ****   * @param  pSrcBuffer: Pointer to source buffer to write  
 458:../STM32Cube_FW_F4_V1.4.0/Drivers/STM32F4xx_HAL_Driver/Src/stm32f4xx_hal_sram.c ****   * @param  BufferSize: Size of the buffer to write to memory
 459:../STM32Cube_FW_F4_V1.4.0/Drivers/STM32F4xx_HAL_Driver/Src/stm32f4xx_hal_sram.c ****   * @retval HAL status
 460:../STM32Cube_FW_F4_V1.4.0/Drivers/STM32F4xx_HAL_Driver/Src/stm32f4xx_hal_sram.c ****   */
 461:../STM32Cube_FW_F4_V1.4.0/Drivers/STM32F4xx_HAL_Driver/Src/stm32f4xx_hal_sram.c **** HAL_StatusTypeDef HAL_SRAM_Write_32b(SRAM_HandleTypeDef *hsram, uint32_t *pAddress, uint32_t *pSrcB
ARM GAS  C:\cygwin\tmp\ccHJheQe.s 			page 20


 462:../STM32Cube_FW_F4_V1.4.0/Drivers/STM32F4xx_HAL_Driver/Src/stm32f4xx_hal_sram.c **** {
 590              		.loc 1 462 0
 591              		.cfi_startproc
 592              		@ args = 0, pretend = 0, frame = 0
 593              		@ frame_needed = 0, uses_anonymous_args = 0
 594              	.LVL58:
 595 0000 30B5     		push	{r4, r5, lr}	@
 596              		.cfi_def_cfa_offset 12
 597              		.cfi_offset 4, -12
 598              		.cfi_offset 5, -8
 599              		.cfi_offset 14, -4
 463:../STM32Cube_FW_F4_V1.4.0/Drivers/STM32F4xx_HAL_Driver/Src/stm32f4xx_hal_sram.c ****   /* Check the SRAM controller state */
 464:../STM32Cube_FW_F4_V1.4.0/Drivers/STM32F4xx_HAL_Driver/Src/stm32f4xx_hal_sram.c ****   if(hsram->State == HAL_SRAM_STATE_PROTECTED)
 600              		.loc 1 464 0
 601 0002 90F83D40 		ldrb	r4, [r0, #61]	@ zero_extendqisi2	@ hsram_8(D)->State, hsram_8(D)->State
 602 0006 042C     		cmp	r4, #4	@ hsram_8(D)->State,
 603 0008 18D0     		beq	.L47	@,
 465:../STM32Cube_FW_F4_V1.4.0/Drivers/STM32F4xx_HAL_Driver/Src/stm32f4xx_hal_sram.c ****   {
 466:../STM32Cube_FW_F4_V1.4.0/Drivers/STM32F4xx_HAL_Driver/Src/stm32f4xx_hal_sram.c ****     return  HAL_ERROR; 
 467:../STM32Cube_FW_F4_V1.4.0/Drivers/STM32F4xx_HAL_Driver/Src/stm32f4xx_hal_sram.c ****   }
 468:../STM32Cube_FW_F4_V1.4.0/Drivers/STM32F4xx_HAL_Driver/Src/stm32f4xx_hal_sram.c ****   
 469:../STM32Cube_FW_F4_V1.4.0/Drivers/STM32F4xx_HAL_Driver/Src/stm32f4xx_hal_sram.c ****   /* Process Locked */
 470:../STM32Cube_FW_F4_V1.4.0/Drivers/STM32F4xx_HAL_Driver/Src/stm32f4xx_hal_sram.c ****   __HAL_LOCK(hsram);
 604              		.loc 1 470 0
 605 000a 90F83C40 		ldrb	r4, [r0, #60]	@ zero_extendqisi2	@ hsram_8(D)->Lock, hsram_8(D)->Lock
 606 000e 012C     		cmp	r4, #1	@ hsram_8(D)->Lock,
 607 0010 4FF00204 		mov	r4, #2	@ D.7727,
 608 0014 14D0     		beq	.L48	@,
 609              		.loc 1 470 0 is_stmt 0 discriminator 2
 610 0016 0125     		movs	r5, #1	@ tmp123,
 611 0018 80F83C50 		strb	r5, [r0, #60]	@ tmp123, hsram_8(D)->Lock
 471:../STM32Cube_FW_F4_V1.4.0/Drivers/STM32F4xx_HAL_Driver/Src/stm32f4xx_hal_sram.c ****   
 472:../STM32Cube_FW_F4_V1.4.0/Drivers/STM32F4xx_HAL_Driver/Src/stm32f4xx_hal_sram.c ****   /* Update the SRAM controller state */
 473:../STM32Cube_FW_F4_V1.4.0/Drivers/STM32F4xx_HAL_Driver/Src/stm32f4xx_hal_sram.c ****   hsram->State = HAL_SRAM_STATE_BUSY; 
 612              		.loc 1 473 0 is_stmt 1 discriminator 2
 613 001c 80F83D40 		strb	r4, [r0, #61]	@ D.7727, hsram_8(D)->State
 614              	.L45:
 474:../STM32Cube_FW_F4_V1.4.0/Drivers/STM32F4xx_HAL_Driver/Src/stm32f4xx_hal_sram.c **** 
 475:../STM32Cube_FW_F4_V1.4.0/Drivers/STM32F4xx_HAL_Driver/Src/stm32f4xx_hal_sram.c ****   /* Write data to memory */
 476:../STM32Cube_FW_F4_V1.4.0/Drivers/STM32F4xx_HAL_Driver/Src/stm32f4xx_hal_sram.c ****   for(; BufferSize != 0; BufferSize--)
 615              		.loc 1 476 0 discriminator 1
 616 0020 2BB1     		cbz	r3, .L49	@ BufferSize,
 477:../STM32Cube_FW_F4_V1.4.0/Drivers/STM32F4xx_HAL_Driver/Src/stm32f4xx_hal_sram.c ****   {
 478:../STM32Cube_FW_F4_V1.4.0/Drivers/STM32F4xx_HAL_Driver/Src/stm32f4xx_hal_sram.c ****     *(__IO uint32_t *)pAddress = *pSrcBuffer; 
 617              		.loc 1 478 0 discriminator 2
 618 0022 52F8044B 		ldr	r4, [r2], #4	@ D.7730, MEM[base: pSrcBuffer_2, offset: 0B]
 619              	.LVL59:
 620 0026 41F8044B 		str	r4, [r1], #4	@ D.7730, MEM[(volatile uint32_t *)pAddress_1]
 621              	.LVL60:
 476:../STM32Cube_FW_F4_V1.4.0/Drivers/STM32F4xx_HAL_Driver/Src/stm32f4xx_hal_sram.c ****   {
 622              		.loc 1 476 0 discriminator 2
 623 002a 013B     		subs	r3, r3, #1	@ BufferSize, BufferSize,
 624              	.LVL61:
 625 002c F8E7     		b	.L45	@
 626              	.L49:
 479:../STM32Cube_FW_F4_V1.4.0/Drivers/STM32F4xx_HAL_Driver/Src/stm32f4xx_hal_sram.c ****     pSrcBuffer++;
 480:../STM32Cube_FW_F4_V1.4.0/Drivers/STM32F4xx_HAL_Driver/Src/stm32f4xx_hal_sram.c ****     pAddress++;    
ARM GAS  C:\cygwin\tmp\ccHJheQe.s 			page 21


 481:../STM32Cube_FW_F4_V1.4.0/Drivers/STM32F4xx_HAL_Driver/Src/stm32f4xx_hal_sram.c ****   }    
 482:../STM32Cube_FW_F4_V1.4.0/Drivers/STM32F4xx_HAL_Driver/Src/stm32f4xx_hal_sram.c **** 
 483:../STM32Cube_FW_F4_V1.4.0/Drivers/STM32F4xx_HAL_Driver/Src/stm32f4xx_hal_sram.c ****   /* Update the SRAM controller state */
 484:../STM32Cube_FW_F4_V1.4.0/Drivers/STM32F4xx_HAL_Driver/Src/stm32f4xx_hal_sram.c ****   hsram->State = HAL_SRAM_STATE_READY; 
 627              		.loc 1 484 0
 628 002e 0122     		movs	r2, #1	@ tmp127,
 629              	.LVL62:
 630 0030 80F83D20 		strb	r2, [r0, #61]	@ tmp127, hsram_8(D)->State
 485:../STM32Cube_FW_F4_V1.4.0/Drivers/STM32F4xx_HAL_Driver/Src/stm32f4xx_hal_sram.c ****   
 486:../STM32Cube_FW_F4_V1.4.0/Drivers/STM32F4xx_HAL_Driver/Src/stm32f4xx_hal_sram.c ****   /* Process unlocked */
 487:../STM32Cube_FW_F4_V1.4.0/Drivers/STM32F4xx_HAL_Driver/Src/stm32f4xx_hal_sram.c ****   __HAL_UNLOCK(hsram);
 631              		.loc 1 487 0
 632 0034 80F83C30 		strb	r3, [r0, #60]	@ BufferSize, hsram_8(D)->Lock
 488:../STM32Cube_FW_F4_V1.4.0/Drivers/STM32F4xx_HAL_Driver/Src/stm32f4xx_hal_sram.c ****     
 489:../STM32Cube_FW_F4_V1.4.0/Drivers/STM32F4xx_HAL_Driver/Src/stm32f4xx_hal_sram.c ****   return HAL_OK;   
 633              		.loc 1 489 0
 634 0038 1846     		mov	r0, r3	@ D.7727, BufferSize
 635              	.LVL63:
 636 003a 30BD     		pop	{r4, r5, pc}	@
 637              	.LVL64:
 638              	.L47:
 466:../STM32Cube_FW_F4_V1.4.0/Drivers/STM32F4xx_HAL_Driver/Src/stm32f4xx_hal_sram.c ****   }
 639              		.loc 1 466 0
 640 003c 0120     		movs	r0, #1	@ D.7727,
 641              	.LVL65:
 642 003e 30BD     		pop	{r4, r5, pc}	@
 643              	.LVL66:
 644              	.L48:
 470:../STM32Cube_FW_F4_V1.4.0/Drivers/STM32F4xx_HAL_Driver/Src/stm32f4xx_hal_sram.c ****   
 645              		.loc 1 470 0
 646 0040 2046     		mov	r0, r4	@ D.7727, D.7727
 647              	.LVL67:
 490:../STM32Cube_FW_F4_V1.4.0/Drivers/STM32F4xx_HAL_Driver/Src/stm32f4xx_hal_sram.c **** }
 648              		.loc 1 490 0
 649 0042 30BD     		pop	{r4, r5, pc}	@
 650              		.cfi_endproc
 651              	.LFE134:
 652              		.size	HAL_SRAM_Write_32b, .-HAL_SRAM_Write_32b
 653              		.section	.text.HAL_SRAM_Read_DMA,"ax",%progbits
 654              		.align	1
 655              		.global	HAL_SRAM_Read_DMA
 656              		.thumb
 657              		.thumb_func
 658              		.type	HAL_SRAM_Read_DMA, %function
 659              	HAL_SRAM_Read_DMA:
 660              	.LFB135:
 491:../STM32Cube_FW_F4_V1.4.0/Drivers/STM32F4xx_HAL_Driver/Src/stm32f4xx_hal_sram.c **** 
 492:../STM32Cube_FW_F4_V1.4.0/Drivers/STM32F4xx_HAL_Driver/Src/stm32f4xx_hal_sram.c **** /**
 493:../STM32Cube_FW_F4_V1.4.0/Drivers/STM32F4xx_HAL_Driver/Src/stm32f4xx_hal_sram.c ****   * @brief  Reads a Words data from the SRAM memory using DMA transfer.
 494:../STM32Cube_FW_F4_V1.4.0/Drivers/STM32F4xx_HAL_Driver/Src/stm32f4xx_hal_sram.c ****   * @param  hsram: pointer to a SRAM_HandleTypeDef structure that contains
 495:../STM32Cube_FW_F4_V1.4.0/Drivers/STM32F4xx_HAL_Driver/Src/stm32f4xx_hal_sram.c ****   *                the configuration information for SRAM module.
 496:../STM32Cube_FW_F4_V1.4.0/Drivers/STM32F4xx_HAL_Driver/Src/stm32f4xx_hal_sram.c ****   * @param  pAddress: Pointer to read start address
 497:../STM32Cube_FW_F4_V1.4.0/Drivers/STM32F4xx_HAL_Driver/Src/stm32f4xx_hal_sram.c ****   * @param  pDstBuffer: Pointer to destination buffer  
 498:../STM32Cube_FW_F4_V1.4.0/Drivers/STM32F4xx_HAL_Driver/Src/stm32f4xx_hal_sram.c ****   * @param  BufferSize: Size of the buffer to read from memory
 499:../STM32Cube_FW_F4_V1.4.0/Drivers/STM32F4xx_HAL_Driver/Src/stm32f4xx_hal_sram.c ****   * @retval HAL status
 500:../STM32Cube_FW_F4_V1.4.0/Drivers/STM32F4xx_HAL_Driver/Src/stm32f4xx_hal_sram.c ****   */
 501:../STM32Cube_FW_F4_V1.4.0/Drivers/STM32F4xx_HAL_Driver/Src/stm32f4xx_hal_sram.c **** HAL_StatusTypeDef HAL_SRAM_Read_DMA(SRAM_HandleTypeDef *hsram, uint32_t *pAddress, uint32_t *pDstBu
ARM GAS  C:\cygwin\tmp\ccHJheQe.s 			page 22


 502:../STM32Cube_FW_F4_V1.4.0/Drivers/STM32F4xx_HAL_Driver/Src/stm32f4xx_hal_sram.c **** {
 661              		.loc 1 502 0
 662              		.cfi_startproc
 663              		@ args = 0, pretend = 0, frame = 0
 664              		@ frame_needed = 0, uses_anonymous_args = 0
 665              	.LVL68:
 666 0000 70B5     		push	{r4, r5, r6, lr}	@
 667              		.cfi_def_cfa_offset 16
 668              		.cfi_offset 4, -16
 669              		.cfi_offset 5, -12
 670              		.cfi_offset 6, -8
 671              		.cfi_offset 14, -4
 672              		.loc 1 502 0
 673 0002 0446     		mov	r4, r0	@ hsram, hsram
 503:../STM32Cube_FW_F4_V1.4.0/Drivers/STM32F4xx_HAL_Driver/Src/stm32f4xx_hal_sram.c ****   /* Process Locked */
 504:../STM32Cube_FW_F4_V1.4.0/Drivers/STM32F4xx_HAL_Driver/Src/stm32f4xx_hal_sram.c ****   __HAL_LOCK(hsram);  
 674              		.loc 1 504 0
 675 0004 90F83C00 		ldrb	r0, [r0, #60]	@ zero_extendqisi2	@ hsram_4(D)->Lock, hsram_4(D)->Lock
 676              	.LVL69:
 677 0008 0128     		cmp	r0, #1	@ hsram_4(D)->Lock,
 678 000a 4FF00200 		mov	r0, #2	@ D.7733,
 679 000e 10D0     		beq	.L51	@,
 505:../STM32Cube_FW_F4_V1.4.0/Drivers/STM32F4xx_HAL_Driver/Src/stm32f4xx_hal_sram.c ****   
 506:../STM32Cube_FW_F4_V1.4.0/Drivers/STM32F4xx_HAL_Driver/Src/stm32f4xx_hal_sram.c ****   /* Update the SRAM controller state */
 507:../STM32Cube_FW_F4_V1.4.0/Drivers/STM32F4xx_HAL_Driver/Src/stm32f4xx_hal_sram.c ****   hsram->State = HAL_SRAM_STATE_BUSY;   
 680              		.loc 1 507 0 discriminator 2
 681 0010 84F83D00 		strb	r0, [r4, #61]	@ D.7733, hsram_4(D)->State
 508:../STM32Cube_FW_F4_V1.4.0/Drivers/STM32F4xx_HAL_Driver/Src/stm32f4xx_hal_sram.c ****   
 509:../STM32Cube_FW_F4_V1.4.0/Drivers/STM32F4xx_HAL_Driver/Src/stm32f4xx_hal_sram.c ****   /* Configure DMA user callbacks */
 510:../STM32Cube_FW_F4_V1.4.0/Drivers/STM32F4xx_HAL_Driver/Src/stm32f4xx_hal_sram.c ****   hsram->hdma->XferCpltCallback  = HAL_SRAM_DMA_XferCpltCallback;
 682              		.loc 1 510 0 discriminator 2
 683 0014 206C     		ldr	r0, [r4, #64]	@ D.7735, hsram_4(D)->hdma
 684 0016 074E     		ldr	r6, .L53	@ tmp125,
 504:../STM32Cube_FW_F4_V1.4.0/Drivers/STM32F4xx_HAL_Driver/Src/stm32f4xx_hal_sram.c ****   
 685              		.loc 1 504 0 discriminator 2
 686 0018 0125     		movs	r5, #1	@ tmp121,
 687 001a 84F83C50 		strb	r5, [r4, #60]	@ tmp121, hsram_4(D)->Lock
 688              		.loc 1 510 0 discriminator 2
 689 001e C663     		str	r6, [r0, #60]	@ tmp125, _8->XferCpltCallback
 511:../STM32Cube_FW_F4_V1.4.0/Drivers/STM32F4xx_HAL_Driver/Src/stm32f4xx_hal_sram.c ****   hsram->hdma->XferErrorCallback = HAL_SRAM_DMA_XferErrorCallback;
 690              		.loc 1 511 0 discriminator 2
 691 0020 054E     		ldr	r6, .L53+4	@ tmp126,
 692 0022 8664     		str	r6, [r0, #72]	@ tmp126, _8->XferErrorCallback
 512:../STM32Cube_FW_F4_V1.4.0/Drivers/STM32F4xx_HAL_Driver/Src/stm32f4xx_hal_sram.c **** 
 513:../STM32Cube_FW_F4_V1.4.0/Drivers/STM32F4xx_HAL_Driver/Src/stm32f4xx_hal_sram.c ****   /* Enable the DMA Stream */
 514:../STM32Cube_FW_F4_V1.4.0/Drivers/STM32F4xx_HAL_Driver/Src/stm32f4xx_hal_sram.c ****   HAL_DMA_Start_IT(hsram->hdma, (uint32_t)pAddress, (uint32_t)pDstBuffer, (uint32_t)BufferSize);
 693              		.loc 1 514 0 discriminator 2
 694 0024 FFF7FEFF 		bl	HAL_DMA_Start_IT	@
 695              	.LVL70:
 515:../STM32Cube_FW_F4_V1.4.0/Drivers/STM32F4xx_HAL_Driver/Src/stm32f4xx_hal_sram.c ****   
 516:../STM32Cube_FW_F4_V1.4.0/Drivers/STM32F4xx_HAL_Driver/Src/stm32f4xx_hal_sram.c ****   /* Update the SRAM controller state */
 517:../STM32Cube_FW_F4_V1.4.0/Drivers/STM32F4xx_HAL_Driver/Src/stm32f4xx_hal_sram.c ****   hsram->State = HAL_SRAM_STATE_READY; 
 518:../STM32Cube_FW_F4_V1.4.0/Drivers/STM32F4xx_HAL_Driver/Src/stm32f4xx_hal_sram.c ****   
 519:../STM32Cube_FW_F4_V1.4.0/Drivers/STM32F4xx_HAL_Driver/Src/stm32f4xx_hal_sram.c ****   /* Process unlocked */
 520:../STM32Cube_FW_F4_V1.4.0/Drivers/STM32F4xx_HAL_Driver/Src/stm32f4xx_hal_sram.c ****   __HAL_UNLOCK(hsram);  
 696              		.loc 1 520 0 discriminator 2
 697 0028 0020     		movs	r0, #0	@ tmp129,
ARM GAS  C:\cygwin\tmp\ccHJheQe.s 			page 23


 517:../STM32Cube_FW_F4_V1.4.0/Drivers/STM32F4xx_HAL_Driver/Src/stm32f4xx_hal_sram.c ****   
 698              		.loc 1 517 0 discriminator 2
 699 002a 84F83D50 		strb	r5, [r4, #61]	@ tmp121, hsram_4(D)->State
 700              		.loc 1 520 0 discriminator 2
 701 002e 84F83C00 		strb	r0, [r4, #60]	@ tmp129, hsram_4(D)->Lock
 702              	.L51:
 521:../STM32Cube_FW_F4_V1.4.0/Drivers/STM32F4xx_HAL_Driver/Src/stm32f4xx_hal_sram.c ****   
 522:../STM32Cube_FW_F4_V1.4.0/Drivers/STM32F4xx_HAL_Driver/Src/stm32f4xx_hal_sram.c ****   return HAL_OK; 
 523:../STM32Cube_FW_F4_V1.4.0/Drivers/STM32F4xx_HAL_Driver/Src/stm32f4xx_hal_sram.c **** }
 703              		.loc 1 523 0
 704 0032 70BD     		pop	{r4, r5, r6, pc}	@
 705              	.LVL71:
 706              	.L54:
 707              		.align	2
 708              	.L53:
 709 0034 00000000 		.word	HAL_SRAM_DMA_XferCpltCallback
 710 0038 00000000 		.word	HAL_SRAM_DMA_XferErrorCallback
 711              		.cfi_endproc
 712              	.LFE135:
 713              		.size	HAL_SRAM_Read_DMA, .-HAL_SRAM_Read_DMA
 714              		.section	.text.HAL_SRAM_Write_DMA,"ax",%progbits
 715              		.align	1
 716              		.global	HAL_SRAM_Write_DMA
 717              		.thumb
 718              		.thumb_func
 719              		.type	HAL_SRAM_Write_DMA, %function
 720              	HAL_SRAM_Write_DMA:
 721              	.LFB136:
 524:../STM32Cube_FW_F4_V1.4.0/Drivers/STM32F4xx_HAL_Driver/Src/stm32f4xx_hal_sram.c **** 
 525:../STM32Cube_FW_F4_V1.4.0/Drivers/STM32F4xx_HAL_Driver/Src/stm32f4xx_hal_sram.c **** /**
 526:../STM32Cube_FW_F4_V1.4.0/Drivers/STM32F4xx_HAL_Driver/Src/stm32f4xx_hal_sram.c ****   * @brief  Writes a Words data buffer to SRAM memory using DMA transfer.
 527:../STM32Cube_FW_F4_V1.4.0/Drivers/STM32F4xx_HAL_Driver/Src/stm32f4xx_hal_sram.c ****   * @param  hsram: pointer to a SRAM_HandleTypeDef structure that contains
 528:../STM32Cube_FW_F4_V1.4.0/Drivers/STM32F4xx_HAL_Driver/Src/stm32f4xx_hal_sram.c ****   *                the configuration information for SRAM module.
 529:../STM32Cube_FW_F4_V1.4.0/Drivers/STM32F4xx_HAL_Driver/Src/stm32f4xx_hal_sram.c ****   * @param  pAddress: Pointer to write start address
 530:../STM32Cube_FW_F4_V1.4.0/Drivers/STM32F4xx_HAL_Driver/Src/stm32f4xx_hal_sram.c ****   * @param  pSrcBuffer: Pointer to source buffer to write  
 531:../STM32Cube_FW_F4_V1.4.0/Drivers/STM32F4xx_HAL_Driver/Src/stm32f4xx_hal_sram.c ****   * @param  BufferSize: Size of the buffer to write to memory
 532:../STM32Cube_FW_F4_V1.4.0/Drivers/STM32F4xx_HAL_Driver/Src/stm32f4xx_hal_sram.c ****   * @retval HAL status
 533:../STM32Cube_FW_F4_V1.4.0/Drivers/STM32F4xx_HAL_Driver/Src/stm32f4xx_hal_sram.c ****   */
 534:../STM32Cube_FW_F4_V1.4.0/Drivers/STM32F4xx_HAL_Driver/Src/stm32f4xx_hal_sram.c **** HAL_StatusTypeDef HAL_SRAM_Write_DMA(SRAM_HandleTypeDef *hsram, uint32_t *pAddress, uint32_t *pSrcB
 535:../STM32Cube_FW_F4_V1.4.0/Drivers/STM32F4xx_HAL_Driver/Src/stm32f4xx_hal_sram.c **** {
 722              		.loc 1 535 0
 723              		.cfi_startproc
 724              		@ args = 0, pretend = 0, frame = 0
 725              		@ frame_needed = 0, uses_anonymous_args = 0
 726              	.LVL72:
 727 0000 70B5     		push	{r4, r5, r6, lr}	@
 728              		.cfi_def_cfa_offset 16
 729              		.cfi_offset 4, -16
 730              		.cfi_offset 5, -12
 731              		.cfi_offset 6, -8
 732              		.cfi_offset 14, -4
 733              		.loc 1 535 0
 734 0002 0E46     		mov	r6, r1	@ pAddress, pAddress
 536:../STM32Cube_FW_F4_V1.4.0/Drivers/STM32F4xx_HAL_Driver/Src/stm32f4xx_hal_sram.c ****   /* Check the SRAM controller state */
 537:../STM32Cube_FW_F4_V1.4.0/Drivers/STM32F4xx_HAL_Driver/Src/stm32f4xx_hal_sram.c ****   if(hsram->State == HAL_SRAM_STATE_PROTECTED)
 735              		.loc 1 537 0
 736 0004 90F83D10 		ldrb	r1, [r0, #61]	@ zero_extendqisi2	@ hsram_4(D)->State, hsram_4(D)->State
ARM GAS  C:\cygwin\tmp\ccHJheQe.s 			page 24


 737              	.LVL73:
 738 0008 0429     		cmp	r1, #4	@ hsram_4(D)->State,
 535:../STM32Cube_FW_F4_V1.4.0/Drivers/STM32F4xx_HAL_Driver/Src/stm32f4xx_hal_sram.c ****   /* Check the SRAM controller state */
 739              		.loc 1 535 0
 740 000a 0446     		mov	r4, r0	@ hsram, hsram
 741              		.loc 1 537 0
 742 000c 19D0     		beq	.L57	@,
 538:../STM32Cube_FW_F4_V1.4.0/Drivers/STM32F4xx_HAL_Driver/Src/stm32f4xx_hal_sram.c ****   {
 539:../STM32Cube_FW_F4_V1.4.0/Drivers/STM32F4xx_HAL_Driver/Src/stm32f4xx_hal_sram.c ****     return  HAL_ERROR; 
 540:../STM32Cube_FW_F4_V1.4.0/Drivers/STM32F4xx_HAL_Driver/Src/stm32f4xx_hal_sram.c ****   }
 541:../STM32Cube_FW_F4_V1.4.0/Drivers/STM32F4xx_HAL_Driver/Src/stm32f4xx_hal_sram.c ****   
 542:../STM32Cube_FW_F4_V1.4.0/Drivers/STM32F4xx_HAL_Driver/Src/stm32f4xx_hal_sram.c ****   /* Process Locked */
 543:../STM32Cube_FW_F4_V1.4.0/Drivers/STM32F4xx_HAL_Driver/Src/stm32f4xx_hal_sram.c ****   __HAL_LOCK(hsram);
 743              		.loc 1 543 0
 744 000e 90F83C10 		ldrb	r1, [r0, #60]	@ zero_extendqisi2	@ hsram_4(D)->Lock, hsram_4(D)->Lock
 745 0012 0129     		cmp	r1, #1	@ hsram_4(D)->Lock,
 746 0014 4FF00200 		mov	r0, #2	@ D.7739,
 747              	.LVL74:
 748 0018 14D0     		beq	.L56	@,
 544:../STM32Cube_FW_F4_V1.4.0/Drivers/STM32F4xx_HAL_Driver/Src/stm32f4xx_hal_sram.c ****   
 545:../STM32Cube_FW_F4_V1.4.0/Drivers/STM32F4xx_HAL_Driver/Src/stm32f4xx_hal_sram.c ****   /* Update the SRAM controller state */
 546:../STM32Cube_FW_F4_V1.4.0/Drivers/STM32F4xx_HAL_Driver/Src/stm32f4xx_hal_sram.c ****   hsram->State = HAL_SRAM_STATE_BUSY; 
 749              		.loc 1 546 0 discriminator 2
 750 001a 84F83D00 		strb	r0, [r4, #61]	@ D.7739, hsram_4(D)->State
 547:../STM32Cube_FW_F4_V1.4.0/Drivers/STM32F4xx_HAL_Driver/Src/stm32f4xx_hal_sram.c ****   
 548:../STM32Cube_FW_F4_V1.4.0/Drivers/STM32F4xx_HAL_Driver/Src/stm32f4xx_hal_sram.c ****   /* Configure DMA user callbacks */
 549:../STM32Cube_FW_F4_V1.4.0/Drivers/STM32F4xx_HAL_Driver/Src/stm32f4xx_hal_sram.c ****   hsram->hdma->XferCpltCallback  = HAL_SRAM_DMA_XferCpltCallback;
 751              		.loc 1 549 0 discriminator 2
 752 001e 206C     		ldr	r0, [r4, #64]	@ D.7742, hsram_4(D)->hdma
 753 0020 0949     		ldr	r1, .L59	@ tmp129,
 543:../STM32Cube_FW_F4_V1.4.0/Drivers/STM32F4xx_HAL_Driver/Src/stm32f4xx_hal_sram.c ****   
 754              		.loc 1 543 0 discriminator 2
 755 0022 0125     		movs	r5, #1	@ tmp125,
 756 0024 84F83C50 		strb	r5, [r4, #60]	@ tmp125, hsram_4(D)->Lock
 757              		.loc 1 549 0 discriminator 2
 758 0028 C163     		str	r1, [r0, #60]	@ tmp129, _9->XferCpltCallback
 550:../STM32Cube_FW_F4_V1.4.0/Drivers/STM32F4xx_HAL_Driver/Src/stm32f4xx_hal_sram.c ****   hsram->hdma->XferErrorCallback = HAL_SRAM_DMA_XferErrorCallback;
 759              		.loc 1 550 0 discriminator 2
 760 002a 0849     		ldr	r1, .L59+4	@ tmp130,
 761 002c 8164     		str	r1, [r0, #72]	@ tmp130, _9->XferErrorCallback
 551:../STM32Cube_FW_F4_V1.4.0/Drivers/STM32F4xx_HAL_Driver/Src/stm32f4xx_hal_sram.c **** 
 552:../STM32Cube_FW_F4_V1.4.0/Drivers/STM32F4xx_HAL_Driver/Src/stm32f4xx_hal_sram.c ****   /* Enable the DMA Stream */
 553:../STM32Cube_FW_F4_V1.4.0/Drivers/STM32F4xx_HAL_Driver/Src/stm32f4xx_hal_sram.c ****   HAL_DMA_Start_IT(hsram->hdma, (uint32_t)pSrcBuffer, (uint32_t)pAddress, (uint32_t)BufferSize);
 762              		.loc 1 553 0 discriminator 2
 763 002e 1146     		mov	r1, r2	@, pSrcBuffer
 764 0030 3246     		mov	r2, r6	@, pAddress
 765              	.LVL75:
 766 0032 FFF7FEFF 		bl	HAL_DMA_Start_IT	@
 767              	.LVL76:
 554:../STM32Cube_FW_F4_V1.4.0/Drivers/STM32F4xx_HAL_Driver/Src/stm32f4xx_hal_sram.c ****   
 555:../STM32Cube_FW_F4_V1.4.0/Drivers/STM32F4xx_HAL_Driver/Src/stm32f4xx_hal_sram.c ****   /* Update the SRAM controller state */
 556:../STM32Cube_FW_F4_V1.4.0/Drivers/STM32F4xx_HAL_Driver/Src/stm32f4xx_hal_sram.c ****   hsram->State = HAL_SRAM_STATE_READY;  
 557:../STM32Cube_FW_F4_V1.4.0/Drivers/STM32F4xx_HAL_Driver/Src/stm32f4xx_hal_sram.c ****   
 558:../STM32Cube_FW_F4_V1.4.0/Drivers/STM32F4xx_HAL_Driver/Src/stm32f4xx_hal_sram.c ****   /* Process unlocked */
 559:../STM32Cube_FW_F4_V1.4.0/Drivers/STM32F4xx_HAL_Driver/Src/stm32f4xx_hal_sram.c ****   __HAL_UNLOCK(hsram);  
 768              		.loc 1 559 0 discriminator 2
 769 0036 0020     		movs	r0, #0	@ tmp133,
ARM GAS  C:\cygwin\tmp\ccHJheQe.s 			page 25


 556:../STM32Cube_FW_F4_V1.4.0/Drivers/STM32F4xx_HAL_Driver/Src/stm32f4xx_hal_sram.c ****   
 770              		.loc 1 556 0 discriminator 2
 771 0038 84F83D50 		strb	r5, [r4, #61]	@ tmp125, hsram_4(D)->State
 772              		.loc 1 559 0 discriminator 2
 773 003c 84F83C00 		strb	r0, [r4, #60]	@ tmp133, hsram_4(D)->Lock
 560:../STM32Cube_FW_F4_V1.4.0/Drivers/STM32F4xx_HAL_Driver/Src/stm32f4xx_hal_sram.c ****   
 561:../STM32Cube_FW_F4_V1.4.0/Drivers/STM32F4xx_HAL_Driver/Src/stm32f4xx_hal_sram.c ****   return HAL_OK;
 774              		.loc 1 561 0 discriminator 2
 775 0040 70BD     		pop	{r4, r5, r6, pc}	@
 776              	.LVL77:
 777              	.L57:
 539:../STM32Cube_FW_F4_V1.4.0/Drivers/STM32F4xx_HAL_Driver/Src/stm32f4xx_hal_sram.c ****   }
 778              		.loc 1 539 0
 779 0042 0120     		movs	r0, #1	@ D.7739,
 780              	.LVL78:
 781              	.L56:
 562:../STM32Cube_FW_F4_V1.4.0/Drivers/STM32F4xx_HAL_Driver/Src/stm32f4xx_hal_sram.c **** }
 782              		.loc 1 562 0
 783 0044 70BD     		pop	{r4, r5, r6, pc}	@
 784              	.LVL79:
 785              	.L60:
 786 0046 00BF     		.align	2
 787              	.L59:
 788 0048 00000000 		.word	HAL_SRAM_DMA_XferCpltCallback
 789 004c 00000000 		.word	HAL_SRAM_DMA_XferErrorCallback
 790              		.cfi_endproc
 791              	.LFE136:
 792              		.size	HAL_SRAM_Write_DMA, .-HAL_SRAM_Write_DMA
 793              		.section	.text.HAL_SRAM_WriteOperation_Enable,"ax",%progbits
 794              		.align	1
 795              		.global	HAL_SRAM_WriteOperation_Enable
 796              		.thumb
 797              		.thumb_func
 798              		.type	HAL_SRAM_WriteOperation_Enable, %function
 799              	HAL_SRAM_WriteOperation_Enable:
 800              	.LFB137:
 563:../STM32Cube_FW_F4_V1.4.0/Drivers/STM32F4xx_HAL_Driver/Src/stm32f4xx_hal_sram.c **** 
 564:../STM32Cube_FW_F4_V1.4.0/Drivers/STM32F4xx_HAL_Driver/Src/stm32f4xx_hal_sram.c **** /**
 565:../STM32Cube_FW_F4_V1.4.0/Drivers/STM32F4xx_HAL_Driver/Src/stm32f4xx_hal_sram.c ****   * @}
 566:../STM32Cube_FW_F4_V1.4.0/Drivers/STM32F4xx_HAL_Driver/Src/stm32f4xx_hal_sram.c ****   */
 567:../STM32Cube_FW_F4_V1.4.0/Drivers/STM32F4xx_HAL_Driver/Src/stm32f4xx_hal_sram.c ****   
 568:../STM32Cube_FW_F4_V1.4.0/Drivers/STM32F4xx_HAL_Driver/Src/stm32f4xx_hal_sram.c **** /** @defgroup SRAM_Exported_Functions_Group3 Control functions 
 569:../STM32Cube_FW_F4_V1.4.0/Drivers/STM32F4xx_HAL_Driver/Src/stm32f4xx_hal_sram.c ****  *  @brief   management functions 
 570:../STM32Cube_FW_F4_V1.4.0/Drivers/STM32F4xx_HAL_Driver/Src/stm32f4xx_hal_sram.c ****  *
 571:../STM32Cube_FW_F4_V1.4.0/Drivers/STM32F4xx_HAL_Driver/Src/stm32f4xx_hal_sram.c **** @verbatim   
 572:../STM32Cube_FW_F4_V1.4.0/Drivers/STM32F4xx_HAL_Driver/Src/stm32f4xx_hal_sram.c ****   ==============================================================================
 573:../STM32Cube_FW_F4_V1.4.0/Drivers/STM32F4xx_HAL_Driver/Src/stm32f4xx_hal_sram.c ****                         ##### SRAM Control functions #####
 574:../STM32Cube_FW_F4_V1.4.0/Drivers/STM32F4xx_HAL_Driver/Src/stm32f4xx_hal_sram.c ****   ==============================================================================  
 575:../STM32Cube_FW_F4_V1.4.0/Drivers/STM32F4xx_HAL_Driver/Src/stm32f4xx_hal_sram.c ****   [..]
 576:../STM32Cube_FW_F4_V1.4.0/Drivers/STM32F4xx_HAL_Driver/Src/stm32f4xx_hal_sram.c ****     This subsection provides a set of functions allowing to control dynamically
 577:../STM32Cube_FW_F4_V1.4.0/Drivers/STM32F4xx_HAL_Driver/Src/stm32f4xx_hal_sram.c ****     the SRAM interface.
 578:../STM32Cube_FW_F4_V1.4.0/Drivers/STM32F4xx_HAL_Driver/Src/stm32f4xx_hal_sram.c **** 
 579:../STM32Cube_FW_F4_V1.4.0/Drivers/STM32F4xx_HAL_Driver/Src/stm32f4xx_hal_sram.c **** @endverbatim
 580:../STM32Cube_FW_F4_V1.4.0/Drivers/STM32F4xx_HAL_Driver/Src/stm32f4xx_hal_sram.c ****   * @{
 581:../STM32Cube_FW_F4_V1.4.0/Drivers/STM32F4xx_HAL_Driver/Src/stm32f4xx_hal_sram.c ****   */
 582:../STM32Cube_FW_F4_V1.4.0/Drivers/STM32F4xx_HAL_Driver/Src/stm32f4xx_hal_sram.c ****     
 583:../STM32Cube_FW_F4_V1.4.0/Drivers/STM32F4xx_HAL_Driver/Src/stm32f4xx_hal_sram.c **** /**
ARM GAS  C:\cygwin\tmp\ccHJheQe.s 			page 26


 584:../STM32Cube_FW_F4_V1.4.0/Drivers/STM32F4xx_HAL_Driver/Src/stm32f4xx_hal_sram.c ****   * @brief  Enables dynamically SRAM write operation.
 585:../STM32Cube_FW_F4_V1.4.0/Drivers/STM32F4xx_HAL_Driver/Src/stm32f4xx_hal_sram.c ****   * @param  hsram: pointer to a SRAM_HandleTypeDef structure that contains
 586:../STM32Cube_FW_F4_V1.4.0/Drivers/STM32F4xx_HAL_Driver/Src/stm32f4xx_hal_sram.c ****   *                the configuration information for SRAM module.
 587:../STM32Cube_FW_F4_V1.4.0/Drivers/STM32F4xx_HAL_Driver/Src/stm32f4xx_hal_sram.c ****   * @retval HAL status
 588:../STM32Cube_FW_F4_V1.4.0/Drivers/STM32F4xx_HAL_Driver/Src/stm32f4xx_hal_sram.c ****   */
 589:../STM32Cube_FW_F4_V1.4.0/Drivers/STM32F4xx_HAL_Driver/Src/stm32f4xx_hal_sram.c **** HAL_StatusTypeDef HAL_SRAM_WriteOperation_Enable(SRAM_HandleTypeDef *hsram)
 590:../STM32Cube_FW_F4_V1.4.0/Drivers/STM32F4xx_HAL_Driver/Src/stm32f4xx_hal_sram.c **** {
 801              		.loc 1 590 0
 802              		.cfi_startproc
 803              		@ args = 0, pretend = 0, frame = 0
 804              		@ frame_needed = 0, uses_anonymous_args = 0
 805              	.LVL80:
 806 0000 38B5     		push	{r3, r4, r5, lr}	@
 807              		.cfi_def_cfa_offset 16
 808              		.cfi_offset 3, -16
 809              		.cfi_offset 4, -12
 810              		.cfi_offset 5, -8
 811              		.cfi_offset 14, -4
 591:../STM32Cube_FW_F4_V1.4.0/Drivers/STM32F4xx_HAL_Driver/Src/stm32f4xx_hal_sram.c ****   /* Process Locked */
 592:../STM32Cube_FW_F4_V1.4.0/Drivers/STM32F4xx_HAL_Driver/Src/stm32f4xx_hal_sram.c ****   __HAL_LOCK(hsram);
 812              		.loc 1 592 0
 813 0002 90F83C30 		ldrb	r3, [r0, #60]	@ zero_extendqisi2	@ hsram_4(D)->Lock, hsram_4(D)->Lock
 814 0006 012B     		cmp	r3, #1	@ hsram_4(D)->Lock,
 590:../STM32Cube_FW_F4_V1.4.0/Drivers/STM32F4xx_HAL_Driver/Src/stm32f4xx_hal_sram.c ****   /* Process Locked */
 815              		.loc 1 590 0
 816 0008 0446     		mov	r4, r0	@ hsram, hsram
 817              		.loc 1 592 0
 818 000a 0CD0     		beq	.L63	@,
 819              		.loc 1 592 0 is_stmt 0 discriminator 2
 820 000c 0125     		movs	r5, #1	@ tmp117,
 821 000e 80F83C50 		strb	r5, [r0, #60]	@ tmp117, hsram_4(D)->Lock
 593:../STM32Cube_FW_F4_V1.4.0/Drivers/STM32F4xx_HAL_Driver/Src/stm32f4xx_hal_sram.c **** 
 594:../STM32Cube_FW_F4_V1.4.0/Drivers/STM32F4xx_HAL_Driver/Src/stm32f4xx_hal_sram.c ****   /* Enable write operation */
 595:../STM32Cube_FW_F4_V1.4.0/Drivers/STM32F4xx_HAL_Driver/Src/stm32f4xx_hal_sram.c ****   FMC_NORSRAM_WriteOperation_Enable(hsram->Instance, hsram->Init.NSBank); 
 822              		.loc 1 595 0 is_stmt 1 discriminator 2
 823 0012 A168     		ldr	r1, [r4, #8]	@, hsram_4(D)->Init.NSBank
 824 0014 0068     		ldr	r0, [r0]	@, hsram_4(D)->Instance
 825              	.LVL81:
 826 0016 FFF7FEFF 		bl	FSMC_NORSRAM_WriteOperation_Enable	@
 827              	.LVL82:
 596:../STM32Cube_FW_F4_V1.4.0/Drivers/STM32F4xx_HAL_Driver/Src/stm32f4xx_hal_sram.c ****   
 597:../STM32Cube_FW_F4_V1.4.0/Drivers/STM32F4xx_HAL_Driver/Src/stm32f4xx_hal_sram.c ****   /* Update the SRAM controller state */
 598:../STM32Cube_FW_F4_V1.4.0/Drivers/STM32F4xx_HAL_Driver/Src/stm32f4xx_hal_sram.c ****   hsram->State = HAL_SRAM_STATE_READY;
 599:../STM32Cube_FW_F4_V1.4.0/Drivers/STM32F4xx_HAL_Driver/Src/stm32f4xx_hal_sram.c ****   
 600:../STM32Cube_FW_F4_V1.4.0/Drivers/STM32F4xx_HAL_Driver/Src/stm32f4xx_hal_sram.c ****   /* Process unlocked */
 601:../STM32Cube_FW_F4_V1.4.0/Drivers/STM32F4xx_HAL_Driver/Src/stm32f4xx_hal_sram.c ****   __HAL_UNLOCK(hsram); 
 828              		.loc 1 601 0 discriminator 2
 829 001a 0020     		movs	r0, #0	@ tmp121,
 598:../STM32Cube_FW_F4_V1.4.0/Drivers/STM32F4xx_HAL_Driver/Src/stm32f4xx_hal_sram.c ****   
 830              		.loc 1 598 0 discriminator 2
 831 001c 84F83D50 		strb	r5, [r4, #61]	@ tmp117, hsram_4(D)->State
 832              		.loc 1 601 0 discriminator 2
 833 0020 84F83C00 		strb	r0, [r4, #60]	@ tmp121, hsram_4(D)->Lock
 602:../STM32Cube_FW_F4_V1.4.0/Drivers/STM32F4xx_HAL_Driver/Src/stm32f4xx_hal_sram.c ****   
 603:../STM32Cube_FW_F4_V1.4.0/Drivers/STM32F4xx_HAL_Driver/Src/stm32f4xx_hal_sram.c ****   return HAL_OK;  
 834              		.loc 1 603 0 discriminator 2
 835 0024 38BD     		pop	{r3, r4, r5, pc}	@
ARM GAS  C:\cygwin\tmp\ccHJheQe.s 			page 27


 836              	.LVL83:
 837              	.L63:
 592:../STM32Cube_FW_F4_V1.4.0/Drivers/STM32F4xx_HAL_Driver/Src/stm32f4xx_hal_sram.c **** 
 838              		.loc 1 592 0
 839 0026 0220     		movs	r0, #2	@ D.7746,
 840              	.LVL84:
 604:../STM32Cube_FW_F4_V1.4.0/Drivers/STM32F4xx_HAL_Driver/Src/stm32f4xx_hal_sram.c **** }
 841              		.loc 1 604 0
 842 0028 38BD     		pop	{r3, r4, r5, pc}	@
 843              		.cfi_endproc
 844              	.LFE137:
 845              		.size	HAL_SRAM_WriteOperation_Enable, .-HAL_SRAM_WriteOperation_Enable
 846              		.section	.text.HAL_SRAM_WriteOperation_Disable,"ax",%progbits
 847              		.align	1
 848              		.global	HAL_SRAM_WriteOperation_Disable
 849              		.thumb
 850              		.thumb_func
 851              		.type	HAL_SRAM_WriteOperation_Disable, %function
 852              	HAL_SRAM_WriteOperation_Disable:
 853              	.LFB138:
 605:../STM32Cube_FW_F4_V1.4.0/Drivers/STM32F4xx_HAL_Driver/Src/stm32f4xx_hal_sram.c **** 
 606:../STM32Cube_FW_F4_V1.4.0/Drivers/STM32F4xx_HAL_Driver/Src/stm32f4xx_hal_sram.c **** /**
 607:../STM32Cube_FW_F4_V1.4.0/Drivers/STM32F4xx_HAL_Driver/Src/stm32f4xx_hal_sram.c ****   * @brief  Disables dynamically SRAM write operation.
 608:../STM32Cube_FW_F4_V1.4.0/Drivers/STM32F4xx_HAL_Driver/Src/stm32f4xx_hal_sram.c ****   * @param  hsram: pointer to a SRAM_HandleTypeDef structure that contains
 609:../STM32Cube_FW_F4_V1.4.0/Drivers/STM32F4xx_HAL_Driver/Src/stm32f4xx_hal_sram.c ****   *                the configuration information for SRAM module.
 610:../STM32Cube_FW_F4_V1.4.0/Drivers/STM32F4xx_HAL_Driver/Src/stm32f4xx_hal_sram.c ****   * @retval HAL status
 611:../STM32Cube_FW_F4_V1.4.0/Drivers/STM32F4xx_HAL_Driver/Src/stm32f4xx_hal_sram.c ****   */
 612:../STM32Cube_FW_F4_V1.4.0/Drivers/STM32F4xx_HAL_Driver/Src/stm32f4xx_hal_sram.c **** HAL_StatusTypeDef HAL_SRAM_WriteOperation_Disable(SRAM_HandleTypeDef *hsram)
 613:../STM32Cube_FW_F4_V1.4.0/Drivers/STM32F4xx_HAL_Driver/Src/stm32f4xx_hal_sram.c **** {
 854              		.loc 1 613 0
 855              		.cfi_startproc
 856              		@ args = 0, pretend = 0, frame = 0
 857              		@ frame_needed = 0, uses_anonymous_args = 0
 858              	.LVL85:
 614:../STM32Cube_FW_F4_V1.4.0/Drivers/STM32F4xx_HAL_Driver/Src/stm32f4xx_hal_sram.c ****   /* Process Locked */
 615:../STM32Cube_FW_F4_V1.4.0/Drivers/STM32F4xx_HAL_Driver/Src/stm32f4xx_hal_sram.c ****   __HAL_LOCK(hsram);
 859              		.loc 1 615 0
 860 0000 90F83C30 		ldrb	r3, [r0, #60]	@ zero_extendqisi2	@ hsram_4(D)->Lock, hsram_4(D)->Lock
 861 0004 012B     		cmp	r3, #1	@ hsram_4(D)->Lock,
 613:../STM32Cube_FW_F4_V1.4.0/Drivers/STM32F4xx_HAL_Driver/Src/stm32f4xx_hal_sram.c ****   /* Process Locked */
 862              		.loc 1 613 0
 863 0006 10B5     		push	{r4, lr}	@
 864              		.cfi_def_cfa_offset 8
 865              		.cfi_offset 4, -8
 866              		.cfi_offset 14, -4
 613:../STM32Cube_FW_F4_V1.4.0/Drivers/STM32F4xx_HAL_Driver/Src/stm32f4xx_hal_sram.c ****   /* Process Locked */
 867              		.loc 1 613 0
 868 0008 0446     		mov	r4, r0	@ hsram, hsram
 869 000a 4FF00200 		mov	r0, #2	@ D.7752,
 870              	.LVL86:
 871              		.loc 1 615 0
 872 000e 0ED0     		beq	.L65	@,
 873              		.loc 1 615 0 is_stmt 0 discriminator 2
 874 0010 0123     		movs	r3, #1	@ tmp117,
 875 0012 84F83C30 		strb	r3, [r4, #60]	@ tmp117, hsram_4(D)->Lock
 616:../STM32Cube_FW_F4_V1.4.0/Drivers/STM32F4xx_HAL_Driver/Src/stm32f4xx_hal_sram.c **** 
 617:../STM32Cube_FW_F4_V1.4.0/Drivers/STM32F4xx_HAL_Driver/Src/stm32f4xx_hal_sram.c ****   /* Update the SRAM controller state */
ARM GAS  C:\cygwin\tmp\ccHJheQe.s 			page 28


 618:../STM32Cube_FW_F4_V1.4.0/Drivers/STM32F4xx_HAL_Driver/Src/stm32f4xx_hal_sram.c ****   hsram->State = HAL_SRAM_STATE_BUSY;
 876              		.loc 1 618 0 is_stmt 1 discriminator 2
 877 0016 84F83D00 		strb	r0, [r4, #61]	@ D.7752, hsram_4(D)->State
 619:../STM32Cube_FW_F4_V1.4.0/Drivers/STM32F4xx_HAL_Driver/Src/stm32f4xx_hal_sram.c ****     
 620:../STM32Cube_FW_F4_V1.4.0/Drivers/STM32F4xx_HAL_Driver/Src/stm32f4xx_hal_sram.c ****   /* Disable write operation */
 621:../STM32Cube_FW_F4_V1.4.0/Drivers/STM32F4xx_HAL_Driver/Src/stm32f4xx_hal_sram.c ****   FMC_NORSRAM_WriteOperation_Disable(hsram->Instance, hsram->Init.NSBank); 
 878              		.loc 1 621 0 discriminator 2
 879 001a A168     		ldr	r1, [r4, #8]	@, hsram_4(D)->Init.NSBank
 880 001c 2068     		ldr	r0, [r4]	@, hsram_4(D)->Instance
 881 001e FFF7FEFF 		bl	FSMC_NORSRAM_WriteOperation_Disable	@
 882              	.LVL87:
 622:../STM32Cube_FW_F4_V1.4.0/Drivers/STM32F4xx_HAL_Driver/Src/stm32f4xx_hal_sram.c ****   
 623:../STM32Cube_FW_F4_V1.4.0/Drivers/STM32F4xx_HAL_Driver/Src/stm32f4xx_hal_sram.c ****   /* Update the SRAM controller state */
 624:../STM32Cube_FW_F4_V1.4.0/Drivers/STM32F4xx_HAL_Driver/Src/stm32f4xx_hal_sram.c ****   hsram->State = HAL_SRAM_STATE_PROTECTED;
 883              		.loc 1 624 0 discriminator 2
 884 0022 0423     		movs	r3, #4	@ tmp121,
 625:../STM32Cube_FW_F4_V1.4.0/Drivers/STM32F4xx_HAL_Driver/Src/stm32f4xx_hal_sram.c ****   
 626:../STM32Cube_FW_F4_V1.4.0/Drivers/STM32F4xx_HAL_Driver/Src/stm32f4xx_hal_sram.c ****   /* Process unlocked */
 627:../STM32Cube_FW_F4_V1.4.0/Drivers/STM32F4xx_HAL_Driver/Src/stm32f4xx_hal_sram.c ****   __HAL_UNLOCK(hsram); 
 885              		.loc 1 627 0 discriminator 2
 886 0024 0020     		movs	r0, #0	@ tmp123,
 624:../STM32Cube_FW_F4_V1.4.0/Drivers/STM32F4xx_HAL_Driver/Src/stm32f4xx_hal_sram.c ****   
 887              		.loc 1 624 0 discriminator 2
 888 0026 84F83D30 		strb	r3, [r4, #61]	@ tmp121, hsram_4(D)->State
 889              		.loc 1 627 0 discriminator 2
 890 002a 84F83C00 		strb	r0, [r4, #60]	@ tmp123, hsram_4(D)->Lock
 891              	.L65:
 628:../STM32Cube_FW_F4_V1.4.0/Drivers/STM32F4xx_HAL_Driver/Src/stm32f4xx_hal_sram.c ****   
 629:../STM32Cube_FW_F4_V1.4.0/Drivers/STM32F4xx_HAL_Driver/Src/stm32f4xx_hal_sram.c ****   return HAL_OK;  
 630:../STM32Cube_FW_F4_V1.4.0/Drivers/STM32F4xx_HAL_Driver/Src/stm32f4xx_hal_sram.c **** }
 892              		.loc 1 630 0
 893 002e 10BD     		pop	{r4, pc}	@
 894              		.cfi_endproc
 895              	.LFE138:
 896              		.size	HAL_SRAM_WriteOperation_Disable, .-HAL_SRAM_WriteOperation_Disable
 897              		.section	.text.HAL_SRAM_GetState,"ax",%progbits
 898              		.align	1
 899              		.global	HAL_SRAM_GetState
 900              		.thumb
 901              		.thumb_func
 902              		.type	HAL_SRAM_GetState, %function
 903              	HAL_SRAM_GetState:
 904              	.LFB139:
 631:../STM32Cube_FW_F4_V1.4.0/Drivers/STM32F4xx_HAL_Driver/Src/stm32f4xx_hal_sram.c **** 
 632:../STM32Cube_FW_F4_V1.4.0/Drivers/STM32F4xx_HAL_Driver/Src/stm32f4xx_hal_sram.c **** /**
 633:../STM32Cube_FW_F4_V1.4.0/Drivers/STM32F4xx_HAL_Driver/Src/stm32f4xx_hal_sram.c ****   * @}
 634:../STM32Cube_FW_F4_V1.4.0/Drivers/STM32F4xx_HAL_Driver/Src/stm32f4xx_hal_sram.c ****   */
 635:../STM32Cube_FW_F4_V1.4.0/Drivers/STM32F4xx_HAL_Driver/Src/stm32f4xx_hal_sram.c **** 
 636:../STM32Cube_FW_F4_V1.4.0/Drivers/STM32F4xx_HAL_Driver/Src/stm32f4xx_hal_sram.c **** /** @defgroup SRAM_Exported_Functions_Group4 State functions 
 637:../STM32Cube_FW_F4_V1.4.0/Drivers/STM32F4xx_HAL_Driver/Src/stm32f4xx_hal_sram.c ****  *  @brief   Peripheral State functions 
 638:../STM32Cube_FW_F4_V1.4.0/Drivers/STM32F4xx_HAL_Driver/Src/stm32f4xx_hal_sram.c ****  *
 639:../STM32Cube_FW_F4_V1.4.0/Drivers/STM32F4xx_HAL_Driver/Src/stm32f4xx_hal_sram.c **** @verbatim   
 640:../STM32Cube_FW_F4_V1.4.0/Drivers/STM32F4xx_HAL_Driver/Src/stm32f4xx_hal_sram.c ****   ==============================================================================
 641:../STM32Cube_FW_F4_V1.4.0/Drivers/STM32F4xx_HAL_Driver/Src/stm32f4xx_hal_sram.c ****                       ##### SRAM State functions #####
 642:../STM32Cube_FW_F4_V1.4.0/Drivers/STM32F4xx_HAL_Driver/Src/stm32f4xx_hal_sram.c ****   ==============================================================================  
 643:../STM32Cube_FW_F4_V1.4.0/Drivers/STM32F4xx_HAL_Driver/Src/stm32f4xx_hal_sram.c ****   [..]
 644:../STM32Cube_FW_F4_V1.4.0/Drivers/STM32F4xx_HAL_Driver/Src/stm32f4xx_hal_sram.c ****     This subsection permits to get in run-time the status of the SRAM controller 
ARM GAS  C:\cygwin\tmp\ccHJheQe.s 			page 29


 645:../STM32Cube_FW_F4_V1.4.0/Drivers/STM32F4xx_HAL_Driver/Src/stm32f4xx_hal_sram.c ****     and the data flow.
 646:../STM32Cube_FW_F4_V1.4.0/Drivers/STM32F4xx_HAL_Driver/Src/stm32f4xx_hal_sram.c **** 
 647:../STM32Cube_FW_F4_V1.4.0/Drivers/STM32F4xx_HAL_Driver/Src/stm32f4xx_hal_sram.c **** @endverbatim
 648:../STM32Cube_FW_F4_V1.4.0/Drivers/STM32F4xx_HAL_Driver/Src/stm32f4xx_hal_sram.c ****   * @{
 649:../STM32Cube_FW_F4_V1.4.0/Drivers/STM32F4xx_HAL_Driver/Src/stm32f4xx_hal_sram.c ****   */
 650:../STM32Cube_FW_F4_V1.4.0/Drivers/STM32F4xx_HAL_Driver/Src/stm32f4xx_hal_sram.c ****   
 651:../STM32Cube_FW_F4_V1.4.0/Drivers/STM32F4xx_HAL_Driver/Src/stm32f4xx_hal_sram.c **** /**
 652:../STM32Cube_FW_F4_V1.4.0/Drivers/STM32F4xx_HAL_Driver/Src/stm32f4xx_hal_sram.c ****   * @brief  Returns the SRAM controller state
 653:../STM32Cube_FW_F4_V1.4.0/Drivers/STM32F4xx_HAL_Driver/Src/stm32f4xx_hal_sram.c ****   * @param  hsram: pointer to a SRAM_HandleTypeDef structure that contains
 654:../STM32Cube_FW_F4_V1.4.0/Drivers/STM32F4xx_HAL_Driver/Src/stm32f4xx_hal_sram.c ****   *                the configuration information for SRAM module.
 655:../STM32Cube_FW_F4_V1.4.0/Drivers/STM32F4xx_HAL_Driver/Src/stm32f4xx_hal_sram.c ****   * @retval HAL state
 656:../STM32Cube_FW_F4_V1.4.0/Drivers/STM32F4xx_HAL_Driver/Src/stm32f4xx_hal_sram.c ****   */
 657:../STM32Cube_FW_F4_V1.4.0/Drivers/STM32F4xx_HAL_Driver/Src/stm32f4xx_hal_sram.c **** HAL_SRAM_StateTypeDef HAL_SRAM_GetState(SRAM_HandleTypeDef *hsram)
 658:../STM32Cube_FW_F4_V1.4.0/Drivers/STM32F4xx_HAL_Driver/Src/stm32f4xx_hal_sram.c **** {
 905              		.loc 1 658 0
 906              		.cfi_startproc
 907              		@ args = 0, pretend = 0, frame = 0
 908              		@ frame_needed = 0, uses_anonymous_args = 0
 909              		@ link register save eliminated.
 910              	.LVL88:
 659:../STM32Cube_FW_F4_V1.4.0/Drivers/STM32F4xx_HAL_Driver/Src/stm32f4xx_hal_sram.c ****   return hsram->State;
 911              		.loc 1 659 0
 912 0000 90F83D00 		ldrb	r0, [r0, #61]	@ zero_extendqisi2	@ hsram_2(D)->State, hsram_2(D)->State
 913              	.LVL89:
 660:../STM32Cube_FW_F4_V1.4.0/Drivers/STM32F4xx_HAL_Driver/Src/stm32f4xx_hal_sram.c **** }
 914              		.loc 1 660 0
 915 0004 7047     		bx	lr	@
 916              		.cfi_endproc
 917              	.LFE139:
 918              		.size	HAL_SRAM_GetState, .-HAL_SRAM_GetState
 919              		.text
 920              	.Letext0:
 921              		.file 2 "c:\\program files\\gnu tools arm embedded\\4.9 2014q4\\arm-none-eabi\\include\\machine\\_
 922              		.file 3 "c:\\program files\\gnu tools arm embedded\\4.9 2014q4\\arm-none-eabi\\include\\stdint.h"
 923              		.file 4 "../STM32Cube_FW_F4_V1.4.0/Drivers/CMSIS/Device/ST/STM32F4xx/Include/stm32f407xx.h"
 924              		.file 5 "../STM32Cube_FW_F4_V1.4.0/Drivers/STM32F4xx_HAL_Driver/Inc/stm32f4xx_hal_def.h"
 925              		.file 6 "../STM32Cube_FW_F4_V1.4.0/Drivers/STM32F4xx_HAL_Driver/Inc/stm32f4xx_hal_dma.h"
 926              		.file 7 "../STM32Cube_FW_F4_V1.4.0/Drivers/STM32F4xx_HAL_Driver/Inc/stm32f4xx_ll_fsmc.h"
 927              		.file 8 "../STM32Cube_FW_F4_V1.4.0/Drivers/STM32F4xx_HAL_Driver/Inc/stm32f4xx_hal_sram.h"
 928              		.file 9 "../STM32Cube_FW_F4_V1.4.0/Drivers/CMSIS/Include/core_cm4.h"