ARM GAS  C:\cygwin\tmp\ccxydAnz.s 			page 1


   1              		.syntax unified
   2              		.cpu cortex-m4
   3              		.fpu softvfp
   4              		.eabi_attribute 20, 1	@ Tag_ABI_FP_denormal
   5              		.eabi_attribute 21, 1	@ Tag_ABI_FP_exceptions
   6              		.eabi_attribute 23, 3	@ Tag_ABI_FP_number_model
   7              		.eabi_attribute 24, 1	@ Tag_ABI_align8_needed
   8              		.eabi_attribute 25, 1	@ Tag_ABI_align8_preserved
   9              		.eabi_attribute 26, 1	@ Tag_ABI_enum_size
  10              		.eabi_attribute 30, 4	@ Tag_ABI_optimization_goals
  11              		.eabi_attribute 34, 1	@ Tag_CPU_unaligned_access
  12              		.eabi_attribute 18, 4	@ Tag_ABI_PCS_wchar_t
  13              		.file	"stm32f4xx_hal.c"
  14              	@ GNU C (GNU Tools for ARM Embedded Processors) version 4.9.3 20141119 (release) [ARM/embedded-4_9-
  15              	@	compiled by GNU C version 4.7.4, GMP version 4.3.2, MPFR version 2.4.2, MPC version 0.8.1
  16              	@ GGC heuristics: --param ggc-min-expand=100 --param ggc-min-heapsize=131072
  17              	@ options passed:  -I . -I Inc -I gui -I emWin -I emWin/config
  18              	@ -I ../STM32Cube_FW_F4_V1.4.0/Drivers/CMSIS/Include
  19              	@ -I ../STM32Cube_FW_F4_V1.4.0/Drivers/CMSIS/Device/ST/STM32F4xx/Include
  20              	@ -I ../STM32Cube_FW_F4_V1.4.0/Drivers/STM32F4xx_HAL_Driver/Inc
  21              	@ -I ../STM32Cube_FW_F4_V1.4.0/Drivers/CMSIS/Include
  22              	@ -I ../STM32Cube_FW_F4_V1.4.0/Middlewares/ST/STemWin/inc
  23              	@ -I .drivers/modbus -I ./drivers/display -imultilib armv7e-m
  24              	@ -iprefix c:\program files\gnu tools arm embedded\4.9 2014q4\bin\../lib/gcc/arm-none-eabi/4.9.3/
  25              	@ -isysroot c:\program files\gnu tools arm embedded\4.9 2014q4\bin\../arm-none-eabi
  26              	@ -MD out/stm32f4xx_hal.d -MF out/stm32f4xx_hal.d -MP
  27              	@ -MQ out/stm32f4xx_hal.o -D__USES_INITFINI__ -D USE_HAL_DRIVER
  28              	@ -D STM32F4XX -D HSE_VALUE=8000000 -D __STARTUP_CLEAR_BSS -D STM32F407VG
  29              	@ -D USE_FULL_ASSERT -D __FPU_USED
  30              	@ ../STM32Cube_FW_F4_V1.4.0/Drivers/STM32F4xx_HAL_Driver/Src/stm32f4xx_hal.c
  31              	@ -mcpu=cortex-m4 -mthumb -auxbase-strip out/stm32f4xx_hal.o -g -ggdb3 -Os
  32              	@ -Os -Wall -Wstrict-prototypes -Wextra -std=gnu90 -ffunction-sections
  33              	@ -fdata-sections -fverbose-asm
  34              	@ options enabled:  -faggressive-loop-optimizations -fauto-inc-dec
  35              	@ -fbranch-count-reg -fcaller-saves -fcombine-stack-adjustments -fcommon
  36              	@ -fcompare-elim -fcprop-registers -fcrossjumping -fcse-follow-jumps
  37              	@ -fdata-sections -fdefer-pop -fdelete-null-pointer-checks -fdevirtualize
  38              	@ -fdevirtualize-speculatively -fdwarf2-cfi-asm -fearly-inlining
  39              	@ -feliminate-unused-debug-types -fexpensive-optimizations
  40              	@ -fforward-propagate -ffunction-cse -ffunction-sections -fgcse -fgcse-lm
  41              	@ -fgnu-runtime -fgnu-unique -fguess-branch-probability
  42              	@ -fhoist-adjacent-loads -fident -fif-conversion -fif-conversion2
  43              	@ -findirect-inlining -finline -finline-atomics -finline-functions
  44              	@ -finline-functions-called-once -finline-small-functions -fipa-cp
  45              	@ -fipa-profile -fipa-pure-const -fipa-reference -fipa-sra
  46              	@ -fira-hoist-pressure -fira-share-save-slots -fira-share-spill-slots
  47              	@ -fisolate-erroneous-paths-dereference -fivopts -fkeep-static-consts
  48              	@ -fleading-underscore -fmath-errno -fmerge-constants -fmerge-debug-strings
  49              	@ -fomit-frame-pointer -foptimize-sibling-calls -fpartial-inlining
  50              	@ -fpeephole -fpeephole2 -fprefetch-loop-arrays -freg-struct-return
  51              	@ -freorder-blocks -freorder-functions -frerun-cse-after-loop
  52              	@ -fsched-critical-path-heuristic -fsched-dep-count-heuristic
  53              	@ -fsched-group-heuristic -fsched-interblock -fsched-last-insn-heuristic
  54              	@ -fsched-pressure -fsched-rank-heuristic -fsched-spec
  55              	@ -fsched-spec-insn-heuristic -fsched-stalled-insns-dep -fschedule-insns2
  56              	@ -fsection-anchors -fshow-column -fsigned-zeros -fsplit-ivs-in-unroller
  57              	@ -fsplit-wide-types -fstrict-aliasing -fstrict-overflow
ARM GAS  C:\cygwin\tmp\ccxydAnz.s 			page 2


  58              	@ -fstrict-volatile-bitfields -fsync-libcalls -fthread-jumps
  59              	@ -ftoplevel-reorder -ftrapping-math -ftree-bit-ccp -ftree-builtin-call-dce
  60              	@ -ftree-ccp -ftree-ch -ftree-coalesce-vars -ftree-copy-prop
  61              	@ -ftree-copyrename -ftree-cselim -ftree-dce -ftree-dominator-opts
  62              	@ -ftree-dse -ftree-forwprop -ftree-fre -ftree-loop-if-convert
  63              	@ -ftree-loop-im -ftree-loop-ivcanon -ftree-loop-optimize
  64              	@ -ftree-parallelize-loops= -ftree-phiprop -ftree-pre -ftree-pta
  65              	@ -ftree-reassoc -ftree-scev-cprop -ftree-sink -ftree-slsr -ftree-sra
  66              	@ -ftree-switch-conversion -ftree-tail-merge -ftree-ter -ftree-vrp
  67              	@ -funit-at-a-time -fvar-tracking -fvar-tracking-assignments -fverbose-asm
  68              	@ -fzero-initialized-in-bss -mlittle-endian -mlra
  69              	@ -mpic-data-is-text-relative -msched-prolog -mthumb -munaligned-access
  70              	@ -mvectorize-with-neon-quad
  71              	
  72              		.text
  73              	.Ltext0:
  74              		.cfi_sections	.debug_frame
  75              		.section	.text.HAL_MspInit,"ax",%progbits
  76              		.align	1
  77              		.weak	HAL_MspInit
  78              		.thumb
  79              		.thumb_func
  80              		.type	HAL_MspInit, %function
  81              	HAL_MspInit:
  82              	.LFB125:
  83              		.file 1 "../STM32Cube_FW_F4_V1.4.0/Drivers/STM32F4xx_HAL_Driver/Src/stm32f4xx_hal.c"
   1:../STM32Cube_FW_F4_V1.4.0/Drivers/STM32F4xx_HAL_Driver/Src/stm32f4xx_hal.c **** /**
   2:../STM32Cube_FW_F4_V1.4.0/Drivers/STM32F4xx_HAL_Driver/Src/stm32f4xx_hal.c ****   ******************************************************************************
   3:../STM32Cube_FW_F4_V1.4.0/Drivers/STM32F4xx_HAL_Driver/Src/stm32f4xx_hal.c ****   * @file    stm32f4xx_hal.c
   4:../STM32Cube_FW_F4_V1.4.0/Drivers/STM32F4xx_HAL_Driver/Src/stm32f4xx_hal.c ****   * @author  MCD Application Team
   5:../STM32Cube_FW_F4_V1.4.0/Drivers/STM32F4xx_HAL_Driver/Src/stm32f4xx_hal.c ****   * @version V1.2.0
   6:../STM32Cube_FW_F4_V1.4.0/Drivers/STM32F4xx_HAL_Driver/Src/stm32f4xx_hal.c ****   * @date    26-December-2014
   7:../STM32Cube_FW_F4_V1.4.0/Drivers/STM32F4xx_HAL_Driver/Src/stm32f4xx_hal.c ****   * @brief   HAL module driver.
   8:../STM32Cube_FW_F4_V1.4.0/Drivers/STM32F4xx_HAL_Driver/Src/stm32f4xx_hal.c ****   *          This is the common part of the HAL initialization
   9:../STM32Cube_FW_F4_V1.4.0/Drivers/STM32F4xx_HAL_Driver/Src/stm32f4xx_hal.c ****   *
  10:../STM32Cube_FW_F4_V1.4.0/Drivers/STM32F4xx_HAL_Driver/Src/stm32f4xx_hal.c ****   @verbatim
  11:../STM32Cube_FW_F4_V1.4.0/Drivers/STM32F4xx_HAL_Driver/Src/stm32f4xx_hal.c ****   ==============================================================================
  12:../STM32Cube_FW_F4_V1.4.0/Drivers/STM32F4xx_HAL_Driver/Src/stm32f4xx_hal.c ****                      ##### How to use this driver #####
  13:../STM32Cube_FW_F4_V1.4.0/Drivers/STM32F4xx_HAL_Driver/Src/stm32f4xx_hal.c ****   ==============================================================================
  14:../STM32Cube_FW_F4_V1.4.0/Drivers/STM32F4xx_HAL_Driver/Src/stm32f4xx_hal.c ****     [..]
  15:../STM32Cube_FW_F4_V1.4.0/Drivers/STM32F4xx_HAL_Driver/Src/stm32f4xx_hal.c ****     The common HAL driver contains a set of generic and common APIs that can be
  16:../STM32Cube_FW_F4_V1.4.0/Drivers/STM32F4xx_HAL_Driver/Src/stm32f4xx_hal.c ****     used by the PPP peripheral drivers and the user to start using the HAL. 
  17:../STM32Cube_FW_F4_V1.4.0/Drivers/STM32F4xx_HAL_Driver/Src/stm32f4xx_hal.c ****     [..]
  18:../STM32Cube_FW_F4_V1.4.0/Drivers/STM32F4xx_HAL_Driver/Src/stm32f4xx_hal.c ****     The HAL contains two APIs' categories: 
  19:../STM32Cube_FW_F4_V1.4.0/Drivers/STM32F4xx_HAL_Driver/Src/stm32f4xx_hal.c ****          (+) Common HAL APIs
  20:../STM32Cube_FW_F4_V1.4.0/Drivers/STM32F4xx_HAL_Driver/Src/stm32f4xx_hal.c ****          (+) Services HAL APIs
  21:../STM32Cube_FW_F4_V1.4.0/Drivers/STM32F4xx_HAL_Driver/Src/stm32f4xx_hal.c **** 
  22:../STM32Cube_FW_F4_V1.4.0/Drivers/STM32F4xx_HAL_Driver/Src/stm32f4xx_hal.c ****   @endverbatim
  23:../STM32Cube_FW_F4_V1.4.0/Drivers/STM32F4xx_HAL_Driver/Src/stm32f4xx_hal.c ****   ******************************************************************************
  24:../STM32Cube_FW_F4_V1.4.0/Drivers/STM32F4xx_HAL_Driver/Src/stm32f4xx_hal.c ****   * @attention
  25:../STM32Cube_FW_F4_V1.4.0/Drivers/STM32F4xx_HAL_Driver/Src/stm32f4xx_hal.c ****   *
  26:../STM32Cube_FW_F4_V1.4.0/Drivers/STM32F4xx_HAL_Driver/Src/stm32f4xx_hal.c ****   * <h2><center>&copy; COPYRIGHT(c) 2014 STMicroelectronics</center></h2>
  27:../STM32Cube_FW_F4_V1.4.0/Drivers/STM32F4xx_HAL_Driver/Src/stm32f4xx_hal.c ****   *
  28:../STM32Cube_FW_F4_V1.4.0/Drivers/STM32F4xx_HAL_Driver/Src/stm32f4xx_hal.c ****   * Redistribution and use in source and binary forms, with or without modification,
  29:../STM32Cube_FW_F4_V1.4.0/Drivers/STM32F4xx_HAL_Driver/Src/stm32f4xx_hal.c ****   * are permitted provided that the following conditions are met:
  30:../STM32Cube_FW_F4_V1.4.0/Drivers/STM32F4xx_HAL_Driver/Src/stm32f4xx_hal.c ****   *   1. Redistributions of source code must retain the above copyright notice,
  31:../STM32Cube_FW_F4_V1.4.0/Drivers/STM32F4xx_HAL_Driver/Src/stm32f4xx_hal.c ****   *      this list of conditions and the following disclaimer.
ARM GAS  C:\cygwin\tmp\ccxydAnz.s 			page 3


  32:../STM32Cube_FW_F4_V1.4.0/Drivers/STM32F4xx_HAL_Driver/Src/stm32f4xx_hal.c ****   *   2. Redistributions in binary form must reproduce the above copyright notice,
  33:../STM32Cube_FW_F4_V1.4.0/Drivers/STM32F4xx_HAL_Driver/Src/stm32f4xx_hal.c ****   *      this list of conditions and the following disclaimer in the documentation
  34:../STM32Cube_FW_F4_V1.4.0/Drivers/STM32F4xx_HAL_Driver/Src/stm32f4xx_hal.c ****   *      and/or other materials provided with the distribution.
  35:../STM32Cube_FW_F4_V1.4.0/Drivers/STM32F4xx_HAL_Driver/Src/stm32f4xx_hal.c ****   *   3. Neither the name of STMicroelectronics nor the names of its contributors
  36:../STM32Cube_FW_F4_V1.4.0/Drivers/STM32F4xx_HAL_Driver/Src/stm32f4xx_hal.c ****   *      may be used to endorse or promote products derived from this software
  37:../STM32Cube_FW_F4_V1.4.0/Drivers/STM32F4xx_HAL_Driver/Src/stm32f4xx_hal.c ****   *      without specific prior written permission.
  38:../STM32Cube_FW_F4_V1.4.0/Drivers/STM32F4xx_HAL_Driver/Src/stm32f4xx_hal.c ****   *
  39:../STM32Cube_FW_F4_V1.4.0/Drivers/STM32F4xx_HAL_Driver/Src/stm32f4xx_hal.c ****   * THIS SOFTWARE IS PROVIDED BY THE COPYRIGHT HOLDERS AND CONTRIBUTORS "AS IS"
  40:../STM32Cube_FW_F4_V1.4.0/Drivers/STM32F4xx_HAL_Driver/Src/stm32f4xx_hal.c ****   * AND ANY EXPRESS OR IMPLIED WARRANTIES, INCLUDING, BUT NOT LIMITED TO, THE
  41:../STM32Cube_FW_F4_V1.4.0/Drivers/STM32F4xx_HAL_Driver/Src/stm32f4xx_hal.c ****   * IMPLIED WARRANTIES OF MERCHANTABILITY AND FITNESS FOR A PARTICULAR PURPOSE ARE
  42:../STM32Cube_FW_F4_V1.4.0/Drivers/STM32F4xx_HAL_Driver/Src/stm32f4xx_hal.c ****   * DISCLAIMED. IN NO EVENT SHALL THE COPYRIGHT HOLDER OR CONTRIBUTORS BE LIABLE
  43:../STM32Cube_FW_F4_V1.4.0/Drivers/STM32F4xx_HAL_Driver/Src/stm32f4xx_hal.c ****   * FOR ANY DIRECT, INDIRECT, INCIDENTAL, SPECIAL, EXEMPLARY, OR CONSEQUENTIAL
  44:../STM32Cube_FW_F4_V1.4.0/Drivers/STM32F4xx_HAL_Driver/Src/stm32f4xx_hal.c ****   * DAMAGES (INCLUDING, BUT NOT LIMITED TO, PROCUREMENT OF SUBSTITUTE GOODS OR
  45:../STM32Cube_FW_F4_V1.4.0/Drivers/STM32F4xx_HAL_Driver/Src/stm32f4xx_hal.c ****   * SERVICES; LOSS OF USE, DATA, OR PROFITS; OR BUSINESS INTERRUPTION) HOWEVER
  46:../STM32Cube_FW_F4_V1.4.0/Drivers/STM32F4xx_HAL_Driver/Src/stm32f4xx_hal.c ****   * CAUSED AND ON ANY THEORY OF LIABILITY, WHETHER IN CONTRACT, STRICT LIABILITY,
  47:../STM32Cube_FW_F4_V1.4.0/Drivers/STM32F4xx_HAL_Driver/Src/stm32f4xx_hal.c ****   * OR TORT (INCLUDING NEGLIGENCE OR OTHERWISE) ARISING IN ANY WAY OUT OF THE USE
  48:../STM32Cube_FW_F4_V1.4.0/Drivers/STM32F4xx_HAL_Driver/Src/stm32f4xx_hal.c ****   * OF THIS SOFTWARE, EVEN IF ADVISED OF THE POSSIBILITY OF SUCH DAMAGE.
  49:../STM32Cube_FW_F4_V1.4.0/Drivers/STM32F4xx_HAL_Driver/Src/stm32f4xx_hal.c ****   *
  50:../STM32Cube_FW_F4_V1.4.0/Drivers/STM32F4xx_HAL_Driver/Src/stm32f4xx_hal.c ****   ******************************************************************************
  51:../STM32Cube_FW_F4_V1.4.0/Drivers/STM32F4xx_HAL_Driver/Src/stm32f4xx_hal.c ****   */ 
  52:../STM32Cube_FW_F4_V1.4.0/Drivers/STM32F4xx_HAL_Driver/Src/stm32f4xx_hal.c **** 
  53:../STM32Cube_FW_F4_V1.4.0/Drivers/STM32F4xx_HAL_Driver/Src/stm32f4xx_hal.c **** /* Includes ------------------------------------------------------------------*/
  54:../STM32Cube_FW_F4_V1.4.0/Drivers/STM32F4xx_HAL_Driver/Src/stm32f4xx_hal.c **** #include "stm32f4xx_hal.h"
  55:../STM32Cube_FW_F4_V1.4.0/Drivers/STM32F4xx_HAL_Driver/Src/stm32f4xx_hal.c **** 
  56:../STM32Cube_FW_F4_V1.4.0/Drivers/STM32F4xx_HAL_Driver/Src/stm32f4xx_hal.c **** /** @addtogroup STM32F4xx_HAL_Driver
  57:../STM32Cube_FW_F4_V1.4.0/Drivers/STM32F4xx_HAL_Driver/Src/stm32f4xx_hal.c ****   * @{
  58:../STM32Cube_FW_F4_V1.4.0/Drivers/STM32F4xx_HAL_Driver/Src/stm32f4xx_hal.c ****   */
  59:../STM32Cube_FW_F4_V1.4.0/Drivers/STM32F4xx_HAL_Driver/Src/stm32f4xx_hal.c **** 
  60:../STM32Cube_FW_F4_V1.4.0/Drivers/STM32F4xx_HAL_Driver/Src/stm32f4xx_hal.c **** /** @defgroup HAL HAL
  61:../STM32Cube_FW_F4_V1.4.0/Drivers/STM32F4xx_HAL_Driver/Src/stm32f4xx_hal.c ****   * @brief HAL module driver.
  62:../STM32Cube_FW_F4_V1.4.0/Drivers/STM32F4xx_HAL_Driver/Src/stm32f4xx_hal.c ****   * @{
  63:../STM32Cube_FW_F4_V1.4.0/Drivers/STM32F4xx_HAL_Driver/Src/stm32f4xx_hal.c ****   */
  64:../STM32Cube_FW_F4_V1.4.0/Drivers/STM32F4xx_HAL_Driver/Src/stm32f4xx_hal.c **** 
  65:../STM32Cube_FW_F4_V1.4.0/Drivers/STM32F4xx_HAL_Driver/Src/stm32f4xx_hal.c **** /* Private typedef -----------------------------------------------------------*/
  66:../STM32Cube_FW_F4_V1.4.0/Drivers/STM32F4xx_HAL_Driver/Src/stm32f4xx_hal.c **** /* Private define ------------------------------------------------------------*/
  67:../STM32Cube_FW_F4_V1.4.0/Drivers/STM32F4xx_HAL_Driver/Src/stm32f4xx_hal.c **** /** @addtogroup HAL_Private_Constants
  68:../STM32Cube_FW_F4_V1.4.0/Drivers/STM32F4xx_HAL_Driver/Src/stm32f4xx_hal.c ****   * @{
  69:../STM32Cube_FW_F4_V1.4.0/Drivers/STM32F4xx_HAL_Driver/Src/stm32f4xx_hal.c ****   */
  70:../STM32Cube_FW_F4_V1.4.0/Drivers/STM32F4xx_HAL_Driver/Src/stm32f4xx_hal.c **** /**
  71:../STM32Cube_FW_F4_V1.4.0/Drivers/STM32F4xx_HAL_Driver/Src/stm32f4xx_hal.c ****   * @brief STM32F4xx HAL Driver version number V1.2.0
  72:../STM32Cube_FW_F4_V1.4.0/Drivers/STM32F4xx_HAL_Driver/Src/stm32f4xx_hal.c ****   */
  73:../STM32Cube_FW_F4_V1.4.0/Drivers/STM32F4xx_HAL_Driver/Src/stm32f4xx_hal.c **** #define __STM32F4xx_HAL_VERSION_MAIN   (0x01) /*!< [31:24] main version */
  74:../STM32Cube_FW_F4_V1.4.0/Drivers/STM32F4xx_HAL_Driver/Src/stm32f4xx_hal.c **** #define __STM32F4xx_HAL_VERSION_SUB1   (0x02) /*!< [23:16] sub1 version */
  75:../STM32Cube_FW_F4_V1.4.0/Drivers/STM32F4xx_HAL_Driver/Src/stm32f4xx_hal.c **** #define __STM32F4xx_HAL_VERSION_SUB2   (0x00) /*!< [15:8]  sub2 version */
  76:../STM32Cube_FW_F4_V1.4.0/Drivers/STM32F4xx_HAL_Driver/Src/stm32f4xx_hal.c **** #define __STM32F4xx_HAL_VERSION_RC     (0x00) /*!< [7:0]  release candidate */ 
  77:../STM32Cube_FW_F4_V1.4.0/Drivers/STM32F4xx_HAL_Driver/Src/stm32f4xx_hal.c **** #define __STM32F4xx_HAL_VERSION         ((__STM32F4xx_HAL_VERSION_MAIN << 24)\
  78:../STM32Cube_FW_F4_V1.4.0/Drivers/STM32F4xx_HAL_Driver/Src/stm32f4xx_hal.c ****                                         |(__STM32F4xx_HAL_VERSION_SUB1 << 16)\
  79:../STM32Cube_FW_F4_V1.4.0/Drivers/STM32F4xx_HAL_Driver/Src/stm32f4xx_hal.c ****                                         |(__STM32F4xx_HAL_VERSION_SUB2 << 8 )\
  80:../STM32Cube_FW_F4_V1.4.0/Drivers/STM32F4xx_HAL_Driver/Src/stm32f4xx_hal.c ****                                         |(__STM32F4xx_HAL_VERSION_RC))
  81:../STM32Cube_FW_F4_V1.4.0/Drivers/STM32F4xx_HAL_Driver/Src/stm32f4xx_hal.c ****                                         
  82:../STM32Cube_FW_F4_V1.4.0/Drivers/STM32F4xx_HAL_Driver/Src/stm32f4xx_hal.c **** #define IDCODE_DEVID_MASK    ((uint32_t)0x00000FFF)
  83:../STM32Cube_FW_F4_V1.4.0/Drivers/STM32F4xx_HAL_Driver/Src/stm32f4xx_hal.c **** 
  84:../STM32Cube_FW_F4_V1.4.0/Drivers/STM32F4xx_HAL_Driver/Src/stm32f4xx_hal.c **** /* ------------ RCC registers bit address in the alias region ----------- */
  85:../STM32Cube_FW_F4_V1.4.0/Drivers/STM32F4xx_HAL_Driver/Src/stm32f4xx_hal.c **** #define SYSCFG_OFFSET             (SYSCFG_BASE - PERIPH_BASE)
  86:../STM32Cube_FW_F4_V1.4.0/Drivers/STM32F4xx_HAL_Driver/Src/stm32f4xx_hal.c **** /* ---  MEMRMP Register ---*/ 
  87:../STM32Cube_FW_F4_V1.4.0/Drivers/STM32F4xx_HAL_Driver/Src/stm32f4xx_hal.c **** /* Alias word address of UFB_MODE bit */ 
  88:../STM32Cube_FW_F4_V1.4.0/Drivers/STM32F4xx_HAL_Driver/Src/stm32f4xx_hal.c **** #define MEMRMP_OFFSET             SYSCFG_OFFSET 
ARM GAS  C:\cygwin\tmp\ccxydAnz.s 			page 4


  89:../STM32Cube_FW_F4_V1.4.0/Drivers/STM32F4xx_HAL_Driver/Src/stm32f4xx_hal.c **** #define UFB_MODE_BIT_NUMBER       POSITION_VAL(SYSCFG_MEMRMP_UFB_MODE)
  90:../STM32Cube_FW_F4_V1.4.0/Drivers/STM32F4xx_HAL_Driver/Src/stm32f4xx_hal.c **** #define UFB_MODE_BB               (PERIPH_BB_BASE + (MEMRMP_OFFSET * 32) + (UFB_MODE_BIT_NUMBER * 4
  91:../STM32Cube_FW_F4_V1.4.0/Drivers/STM32F4xx_HAL_Driver/Src/stm32f4xx_hal.c **** 
  92:../STM32Cube_FW_F4_V1.4.0/Drivers/STM32F4xx_HAL_Driver/Src/stm32f4xx_hal.c **** /* ---  CMPCR Register ---*/ 
  93:../STM32Cube_FW_F4_V1.4.0/Drivers/STM32F4xx_HAL_Driver/Src/stm32f4xx_hal.c **** /* Alias word address of CMP_PD bit */ 
  94:../STM32Cube_FW_F4_V1.4.0/Drivers/STM32F4xx_HAL_Driver/Src/stm32f4xx_hal.c **** #define CMPCR_OFFSET              (SYSCFG_OFFSET + 0x20) 
  95:../STM32Cube_FW_F4_V1.4.0/Drivers/STM32F4xx_HAL_Driver/Src/stm32f4xx_hal.c **** #define CMP_PD_BIT_NUMBER         POSITION_VAL(SYSCFG_CMPCR_CMP_PD)
  96:../STM32Cube_FW_F4_V1.4.0/Drivers/STM32F4xx_HAL_Driver/Src/stm32f4xx_hal.c **** #define CMPCR_CMP_PD_BB           (PERIPH_BB_BASE + (CMPCR_OFFSET * 32) + (CMP_PD_BIT_NUMBER * 4))
  97:../STM32Cube_FW_F4_V1.4.0/Drivers/STM32F4xx_HAL_Driver/Src/stm32f4xx_hal.c **** /**
  98:../STM32Cube_FW_F4_V1.4.0/Drivers/STM32F4xx_HAL_Driver/Src/stm32f4xx_hal.c ****   * @}
  99:../STM32Cube_FW_F4_V1.4.0/Drivers/STM32F4xx_HAL_Driver/Src/stm32f4xx_hal.c ****   */
 100:../STM32Cube_FW_F4_V1.4.0/Drivers/STM32F4xx_HAL_Driver/Src/stm32f4xx_hal.c **** 
 101:../STM32Cube_FW_F4_V1.4.0/Drivers/STM32F4xx_HAL_Driver/Src/stm32f4xx_hal.c **** /* Private macro -------------------------------------------------------------*/
 102:../STM32Cube_FW_F4_V1.4.0/Drivers/STM32F4xx_HAL_Driver/Src/stm32f4xx_hal.c **** /* Private variables ---------------------------------------------------------*/
 103:../STM32Cube_FW_F4_V1.4.0/Drivers/STM32F4xx_HAL_Driver/Src/stm32f4xx_hal.c **** /** @addtogroup HAL_Private_Variables
 104:../STM32Cube_FW_F4_V1.4.0/Drivers/STM32F4xx_HAL_Driver/Src/stm32f4xx_hal.c ****   * @{
 105:../STM32Cube_FW_F4_V1.4.0/Drivers/STM32F4xx_HAL_Driver/Src/stm32f4xx_hal.c ****   */
 106:../STM32Cube_FW_F4_V1.4.0/Drivers/STM32F4xx_HAL_Driver/Src/stm32f4xx_hal.c **** static __IO uint32_t uwTick;
 107:../STM32Cube_FW_F4_V1.4.0/Drivers/STM32F4xx_HAL_Driver/Src/stm32f4xx_hal.c **** /**
 108:../STM32Cube_FW_F4_V1.4.0/Drivers/STM32F4xx_HAL_Driver/Src/stm32f4xx_hal.c ****   * @}
 109:../STM32Cube_FW_F4_V1.4.0/Drivers/STM32F4xx_HAL_Driver/Src/stm32f4xx_hal.c ****   */
 110:../STM32Cube_FW_F4_V1.4.0/Drivers/STM32F4xx_HAL_Driver/Src/stm32f4xx_hal.c **** /* Private function prototypes -----------------------------------------------*/
 111:../STM32Cube_FW_F4_V1.4.0/Drivers/STM32F4xx_HAL_Driver/Src/stm32f4xx_hal.c **** /* Private functions ---------------------------------------------------------*/
 112:../STM32Cube_FW_F4_V1.4.0/Drivers/STM32F4xx_HAL_Driver/Src/stm32f4xx_hal.c **** 
 113:../STM32Cube_FW_F4_V1.4.0/Drivers/STM32F4xx_HAL_Driver/Src/stm32f4xx_hal.c **** /** @defgroup HAL_Exported_Functions HAL Exported Functions
 114:../STM32Cube_FW_F4_V1.4.0/Drivers/STM32F4xx_HAL_Driver/Src/stm32f4xx_hal.c ****   * @{
 115:../STM32Cube_FW_F4_V1.4.0/Drivers/STM32F4xx_HAL_Driver/Src/stm32f4xx_hal.c ****   */
 116:../STM32Cube_FW_F4_V1.4.0/Drivers/STM32F4xx_HAL_Driver/Src/stm32f4xx_hal.c **** 
 117:../STM32Cube_FW_F4_V1.4.0/Drivers/STM32F4xx_HAL_Driver/Src/stm32f4xx_hal.c **** /** @defgroup HAL_Exported_Functions_Group1 Initialization and de-initialization Functions 
 118:../STM32Cube_FW_F4_V1.4.0/Drivers/STM32F4xx_HAL_Driver/Src/stm32f4xx_hal.c ****  *  @brief    Initialization and de-initialization functions
 119:../STM32Cube_FW_F4_V1.4.0/Drivers/STM32F4xx_HAL_Driver/Src/stm32f4xx_hal.c ****  *
 120:../STM32Cube_FW_F4_V1.4.0/Drivers/STM32F4xx_HAL_Driver/Src/stm32f4xx_hal.c **** @verbatim    
 121:../STM32Cube_FW_F4_V1.4.0/Drivers/STM32F4xx_HAL_Driver/Src/stm32f4xx_hal.c ****  ===============================================================================
 122:../STM32Cube_FW_F4_V1.4.0/Drivers/STM32F4xx_HAL_Driver/Src/stm32f4xx_hal.c ****               ##### Initialization and de-initialization functions #####
 123:../STM32Cube_FW_F4_V1.4.0/Drivers/STM32F4xx_HAL_Driver/Src/stm32f4xx_hal.c ****  ===============================================================================
 124:../STM32Cube_FW_F4_V1.4.0/Drivers/STM32F4xx_HAL_Driver/Src/stm32f4xx_hal.c ****     [..]  This section provides functions allowing to:
 125:../STM32Cube_FW_F4_V1.4.0/Drivers/STM32F4xx_HAL_Driver/Src/stm32f4xx_hal.c ****       (+) Initializes the Flash interface the NVIC allocation and initial clock 
 126:../STM32Cube_FW_F4_V1.4.0/Drivers/STM32F4xx_HAL_Driver/Src/stm32f4xx_hal.c ****           configuration. It initializes the systick also when timeout is needed 
 127:../STM32Cube_FW_F4_V1.4.0/Drivers/STM32F4xx_HAL_Driver/Src/stm32f4xx_hal.c ****           and the backup domain when enabled.
 128:../STM32Cube_FW_F4_V1.4.0/Drivers/STM32F4xx_HAL_Driver/Src/stm32f4xx_hal.c ****       (+) de-Initializes common part of the HAL
 129:../STM32Cube_FW_F4_V1.4.0/Drivers/STM32F4xx_HAL_Driver/Src/stm32f4xx_hal.c ****       (+) Configure The time base source to have 1ms time base with a dedicated 
 130:../STM32Cube_FW_F4_V1.4.0/Drivers/STM32F4xx_HAL_Driver/Src/stm32f4xx_hal.c ****           Tick interrupt priority. 
 131:../STM32Cube_FW_F4_V1.4.0/Drivers/STM32F4xx_HAL_Driver/Src/stm32f4xx_hal.c ****         (++) Systick timer is used by default as source of time base, but user 
 132:../STM32Cube_FW_F4_V1.4.0/Drivers/STM32F4xx_HAL_Driver/Src/stm32f4xx_hal.c ****              can eventually implement his proper time base source (a general purpose 
 133:../STM32Cube_FW_F4_V1.4.0/Drivers/STM32F4xx_HAL_Driver/Src/stm32f4xx_hal.c ****              timer for example or other time source), keeping in mind that Time base 
 134:../STM32Cube_FW_F4_V1.4.0/Drivers/STM32F4xx_HAL_Driver/Src/stm32f4xx_hal.c ****              duration should be kept 1ms since PPP_TIMEOUT_VALUEs are defined and 
 135:../STM32Cube_FW_F4_V1.4.0/Drivers/STM32F4xx_HAL_Driver/Src/stm32f4xx_hal.c ****              handled in milliseconds basis.
 136:../STM32Cube_FW_F4_V1.4.0/Drivers/STM32F4xx_HAL_Driver/Src/stm32f4xx_hal.c ****         (++) Time base configuration function (HAL_InitTick ()) is called automatically 
 137:../STM32Cube_FW_F4_V1.4.0/Drivers/STM32F4xx_HAL_Driver/Src/stm32f4xx_hal.c ****              at the beginning of the program after reset by HAL_Init() or at any time 
 138:../STM32Cube_FW_F4_V1.4.0/Drivers/STM32F4xx_HAL_Driver/Src/stm32f4xx_hal.c ****              when clock is configured, by HAL_RCC_ClockConfig(). 
 139:../STM32Cube_FW_F4_V1.4.0/Drivers/STM32F4xx_HAL_Driver/Src/stm32f4xx_hal.c ****         (++) Source of time base is configured  to generate interrupts at regular 
 140:../STM32Cube_FW_F4_V1.4.0/Drivers/STM32F4xx_HAL_Driver/Src/stm32f4xx_hal.c ****              time intervals. Care must be taken if HAL_Delay() is called from a 
 141:../STM32Cube_FW_F4_V1.4.0/Drivers/STM32F4xx_HAL_Driver/Src/stm32f4xx_hal.c ****              peripheral ISR process, the Tick interrupt line must have higher priority 
 142:../STM32Cube_FW_F4_V1.4.0/Drivers/STM32F4xx_HAL_Driver/Src/stm32f4xx_hal.c ****             (numerically lower) than the peripheral interrupt. Otherwise the caller 
 143:../STM32Cube_FW_F4_V1.4.0/Drivers/STM32F4xx_HAL_Driver/Src/stm32f4xx_hal.c ****             ISR process will be blocked. 
 144:../STM32Cube_FW_F4_V1.4.0/Drivers/STM32F4xx_HAL_Driver/Src/stm32f4xx_hal.c ****        (++) functions affecting time base configurations are declared as __weak  
 145:../STM32Cube_FW_F4_V1.4.0/Drivers/STM32F4xx_HAL_Driver/Src/stm32f4xx_hal.c ****              to make  override possible  in case of other  implementations in user file.
ARM GAS  C:\cygwin\tmp\ccxydAnz.s 			page 5


 146:../STM32Cube_FW_F4_V1.4.0/Drivers/STM32F4xx_HAL_Driver/Src/stm32f4xx_hal.c **** @endverbatim
 147:../STM32Cube_FW_F4_V1.4.0/Drivers/STM32F4xx_HAL_Driver/Src/stm32f4xx_hal.c ****   * @{
 148:../STM32Cube_FW_F4_V1.4.0/Drivers/STM32F4xx_HAL_Driver/Src/stm32f4xx_hal.c ****   */
 149:../STM32Cube_FW_F4_V1.4.0/Drivers/STM32F4xx_HAL_Driver/Src/stm32f4xx_hal.c **** 
 150:../STM32Cube_FW_F4_V1.4.0/Drivers/STM32F4xx_HAL_Driver/Src/stm32f4xx_hal.c **** /**
 151:../STM32Cube_FW_F4_V1.4.0/Drivers/STM32F4xx_HAL_Driver/Src/stm32f4xx_hal.c ****   * @brief  This function is used to initialize the HAL Library; it must be the first 
 152:../STM32Cube_FW_F4_V1.4.0/Drivers/STM32F4xx_HAL_Driver/Src/stm32f4xx_hal.c ****   *         instruction to be executed in the main program (before to call any other
 153:../STM32Cube_FW_F4_V1.4.0/Drivers/STM32F4xx_HAL_Driver/Src/stm32f4xx_hal.c ****   *         HAL function), it performs the following:
 154:../STM32Cube_FW_F4_V1.4.0/Drivers/STM32F4xx_HAL_Driver/Src/stm32f4xx_hal.c ****   *           Configure the Flash prefetch, instruction and Data caches.
 155:../STM32Cube_FW_F4_V1.4.0/Drivers/STM32F4xx_HAL_Driver/Src/stm32f4xx_hal.c ****   *           Configures the SysTick to generate an interrupt each 1 millisecond,
 156:../STM32Cube_FW_F4_V1.4.0/Drivers/STM32F4xx_HAL_Driver/Src/stm32f4xx_hal.c ****   *           which is clocked by the HSI (at this stage, the clock is not yet
 157:../STM32Cube_FW_F4_V1.4.0/Drivers/STM32F4xx_HAL_Driver/Src/stm32f4xx_hal.c ****   *           configured and thus the system is running from the internal HSI at 16 MHz).
 158:../STM32Cube_FW_F4_V1.4.0/Drivers/STM32F4xx_HAL_Driver/Src/stm32f4xx_hal.c ****   *           Set NVIC Group Priority to 4.
 159:../STM32Cube_FW_F4_V1.4.0/Drivers/STM32F4xx_HAL_Driver/Src/stm32f4xx_hal.c ****   *           Calls the HAL_MspInit() callback function defined in user file 
 160:../STM32Cube_FW_F4_V1.4.0/Drivers/STM32F4xx_HAL_Driver/Src/stm32f4xx_hal.c ****   *           "stm32f4xx_hal_msp.c" to do the global low level hardware initialization 
 161:../STM32Cube_FW_F4_V1.4.0/Drivers/STM32F4xx_HAL_Driver/Src/stm32f4xx_hal.c ****   *            
 162:../STM32Cube_FW_F4_V1.4.0/Drivers/STM32F4xx_HAL_Driver/Src/stm32f4xx_hal.c ****   * @note   SysTick is used as time base for the HAL_Delay() function, the application
 163:../STM32Cube_FW_F4_V1.4.0/Drivers/STM32F4xx_HAL_Driver/Src/stm32f4xx_hal.c ****   *         need to ensure that the SysTick time base is always set to 1 millisecond
 164:../STM32Cube_FW_F4_V1.4.0/Drivers/STM32F4xx_HAL_Driver/Src/stm32f4xx_hal.c ****   *         to have correct HAL operation.
 165:../STM32Cube_FW_F4_V1.4.0/Drivers/STM32F4xx_HAL_Driver/Src/stm32f4xx_hal.c ****   * @retval HAL status
 166:../STM32Cube_FW_F4_V1.4.0/Drivers/STM32F4xx_HAL_Driver/Src/stm32f4xx_hal.c ****   */
 167:../STM32Cube_FW_F4_V1.4.0/Drivers/STM32F4xx_HAL_Driver/Src/stm32f4xx_hal.c **** HAL_StatusTypeDef HAL_Init(void)
 168:../STM32Cube_FW_F4_V1.4.0/Drivers/STM32F4xx_HAL_Driver/Src/stm32f4xx_hal.c **** {
 169:../STM32Cube_FW_F4_V1.4.0/Drivers/STM32F4xx_HAL_Driver/Src/stm32f4xx_hal.c ****   /* Configure Flash prefetch, Instruction cache, Data cache */ 
 170:../STM32Cube_FW_F4_V1.4.0/Drivers/STM32F4xx_HAL_Driver/Src/stm32f4xx_hal.c **** #if (INSTRUCTION_CACHE_ENABLE != 0)
 171:../STM32Cube_FW_F4_V1.4.0/Drivers/STM32F4xx_HAL_Driver/Src/stm32f4xx_hal.c ****    __HAL_FLASH_INSTRUCTION_CACHE_ENABLE();
 172:../STM32Cube_FW_F4_V1.4.0/Drivers/STM32F4xx_HAL_Driver/Src/stm32f4xx_hal.c **** #endif /* INSTRUCTION_CACHE_ENABLE */
 173:../STM32Cube_FW_F4_V1.4.0/Drivers/STM32F4xx_HAL_Driver/Src/stm32f4xx_hal.c **** 
 174:../STM32Cube_FW_F4_V1.4.0/Drivers/STM32F4xx_HAL_Driver/Src/stm32f4xx_hal.c **** #if (DATA_CACHE_ENABLE != 0)
 175:../STM32Cube_FW_F4_V1.4.0/Drivers/STM32F4xx_HAL_Driver/Src/stm32f4xx_hal.c ****    __HAL_FLASH_DATA_CACHE_ENABLE();
 176:../STM32Cube_FW_F4_V1.4.0/Drivers/STM32F4xx_HAL_Driver/Src/stm32f4xx_hal.c **** #endif /* DATA_CACHE_ENABLE */
 177:../STM32Cube_FW_F4_V1.4.0/Drivers/STM32F4xx_HAL_Driver/Src/stm32f4xx_hal.c **** 
 178:../STM32Cube_FW_F4_V1.4.0/Drivers/STM32F4xx_HAL_Driver/Src/stm32f4xx_hal.c **** #if (PREFETCH_ENABLE != 0)
 179:../STM32Cube_FW_F4_V1.4.0/Drivers/STM32F4xx_HAL_Driver/Src/stm32f4xx_hal.c ****   __HAL_FLASH_PREFETCH_BUFFER_ENABLE();
 180:../STM32Cube_FW_F4_V1.4.0/Drivers/STM32F4xx_HAL_Driver/Src/stm32f4xx_hal.c **** #endif /* PREFETCH_ENABLE */
 181:../STM32Cube_FW_F4_V1.4.0/Drivers/STM32F4xx_HAL_Driver/Src/stm32f4xx_hal.c **** 
 182:../STM32Cube_FW_F4_V1.4.0/Drivers/STM32F4xx_HAL_Driver/Src/stm32f4xx_hal.c ****   /* Set Interrupt Group Priority */
 183:../STM32Cube_FW_F4_V1.4.0/Drivers/STM32F4xx_HAL_Driver/Src/stm32f4xx_hal.c ****   HAL_NVIC_SetPriorityGrouping(NVIC_PRIORITYGROUP_4);
 184:../STM32Cube_FW_F4_V1.4.0/Drivers/STM32F4xx_HAL_Driver/Src/stm32f4xx_hal.c **** 
 185:../STM32Cube_FW_F4_V1.4.0/Drivers/STM32F4xx_HAL_Driver/Src/stm32f4xx_hal.c ****   /* Use systick as time base source and configure 1ms tick (default clock after Reset is HSI) */
 186:../STM32Cube_FW_F4_V1.4.0/Drivers/STM32F4xx_HAL_Driver/Src/stm32f4xx_hal.c ****   HAL_InitTick(TICK_INT_PRIORITY);
 187:../STM32Cube_FW_F4_V1.4.0/Drivers/STM32F4xx_HAL_Driver/Src/stm32f4xx_hal.c ****   
 188:../STM32Cube_FW_F4_V1.4.0/Drivers/STM32F4xx_HAL_Driver/Src/stm32f4xx_hal.c ****   /* Init the low level hardware */
 189:../STM32Cube_FW_F4_V1.4.0/Drivers/STM32F4xx_HAL_Driver/Src/stm32f4xx_hal.c ****   HAL_MspInit();
 190:../STM32Cube_FW_F4_V1.4.0/Drivers/STM32F4xx_HAL_Driver/Src/stm32f4xx_hal.c ****   
 191:../STM32Cube_FW_F4_V1.4.0/Drivers/STM32F4xx_HAL_Driver/Src/stm32f4xx_hal.c ****   /* Return function status */
 192:../STM32Cube_FW_F4_V1.4.0/Drivers/STM32F4xx_HAL_Driver/Src/stm32f4xx_hal.c ****   return HAL_OK;
 193:../STM32Cube_FW_F4_V1.4.0/Drivers/STM32F4xx_HAL_Driver/Src/stm32f4xx_hal.c **** }
 194:../STM32Cube_FW_F4_V1.4.0/Drivers/STM32F4xx_HAL_Driver/Src/stm32f4xx_hal.c **** 
 195:../STM32Cube_FW_F4_V1.4.0/Drivers/STM32F4xx_HAL_Driver/Src/stm32f4xx_hal.c **** /**
 196:../STM32Cube_FW_F4_V1.4.0/Drivers/STM32F4xx_HAL_Driver/Src/stm32f4xx_hal.c ****   * @brief  This function de-Initializes common part of the HAL and stops the systick.
 197:../STM32Cube_FW_F4_V1.4.0/Drivers/STM32F4xx_HAL_Driver/Src/stm32f4xx_hal.c ****   *         This function is optional.   
 198:../STM32Cube_FW_F4_V1.4.0/Drivers/STM32F4xx_HAL_Driver/Src/stm32f4xx_hal.c ****   * @retval HAL status
 199:../STM32Cube_FW_F4_V1.4.0/Drivers/STM32F4xx_HAL_Driver/Src/stm32f4xx_hal.c ****   */
 200:../STM32Cube_FW_F4_V1.4.0/Drivers/STM32F4xx_HAL_Driver/Src/stm32f4xx_hal.c **** HAL_StatusTypeDef HAL_DeInit(void)
 201:../STM32Cube_FW_F4_V1.4.0/Drivers/STM32F4xx_HAL_Driver/Src/stm32f4xx_hal.c **** {
 202:../STM32Cube_FW_F4_V1.4.0/Drivers/STM32F4xx_HAL_Driver/Src/stm32f4xx_hal.c ****   /* Reset of all peripherals */
ARM GAS  C:\cygwin\tmp\ccxydAnz.s 			page 6


 203:../STM32Cube_FW_F4_V1.4.0/Drivers/STM32F4xx_HAL_Driver/Src/stm32f4xx_hal.c ****   __HAL_RCC_APB1_FORCE_RESET();
 204:../STM32Cube_FW_F4_V1.4.0/Drivers/STM32F4xx_HAL_Driver/Src/stm32f4xx_hal.c ****   __HAL_RCC_APB1_RELEASE_RESET();
 205:../STM32Cube_FW_F4_V1.4.0/Drivers/STM32F4xx_HAL_Driver/Src/stm32f4xx_hal.c **** 
 206:../STM32Cube_FW_F4_V1.4.0/Drivers/STM32F4xx_HAL_Driver/Src/stm32f4xx_hal.c ****   __HAL_RCC_APB2_FORCE_RESET();
 207:../STM32Cube_FW_F4_V1.4.0/Drivers/STM32F4xx_HAL_Driver/Src/stm32f4xx_hal.c ****   __HAL_RCC_APB2_RELEASE_RESET();
 208:../STM32Cube_FW_F4_V1.4.0/Drivers/STM32F4xx_HAL_Driver/Src/stm32f4xx_hal.c **** 
 209:../STM32Cube_FW_F4_V1.4.0/Drivers/STM32F4xx_HAL_Driver/Src/stm32f4xx_hal.c ****   __HAL_RCC_AHB1_FORCE_RESET();
 210:../STM32Cube_FW_F4_V1.4.0/Drivers/STM32F4xx_HAL_Driver/Src/stm32f4xx_hal.c ****   __HAL_RCC_AHB1_RELEASE_RESET();
 211:../STM32Cube_FW_F4_V1.4.0/Drivers/STM32F4xx_HAL_Driver/Src/stm32f4xx_hal.c **** 
 212:../STM32Cube_FW_F4_V1.4.0/Drivers/STM32F4xx_HAL_Driver/Src/stm32f4xx_hal.c ****   __HAL_RCC_AHB2_FORCE_RESET();
 213:../STM32Cube_FW_F4_V1.4.0/Drivers/STM32F4xx_HAL_Driver/Src/stm32f4xx_hal.c ****   __HAL_RCC_AHB2_RELEASE_RESET();
 214:../STM32Cube_FW_F4_V1.4.0/Drivers/STM32F4xx_HAL_Driver/Src/stm32f4xx_hal.c **** 
 215:../STM32Cube_FW_F4_V1.4.0/Drivers/STM32F4xx_HAL_Driver/Src/stm32f4xx_hal.c ****   __HAL_RCC_AHB3_FORCE_RESET();
 216:../STM32Cube_FW_F4_V1.4.0/Drivers/STM32F4xx_HAL_Driver/Src/stm32f4xx_hal.c ****   __HAL_RCC_AHB3_RELEASE_RESET();
 217:../STM32Cube_FW_F4_V1.4.0/Drivers/STM32F4xx_HAL_Driver/Src/stm32f4xx_hal.c **** 
 218:../STM32Cube_FW_F4_V1.4.0/Drivers/STM32F4xx_HAL_Driver/Src/stm32f4xx_hal.c ****   /* De-Init the low level hardware */
 219:../STM32Cube_FW_F4_V1.4.0/Drivers/STM32F4xx_HAL_Driver/Src/stm32f4xx_hal.c ****   HAL_MspDeInit();
 220:../STM32Cube_FW_F4_V1.4.0/Drivers/STM32F4xx_HAL_Driver/Src/stm32f4xx_hal.c ****     
 221:../STM32Cube_FW_F4_V1.4.0/Drivers/STM32F4xx_HAL_Driver/Src/stm32f4xx_hal.c ****   /* Return function status */
 222:../STM32Cube_FW_F4_V1.4.0/Drivers/STM32F4xx_HAL_Driver/Src/stm32f4xx_hal.c ****   return HAL_OK;
 223:../STM32Cube_FW_F4_V1.4.0/Drivers/STM32F4xx_HAL_Driver/Src/stm32f4xx_hal.c **** }
 224:../STM32Cube_FW_F4_V1.4.0/Drivers/STM32F4xx_HAL_Driver/Src/stm32f4xx_hal.c **** 
 225:../STM32Cube_FW_F4_V1.4.0/Drivers/STM32F4xx_HAL_Driver/Src/stm32f4xx_hal.c **** /**
 226:../STM32Cube_FW_F4_V1.4.0/Drivers/STM32F4xx_HAL_Driver/Src/stm32f4xx_hal.c ****   * @brief  Initializes the MSP.
 227:../STM32Cube_FW_F4_V1.4.0/Drivers/STM32F4xx_HAL_Driver/Src/stm32f4xx_hal.c ****   * @retval None
 228:../STM32Cube_FW_F4_V1.4.0/Drivers/STM32F4xx_HAL_Driver/Src/stm32f4xx_hal.c ****   */
 229:../STM32Cube_FW_F4_V1.4.0/Drivers/STM32F4xx_HAL_Driver/Src/stm32f4xx_hal.c **** __weak void HAL_MspInit(void)
 230:../STM32Cube_FW_F4_V1.4.0/Drivers/STM32F4xx_HAL_Driver/Src/stm32f4xx_hal.c **** {
  84              		.loc 1 230 0
  85              		.cfi_startproc
  86              		@ args = 0, pretend = 0, frame = 0
  87              		@ frame_needed = 0, uses_anonymous_args = 0
  88              		@ link register save eliminated.
  89 0000 7047     		bx	lr	@
  90              		.cfi_endproc
  91              	.LFE125:
  92              		.size	HAL_MspInit, .-HAL_MspInit
  93              		.section	.text.HAL_MspDeInit,"ax",%progbits
  94              		.align	1
  95              		.weak	HAL_MspDeInit
  96              		.thumb
  97              		.thumb_func
  98              		.type	HAL_MspDeInit, %function
  99              	HAL_MspDeInit:
 100              	.LFB126:
 231:../STM32Cube_FW_F4_V1.4.0/Drivers/STM32F4xx_HAL_Driver/Src/stm32f4xx_hal.c ****   /* NOTE : This function Should not be modified, when the callback is needed,
 232:../STM32Cube_FW_F4_V1.4.0/Drivers/STM32F4xx_HAL_Driver/Src/stm32f4xx_hal.c ****             the HAL_MspInit could be implemented in the user file
 233:../STM32Cube_FW_F4_V1.4.0/Drivers/STM32F4xx_HAL_Driver/Src/stm32f4xx_hal.c ****    */
 234:../STM32Cube_FW_F4_V1.4.0/Drivers/STM32F4xx_HAL_Driver/Src/stm32f4xx_hal.c **** }
 235:../STM32Cube_FW_F4_V1.4.0/Drivers/STM32F4xx_HAL_Driver/Src/stm32f4xx_hal.c **** 
 236:../STM32Cube_FW_F4_V1.4.0/Drivers/STM32F4xx_HAL_Driver/Src/stm32f4xx_hal.c **** /**
 237:../STM32Cube_FW_F4_V1.4.0/Drivers/STM32F4xx_HAL_Driver/Src/stm32f4xx_hal.c ****   * @brief  DeInitializes the MSP.
 238:../STM32Cube_FW_F4_V1.4.0/Drivers/STM32F4xx_HAL_Driver/Src/stm32f4xx_hal.c ****   * @retval None
 239:../STM32Cube_FW_F4_V1.4.0/Drivers/STM32F4xx_HAL_Driver/Src/stm32f4xx_hal.c ****   */
 240:../STM32Cube_FW_F4_V1.4.0/Drivers/STM32F4xx_HAL_Driver/Src/stm32f4xx_hal.c **** __weak void HAL_MspDeInit(void)
 241:../STM32Cube_FW_F4_V1.4.0/Drivers/STM32F4xx_HAL_Driver/Src/stm32f4xx_hal.c **** {
 101              		.loc 1 241 0
ARM GAS  C:\cygwin\tmp\ccxydAnz.s 			page 7


 102              		.cfi_startproc
 103              		@ args = 0, pretend = 0, frame = 0
 104              		@ frame_needed = 0, uses_anonymous_args = 0
 105              		@ link register save eliminated.
 106 0000 7047     		bx	lr	@
 107              		.cfi_endproc
 108              	.LFE126:
 109              		.size	HAL_MspDeInit, .-HAL_MspDeInit
 110              		.section	.text.HAL_DeInit,"ax",%progbits
 111              		.align	1
 112              		.global	HAL_DeInit
 113              		.thumb
 114              		.thumb_func
 115              		.type	HAL_DeInit, %function
 116              	HAL_DeInit:
 117              	.LFB124:
 201:../STM32Cube_FW_F4_V1.4.0/Drivers/STM32F4xx_HAL_Driver/Src/stm32f4xx_hal.c ****   /* Reset of all peripherals */
 118              		.loc 1 201 0
 119              		.cfi_startproc
 120              		@ args = 0, pretend = 0, frame = 0
 121              		@ frame_needed = 0, uses_anonymous_args = 0
 201:../STM32Cube_FW_F4_V1.4.0/Drivers/STM32F4xx_HAL_Driver/Src/stm32f4xx_hal.c ****   /* Reset of all peripherals */
 122              		.loc 1 201 0
 123 0000 10B5     		push	{r4, lr}	@
 124              		.cfi_def_cfa_offset 8
 125              		.cfi_offset 4, -8
 126              		.cfi_offset 14, -4
 203:../STM32Cube_FW_F4_V1.4.0/Drivers/STM32F4xx_HAL_Driver/Src/stm32f4xx_hal.c ****   __HAL_RCC_APB1_RELEASE_RESET();
 127              		.loc 1 203 0
 128 0002 094B     		ldr	r3, .L4	@ tmp111,
 129 0004 4FF0FF32 		mov	r2, #-1	@ tmp112,
 204:../STM32Cube_FW_F4_V1.4.0/Drivers/STM32F4xx_HAL_Driver/Src/stm32f4xx_hal.c **** 
 130              		.loc 1 204 0
 131 0008 0024     		movs	r4, #0	@ tmp114,
 203:../STM32Cube_FW_F4_V1.4.0/Drivers/STM32F4xx_HAL_Driver/Src/stm32f4xx_hal.c ****   __HAL_RCC_APB1_RELEASE_RESET();
 132              		.loc 1 203 0
 133 000a 1A62     		str	r2, [r3, #32]	@ tmp112, MEM[(struct RCC_TypeDef *)1073887232B].APB1RSTR
 204:../STM32Cube_FW_F4_V1.4.0/Drivers/STM32F4xx_HAL_Driver/Src/stm32f4xx_hal.c **** 
 134              		.loc 1 204 0
 135 000c 1C62     		str	r4, [r3, #32]	@ tmp114, MEM[(struct RCC_TypeDef *)1073887232B].APB1RSTR
 206:../STM32Cube_FW_F4_V1.4.0/Drivers/STM32F4xx_HAL_Driver/Src/stm32f4xx_hal.c ****   __HAL_RCC_APB2_RELEASE_RESET();
 136              		.loc 1 206 0
 137 000e 5A62     		str	r2, [r3, #36]	@ tmp112, MEM[(struct RCC_TypeDef *)1073887232B].APB2RSTR
 207:../STM32Cube_FW_F4_V1.4.0/Drivers/STM32F4xx_HAL_Driver/Src/stm32f4xx_hal.c **** 
 138              		.loc 1 207 0
 139 0010 5C62     		str	r4, [r3, #36]	@ tmp114, MEM[(struct RCC_TypeDef *)1073887232B].APB2RSTR
 209:../STM32Cube_FW_F4_V1.4.0/Drivers/STM32F4xx_HAL_Driver/Src/stm32f4xx_hal.c ****   __HAL_RCC_AHB1_RELEASE_RESET();
 140              		.loc 1 209 0
 141 0012 1A61     		str	r2, [r3, #16]	@ tmp112, MEM[(struct RCC_TypeDef *)1073887232B].AHB1RSTR
 210:../STM32Cube_FW_F4_V1.4.0/Drivers/STM32F4xx_HAL_Driver/Src/stm32f4xx_hal.c **** 
 142              		.loc 1 210 0
 143 0014 1C61     		str	r4, [r3, #16]	@ tmp114, MEM[(struct RCC_TypeDef *)1073887232B].AHB1RSTR
 212:../STM32Cube_FW_F4_V1.4.0/Drivers/STM32F4xx_HAL_Driver/Src/stm32f4xx_hal.c ****   __HAL_RCC_AHB2_RELEASE_RESET();
 144              		.loc 1 212 0
 145 0016 5A61     		str	r2, [r3, #20]	@ tmp112, MEM[(struct RCC_TypeDef *)1073887232B].AHB2RSTR
 213:../STM32Cube_FW_F4_V1.4.0/Drivers/STM32F4xx_HAL_Driver/Src/stm32f4xx_hal.c **** 
 146              		.loc 1 213 0
ARM GAS  C:\cygwin\tmp\ccxydAnz.s 			page 8


 147 0018 5C61     		str	r4, [r3, #20]	@ tmp114, MEM[(struct RCC_TypeDef *)1073887232B].AHB2RSTR
 215:../STM32Cube_FW_F4_V1.4.0/Drivers/STM32F4xx_HAL_Driver/Src/stm32f4xx_hal.c ****   __HAL_RCC_AHB3_RELEASE_RESET();
 148              		.loc 1 215 0
 149 001a 9A61     		str	r2, [r3, #24]	@ tmp112, MEM[(struct RCC_TypeDef *)1073887232B].AHB3RSTR
 216:../STM32Cube_FW_F4_V1.4.0/Drivers/STM32F4xx_HAL_Driver/Src/stm32f4xx_hal.c **** 
 150              		.loc 1 216 0
 151 001c 9C61     		str	r4, [r3, #24]	@ tmp114, MEM[(struct RCC_TypeDef *)1073887232B].AHB3RSTR
 219:../STM32Cube_FW_F4_V1.4.0/Drivers/STM32F4xx_HAL_Driver/Src/stm32f4xx_hal.c ****     
 152              		.loc 1 219 0
 153 001e FFF7FEFF 		bl	HAL_MspDeInit	@
 154              	.LVL0:
 223:../STM32Cube_FW_F4_V1.4.0/Drivers/STM32F4xx_HAL_Driver/Src/stm32f4xx_hal.c **** 
 155              		.loc 1 223 0
 156 0022 2046     		mov	r0, r4	@, tmp114
 157 0024 10BD     		pop	{r4, pc}	@
 158              	.L5:
 159 0026 00BF     		.align	2
 160              	.L4:
 161 0028 00380240 		.word	1073887232
 162              		.cfi_endproc
 163              	.LFE124:
 164              		.size	HAL_DeInit, .-HAL_DeInit
 165              		.section	.text.HAL_InitTick,"ax",%progbits
 166              		.align	1
 167              		.weak	HAL_InitTick
 168              		.thumb
 169              		.thumb_func
 170              		.type	HAL_InitTick, %function
 171              	HAL_InitTick:
 172              	.LFB127:
 242:../STM32Cube_FW_F4_V1.4.0/Drivers/STM32F4xx_HAL_Driver/Src/stm32f4xx_hal.c ****   /* NOTE : This function Should not be modified, when the callback is needed,
 243:../STM32Cube_FW_F4_V1.4.0/Drivers/STM32F4xx_HAL_Driver/Src/stm32f4xx_hal.c ****             the HAL_MspDeInit could be implemented in the user file
 244:../STM32Cube_FW_F4_V1.4.0/Drivers/STM32F4xx_HAL_Driver/Src/stm32f4xx_hal.c ****    */ 
 245:../STM32Cube_FW_F4_V1.4.0/Drivers/STM32F4xx_HAL_Driver/Src/stm32f4xx_hal.c **** }
 246:../STM32Cube_FW_F4_V1.4.0/Drivers/STM32F4xx_HAL_Driver/Src/stm32f4xx_hal.c **** 
 247:../STM32Cube_FW_F4_V1.4.0/Drivers/STM32F4xx_HAL_Driver/Src/stm32f4xx_hal.c **** /**
 248:../STM32Cube_FW_F4_V1.4.0/Drivers/STM32F4xx_HAL_Driver/Src/stm32f4xx_hal.c ****   * @brief This function configures the source of the time base.
 249:../STM32Cube_FW_F4_V1.4.0/Drivers/STM32F4xx_HAL_Driver/Src/stm32f4xx_hal.c ****   *        The time source is configured  to have 1ms time base with a dedicated 
 250:../STM32Cube_FW_F4_V1.4.0/Drivers/STM32F4xx_HAL_Driver/Src/stm32f4xx_hal.c ****   *        Tick interrupt priority.
 251:../STM32Cube_FW_F4_V1.4.0/Drivers/STM32F4xx_HAL_Driver/Src/stm32f4xx_hal.c ****   * @note This function is called  automatically at the beginning of program after
 252:../STM32Cube_FW_F4_V1.4.0/Drivers/STM32F4xx_HAL_Driver/Src/stm32f4xx_hal.c ****   *       reset by HAL_Init() or at any time when clock is reconfigured  by HAL_RCC_ClockConfig().
 253:../STM32Cube_FW_F4_V1.4.0/Drivers/STM32F4xx_HAL_Driver/Src/stm32f4xx_hal.c ****   * @note In the default implementation, SysTick timer is the source of time base. 
 254:../STM32Cube_FW_F4_V1.4.0/Drivers/STM32F4xx_HAL_Driver/Src/stm32f4xx_hal.c ****   *       It is used to generate interrupts at regular time intervals. 
 255:../STM32Cube_FW_F4_V1.4.0/Drivers/STM32F4xx_HAL_Driver/Src/stm32f4xx_hal.c ****   *       Care must be taken if HAL_Delay() is called from a peripheral ISR process, 
 256:../STM32Cube_FW_F4_V1.4.0/Drivers/STM32F4xx_HAL_Driver/Src/stm32f4xx_hal.c ****   *       The the SysTick interrupt must have higher priority (numerically lower) 
 257:../STM32Cube_FW_F4_V1.4.0/Drivers/STM32F4xx_HAL_Driver/Src/stm32f4xx_hal.c ****   *       than the peripheral interrupt. Otherwise the caller ISR process will be blocked.
 258:../STM32Cube_FW_F4_V1.4.0/Drivers/STM32F4xx_HAL_Driver/Src/stm32f4xx_hal.c ****   *       The function is declared as __weak  to be overwritten  in case of other
 259:../STM32Cube_FW_F4_V1.4.0/Drivers/STM32F4xx_HAL_Driver/Src/stm32f4xx_hal.c ****   *       implementation  in user file.
 260:../STM32Cube_FW_F4_V1.4.0/Drivers/STM32F4xx_HAL_Driver/Src/stm32f4xx_hal.c ****   * @param TickPriority: Tick interrupt priority.
 261:../STM32Cube_FW_F4_V1.4.0/Drivers/STM32F4xx_HAL_Driver/Src/stm32f4xx_hal.c ****   * @retval HAL status
 262:../STM32Cube_FW_F4_V1.4.0/Drivers/STM32F4xx_HAL_Driver/Src/stm32f4xx_hal.c ****   */
 263:../STM32Cube_FW_F4_V1.4.0/Drivers/STM32F4xx_HAL_Driver/Src/stm32f4xx_hal.c **** __weak HAL_StatusTypeDef HAL_InitTick(uint32_t TickPriority)
 264:../STM32Cube_FW_F4_V1.4.0/Drivers/STM32F4xx_HAL_Driver/Src/stm32f4xx_hal.c **** {
 173              		.loc 1 264 0
 174              		.cfi_startproc
 175              		@ args = 0, pretend = 0, frame = 0
 176              		@ frame_needed = 0, uses_anonymous_args = 0
ARM GAS  C:\cygwin\tmp\ccxydAnz.s 			page 9


 177              	.LVL1:
 178 0000 10B5     		push	{r4, lr}	@
 179              		.cfi_def_cfa_offset 8
 180              		.cfi_offset 4, -8
 181              		.cfi_offset 14, -4
 182              		.loc 1 264 0
 183 0002 0446     		mov	r4, r0	@ TickPriority, TickPriority
 265:../STM32Cube_FW_F4_V1.4.0/Drivers/STM32F4xx_HAL_Driver/Src/stm32f4xx_hal.c ****   /*Configure the SysTick to have interrupt in 1ms time basis*/
 266:../STM32Cube_FW_F4_V1.4.0/Drivers/STM32F4xx_HAL_Driver/Src/stm32f4xx_hal.c ****   HAL_SYSTICK_Config(HAL_RCC_GetHCLKFreq()/1000);
 184              		.loc 1 266 0
 185 0004 FFF7FEFF 		bl	HAL_RCC_GetHCLKFreq	@
 186              	.LVL2:
 187 0008 4FF47A73 		mov	r3, #1000	@ tmp116,
 188 000c B0FBF3F0 		udiv	r0, r0, r3	@,, tmp116
 189 0010 FFF7FEFF 		bl	HAL_SYSTICK_Config	@
 190              	.LVL3:
 267:../STM32Cube_FW_F4_V1.4.0/Drivers/STM32F4xx_HAL_Driver/Src/stm32f4xx_hal.c **** 
 268:../STM32Cube_FW_F4_V1.4.0/Drivers/STM32F4xx_HAL_Driver/Src/stm32f4xx_hal.c ****   /*Configure the SysTick IRQ priority */
 269:../STM32Cube_FW_F4_V1.4.0/Drivers/STM32F4xx_HAL_Driver/Src/stm32f4xx_hal.c ****   HAL_NVIC_SetPriority(SysTick_IRQn, TickPriority ,0);
 191              		.loc 1 269 0
 192 0014 4FF0FF30 		mov	r0, #-1	@,
 193 0018 2146     		mov	r1, r4	@, TickPriority
 194 001a 0022     		movs	r2, #0	@,
 195 001c FFF7FEFF 		bl	HAL_NVIC_SetPriority	@
 196              	.LVL4:
 270:../STM32Cube_FW_F4_V1.4.0/Drivers/STM32F4xx_HAL_Driver/Src/stm32f4xx_hal.c **** 
 271:../STM32Cube_FW_F4_V1.4.0/Drivers/STM32F4xx_HAL_Driver/Src/stm32f4xx_hal.c ****   /* Return function status */
 272:../STM32Cube_FW_F4_V1.4.0/Drivers/STM32F4xx_HAL_Driver/Src/stm32f4xx_hal.c ****   return HAL_OK;
 273:../STM32Cube_FW_F4_V1.4.0/Drivers/STM32F4xx_HAL_Driver/Src/stm32f4xx_hal.c **** }
 197              		.loc 1 273 0
 198 0020 0020     		movs	r0, #0	@,
 199 0022 10BD     		pop	{r4, pc}	@
 200              		.cfi_endproc
 201              	.LFE127:
 202              		.size	HAL_InitTick, .-HAL_InitTick
 203              		.section	.text.HAL_Init,"ax",%progbits
 204              		.align	1
 205              		.global	HAL_Init
 206              		.thumb
 207              		.thumb_func
 208              		.type	HAL_Init, %function
 209              	HAL_Init:
 210              	.LFB123:
 168:../STM32Cube_FW_F4_V1.4.0/Drivers/STM32F4xx_HAL_Driver/Src/stm32f4xx_hal.c ****   /* Configure Flash prefetch, Instruction cache, Data cache */ 
 211              		.loc 1 168 0
 212              		.cfi_startproc
 213              		@ args = 0, pretend = 0, frame = 0
 214              		@ frame_needed = 0, uses_anonymous_args = 0
 215 0000 08B5     		push	{r3, lr}	@
 216              		.cfi_def_cfa_offset 8
 217              		.cfi_offset 3, -8
 218              		.cfi_offset 14, -4
 171:../STM32Cube_FW_F4_V1.4.0/Drivers/STM32F4xx_HAL_Driver/Src/stm32f4xx_hal.c **** #endif /* INSTRUCTION_CACHE_ENABLE */
 219              		.loc 1 171 0
 220 0002 094B     		ldr	r3, .L8	@ tmp115,
 221 0004 1A68     		ldr	r2, [r3]	@ D.7523, MEM[(struct FLASH_TypeDef *)1073888256B].ACR
 222 0006 42F40072 		orr	r2, r2, #512	@ D.7523, D.7523,
ARM GAS  C:\cygwin\tmp\ccxydAnz.s 			page 10


 223 000a 1A60     		str	r2, [r3]	@ D.7523, MEM[(struct FLASH_TypeDef *)1073888256B].ACR
 175:../STM32Cube_FW_F4_V1.4.0/Drivers/STM32F4xx_HAL_Driver/Src/stm32f4xx_hal.c **** #endif /* DATA_CACHE_ENABLE */
 224              		.loc 1 175 0
 225 000c 1A68     		ldr	r2, [r3]	@ D.7523, MEM[(struct FLASH_TypeDef *)1073888256B].ACR
 226 000e 42F48062 		orr	r2, r2, #1024	@ D.7523, D.7523,
 227 0012 1A60     		str	r2, [r3]	@ D.7523, MEM[(struct FLASH_TypeDef *)1073888256B].ACR
 183:../STM32Cube_FW_F4_V1.4.0/Drivers/STM32F4xx_HAL_Driver/Src/stm32f4xx_hal.c **** 
 228              		.loc 1 183 0
 229 0014 0320     		movs	r0, #3	@,
 230 0016 FFF7FEFF 		bl	HAL_NVIC_SetPriorityGrouping	@
 231              	.LVL5:
 186:../STM32Cube_FW_F4_V1.4.0/Drivers/STM32F4xx_HAL_Driver/Src/stm32f4xx_hal.c ****   
 232              		.loc 1 186 0
 233 001a 0F20     		movs	r0, #15	@,
 234 001c FFF7FEFF 		bl	HAL_InitTick	@
 235              	.LVL6:
 189:../STM32Cube_FW_F4_V1.4.0/Drivers/STM32F4xx_HAL_Driver/Src/stm32f4xx_hal.c ****   
 236              		.loc 1 189 0
 237 0020 FFF7FEFF 		bl	HAL_MspInit	@
 238              	.LVL7:
 193:../STM32Cube_FW_F4_V1.4.0/Drivers/STM32F4xx_HAL_Driver/Src/stm32f4xx_hal.c **** 
 239              		.loc 1 193 0
 240 0024 0020     		movs	r0, #0	@,
 241 0026 08BD     		pop	{r3, pc}	@
 242              	.L9:
 243              		.align	2
 244              	.L8:
 245 0028 003C0240 		.word	1073888256
 246              		.cfi_endproc
 247              	.LFE123:
 248              		.size	HAL_Init, .-HAL_Init
 249              		.section	.text.HAL_IncTick,"ax",%progbits
 250              		.align	1
 251              		.weak	HAL_IncTick
 252              		.thumb
 253              		.thumb_func
 254              		.type	HAL_IncTick, %function
 255              	HAL_IncTick:
 256              	.LFB128:
 274:../STM32Cube_FW_F4_V1.4.0/Drivers/STM32F4xx_HAL_Driver/Src/stm32f4xx_hal.c **** 
 275:../STM32Cube_FW_F4_V1.4.0/Drivers/STM32F4xx_HAL_Driver/Src/stm32f4xx_hal.c **** /**
 276:../STM32Cube_FW_F4_V1.4.0/Drivers/STM32F4xx_HAL_Driver/Src/stm32f4xx_hal.c ****   * @}
 277:../STM32Cube_FW_F4_V1.4.0/Drivers/STM32F4xx_HAL_Driver/Src/stm32f4xx_hal.c ****   */
 278:../STM32Cube_FW_F4_V1.4.0/Drivers/STM32F4xx_HAL_Driver/Src/stm32f4xx_hal.c **** 
 279:../STM32Cube_FW_F4_V1.4.0/Drivers/STM32F4xx_HAL_Driver/Src/stm32f4xx_hal.c **** /** @defgroup HAL_Exported_Functions_Group2 HAL Control functions 
 280:../STM32Cube_FW_F4_V1.4.0/Drivers/STM32F4xx_HAL_Driver/Src/stm32f4xx_hal.c ****  *  @brief    HAL Control functions
 281:../STM32Cube_FW_F4_V1.4.0/Drivers/STM32F4xx_HAL_Driver/Src/stm32f4xx_hal.c ****  *
 282:../STM32Cube_FW_F4_V1.4.0/Drivers/STM32F4xx_HAL_Driver/Src/stm32f4xx_hal.c **** @verbatim
 283:../STM32Cube_FW_F4_V1.4.0/Drivers/STM32F4xx_HAL_Driver/Src/stm32f4xx_hal.c ****  ===============================================================================
 284:../STM32Cube_FW_F4_V1.4.0/Drivers/STM32F4xx_HAL_Driver/Src/stm32f4xx_hal.c ****                       ##### HAL Control functions #####
 285:../STM32Cube_FW_F4_V1.4.0/Drivers/STM32F4xx_HAL_Driver/Src/stm32f4xx_hal.c ****  ===============================================================================
 286:../STM32Cube_FW_F4_V1.4.0/Drivers/STM32F4xx_HAL_Driver/Src/stm32f4xx_hal.c ****     [..]  This section provides functions allowing to:
 287:../STM32Cube_FW_F4_V1.4.0/Drivers/STM32F4xx_HAL_Driver/Src/stm32f4xx_hal.c ****       (+) Provide a tick value in millisecond
 288:../STM32Cube_FW_F4_V1.4.0/Drivers/STM32F4xx_HAL_Driver/Src/stm32f4xx_hal.c ****       (+) Provide a blocking delay in millisecond
 289:../STM32Cube_FW_F4_V1.4.0/Drivers/STM32F4xx_HAL_Driver/Src/stm32f4xx_hal.c ****       (+) Suspend the time base source interrupt
 290:../STM32Cube_FW_F4_V1.4.0/Drivers/STM32F4xx_HAL_Driver/Src/stm32f4xx_hal.c ****       (+) Resume the time base source interrupt
 291:../STM32Cube_FW_F4_V1.4.0/Drivers/STM32F4xx_HAL_Driver/Src/stm32f4xx_hal.c ****       (+) Get the HAL API driver version
ARM GAS  C:\cygwin\tmp\ccxydAnz.s 			page 11


 292:../STM32Cube_FW_F4_V1.4.0/Drivers/STM32F4xx_HAL_Driver/Src/stm32f4xx_hal.c ****       (+) Get the device identifier
 293:../STM32Cube_FW_F4_V1.4.0/Drivers/STM32F4xx_HAL_Driver/Src/stm32f4xx_hal.c ****       (+) Get the device revision identifier
 294:../STM32Cube_FW_F4_V1.4.0/Drivers/STM32F4xx_HAL_Driver/Src/stm32f4xx_hal.c ****       (+) Enable/Disable Debug module during SLEEP mode
 295:../STM32Cube_FW_F4_V1.4.0/Drivers/STM32F4xx_HAL_Driver/Src/stm32f4xx_hal.c ****       (+) Enable/Disable Debug module during STOP mode
 296:../STM32Cube_FW_F4_V1.4.0/Drivers/STM32F4xx_HAL_Driver/Src/stm32f4xx_hal.c ****       (+) Enable/Disable Debug module during STANDBY mode
 297:../STM32Cube_FW_F4_V1.4.0/Drivers/STM32F4xx_HAL_Driver/Src/stm32f4xx_hal.c **** 
 298:../STM32Cube_FW_F4_V1.4.0/Drivers/STM32F4xx_HAL_Driver/Src/stm32f4xx_hal.c **** @endverbatim
 299:../STM32Cube_FW_F4_V1.4.0/Drivers/STM32F4xx_HAL_Driver/Src/stm32f4xx_hal.c ****   * @{
 300:../STM32Cube_FW_F4_V1.4.0/Drivers/STM32F4xx_HAL_Driver/Src/stm32f4xx_hal.c ****   */
 301:../STM32Cube_FW_F4_V1.4.0/Drivers/STM32F4xx_HAL_Driver/Src/stm32f4xx_hal.c **** 
 302:../STM32Cube_FW_F4_V1.4.0/Drivers/STM32F4xx_HAL_Driver/Src/stm32f4xx_hal.c **** /**
 303:../STM32Cube_FW_F4_V1.4.0/Drivers/STM32F4xx_HAL_Driver/Src/stm32f4xx_hal.c ****   * @brief This function is called to increment  a global variable "uwTick"
 304:../STM32Cube_FW_F4_V1.4.0/Drivers/STM32F4xx_HAL_Driver/Src/stm32f4xx_hal.c ****   *        used as application time base.
 305:../STM32Cube_FW_F4_V1.4.0/Drivers/STM32F4xx_HAL_Driver/Src/stm32f4xx_hal.c ****   * @note In the default implementation, this variable is incremented each 1ms
 306:../STM32Cube_FW_F4_V1.4.0/Drivers/STM32F4xx_HAL_Driver/Src/stm32f4xx_hal.c ****   *       in Systick ISR.
 307:../STM32Cube_FW_F4_V1.4.0/Drivers/STM32F4xx_HAL_Driver/Src/stm32f4xx_hal.c ****  * @note This function is declared as __weak to be overwritten in case of other 
 308:../STM32Cube_FW_F4_V1.4.0/Drivers/STM32F4xx_HAL_Driver/Src/stm32f4xx_hal.c ****   *      implementations in user file.
 309:../STM32Cube_FW_F4_V1.4.0/Drivers/STM32F4xx_HAL_Driver/Src/stm32f4xx_hal.c ****   * @retval None
 310:../STM32Cube_FW_F4_V1.4.0/Drivers/STM32F4xx_HAL_Driver/Src/stm32f4xx_hal.c ****   */
 311:../STM32Cube_FW_F4_V1.4.0/Drivers/STM32F4xx_HAL_Driver/Src/stm32f4xx_hal.c **** __weak void HAL_IncTick(void)
 312:../STM32Cube_FW_F4_V1.4.0/Drivers/STM32F4xx_HAL_Driver/Src/stm32f4xx_hal.c **** {
 257              		.loc 1 312 0
 258              		.cfi_startproc
 259              		@ args = 0, pretend = 0, frame = 0
 260              		@ frame_needed = 0, uses_anonymous_args = 0
 261              		@ link register save eliminated.
 313:../STM32Cube_FW_F4_V1.4.0/Drivers/STM32F4xx_HAL_Driver/Src/stm32f4xx_hal.c ****   uwTick++;
 262              		.loc 1 313 0
 263 0000 024A     		ldr	r2, .L11	@ tmp112,
 264 0002 1368     		ldr	r3, [r2]	@ D.7526, uwTick
 265 0004 0133     		adds	r3, r3, #1	@ D.7526, D.7526,
 266 0006 1360     		str	r3, [r2]	@ D.7526, uwTick
 267 0008 7047     		bx	lr	@
 268              	.L12:
 269 000a 00BF     		.align	2
 270              	.L11:
 271 000c 00000000 		.word	.LANCHOR0
 272              		.cfi_endproc
 273              	.LFE128:
 274              		.size	HAL_IncTick, .-HAL_IncTick
 275              		.section	.text.HAL_GetTick,"ax",%progbits
 276              		.align	1
 277              		.weak	HAL_GetTick
 278              		.thumb
 279              		.thumb_func
 280              		.type	HAL_GetTick, %function
 281              	HAL_GetTick:
 282              	.LFB129:
 314:../STM32Cube_FW_F4_V1.4.0/Drivers/STM32F4xx_HAL_Driver/Src/stm32f4xx_hal.c **** }
 315:../STM32Cube_FW_F4_V1.4.0/Drivers/STM32F4xx_HAL_Driver/Src/stm32f4xx_hal.c **** 
 316:../STM32Cube_FW_F4_V1.4.0/Drivers/STM32F4xx_HAL_Driver/Src/stm32f4xx_hal.c **** /**
 317:../STM32Cube_FW_F4_V1.4.0/Drivers/STM32F4xx_HAL_Driver/Src/stm32f4xx_hal.c ****   * @brief Provides a tick value in millisecond.
 318:../STM32Cube_FW_F4_V1.4.0/Drivers/STM32F4xx_HAL_Driver/Src/stm32f4xx_hal.c ****   * @note This function is declared as __weak to be overwritten in case of other 
 319:../STM32Cube_FW_F4_V1.4.0/Drivers/STM32F4xx_HAL_Driver/Src/stm32f4xx_hal.c ****   *       implementations in user file.
 320:../STM32Cube_FW_F4_V1.4.0/Drivers/STM32F4xx_HAL_Driver/Src/stm32f4xx_hal.c ****   * @retval tick value
 321:../STM32Cube_FW_F4_V1.4.0/Drivers/STM32F4xx_HAL_Driver/Src/stm32f4xx_hal.c ****   */
 322:../STM32Cube_FW_F4_V1.4.0/Drivers/STM32F4xx_HAL_Driver/Src/stm32f4xx_hal.c **** __weak uint32_t HAL_GetTick(void)
ARM GAS  C:\cygwin\tmp\ccxydAnz.s 			page 12


 323:../STM32Cube_FW_F4_V1.4.0/Drivers/STM32F4xx_HAL_Driver/Src/stm32f4xx_hal.c **** {
 283              		.loc 1 323 0
 284              		.cfi_startproc
 285              		@ args = 0, pretend = 0, frame = 0
 286              		@ frame_needed = 0, uses_anonymous_args = 0
 287              		@ link register save eliminated.
 324:../STM32Cube_FW_F4_V1.4.0/Drivers/STM32F4xx_HAL_Driver/Src/stm32f4xx_hal.c ****   return uwTick;
 288              		.loc 1 324 0
 289 0000 014B     		ldr	r3, .L14	@ tmp112,
 290 0002 1868     		ldr	r0, [r3]	@ D.7529, uwTick
 325:../STM32Cube_FW_F4_V1.4.0/Drivers/STM32F4xx_HAL_Driver/Src/stm32f4xx_hal.c **** }
 291              		.loc 1 325 0
 292 0004 7047     		bx	lr	@
 293              	.L15:
 294 0006 00BF     		.align	2
 295              	.L14:
 296 0008 00000000 		.word	.LANCHOR0
 297              		.cfi_endproc
 298              	.LFE129:
 299              		.size	HAL_GetTick, .-HAL_GetTick
 300              		.section	.text.HAL_Delay,"ax",%progbits
 301              		.align	1
 302              		.weak	HAL_Delay
 303              		.thumb
 304              		.thumb_func
 305              		.type	HAL_Delay, %function
 306              	HAL_Delay:
 307              	.LFB130:
 326:../STM32Cube_FW_F4_V1.4.0/Drivers/STM32F4xx_HAL_Driver/Src/stm32f4xx_hal.c **** 
 327:../STM32Cube_FW_F4_V1.4.0/Drivers/STM32F4xx_HAL_Driver/Src/stm32f4xx_hal.c **** /**
 328:../STM32Cube_FW_F4_V1.4.0/Drivers/STM32F4xx_HAL_Driver/Src/stm32f4xx_hal.c ****   * @brief This function provides accurate delay (in milliseconds) based 
 329:../STM32Cube_FW_F4_V1.4.0/Drivers/STM32F4xx_HAL_Driver/Src/stm32f4xx_hal.c ****   *        on variable incremented.
 330:../STM32Cube_FW_F4_V1.4.0/Drivers/STM32F4xx_HAL_Driver/Src/stm32f4xx_hal.c ****   * @note In the default implementation , SysTick timer is the source of time base.
 331:../STM32Cube_FW_F4_V1.4.0/Drivers/STM32F4xx_HAL_Driver/Src/stm32f4xx_hal.c ****   *       It is used to generate interrupts at regular time intervals where uwTick
 332:../STM32Cube_FW_F4_V1.4.0/Drivers/STM32F4xx_HAL_Driver/Src/stm32f4xx_hal.c ****   *       is incremented.
 333:../STM32Cube_FW_F4_V1.4.0/Drivers/STM32F4xx_HAL_Driver/Src/stm32f4xx_hal.c ****   * @note This function is declared as __weak to be overwritten in case of other
 334:../STM32Cube_FW_F4_V1.4.0/Drivers/STM32F4xx_HAL_Driver/Src/stm32f4xx_hal.c ****   *       implementations in user file.
 335:../STM32Cube_FW_F4_V1.4.0/Drivers/STM32F4xx_HAL_Driver/Src/stm32f4xx_hal.c ****   * @param Delay: specifies the delay time length, in milliseconds.
 336:../STM32Cube_FW_F4_V1.4.0/Drivers/STM32F4xx_HAL_Driver/Src/stm32f4xx_hal.c ****   * @retval None
 337:../STM32Cube_FW_F4_V1.4.0/Drivers/STM32F4xx_HAL_Driver/Src/stm32f4xx_hal.c ****   */
 338:../STM32Cube_FW_F4_V1.4.0/Drivers/STM32F4xx_HAL_Driver/Src/stm32f4xx_hal.c **** __weak void HAL_Delay(__IO uint32_t Delay)
 339:../STM32Cube_FW_F4_V1.4.0/Drivers/STM32F4xx_HAL_Driver/Src/stm32f4xx_hal.c **** {
 308              		.loc 1 339 0
 309              		.cfi_startproc
 310              		@ args = 0, pretend = 0, frame = 8
 311              		@ frame_needed = 0, uses_anonymous_args = 0
 312              	.LVL8:
 313 0000 13B5     		push	{r0, r1, r4, lr}	@
 314              		.cfi_def_cfa_offset 16
 315              		.cfi_offset 4, -8
 316              		.cfi_offset 14, -4
 317              		.loc 1 339 0
 318 0002 0190     		str	r0, [sp, #4]	@ Delay, Delay
 340:../STM32Cube_FW_F4_V1.4.0/Drivers/STM32F4xx_HAL_Driver/Src/stm32f4xx_hal.c ****   uint32_t tickstart = 0;
 341:../STM32Cube_FW_F4_V1.4.0/Drivers/STM32F4xx_HAL_Driver/Src/stm32f4xx_hal.c ****   tickstart = HAL_GetTick();
 319              		.loc 1 341 0
 320 0004 FFF7FEFF 		bl	HAL_GetTick	@
ARM GAS  C:\cygwin\tmp\ccxydAnz.s 			page 13


 321              	.LVL9:
 322 0008 0446     		mov	r4, r0	@ tickstart,
 323              	.LVL10:
 324              	.L17:
 342:../STM32Cube_FW_F4_V1.4.0/Drivers/STM32F4xx_HAL_Driver/Src/stm32f4xx_hal.c ****   while((HAL_GetTick() - tickstart) < Delay)
 325              		.loc 1 342 0 discriminator 1
 326 000a FFF7FEFF 		bl	HAL_GetTick	@
 327              	.LVL11:
 328 000e 019B     		ldr	r3, [sp, #4]	@ D.7532, Delay
 329 0010 001B     		subs	r0, r0, r4	@ D.7532,, tickstart
 330 0012 9842     		cmp	r0, r3	@ D.7532, D.7532
 331 0014 F9D3     		bcc	.L17	@,
 343:../STM32Cube_FW_F4_V1.4.0/Drivers/STM32F4xx_HAL_Driver/Src/stm32f4xx_hal.c ****   {
 344:../STM32Cube_FW_F4_V1.4.0/Drivers/STM32F4xx_HAL_Driver/Src/stm32f4xx_hal.c ****   }
 345:../STM32Cube_FW_F4_V1.4.0/Drivers/STM32F4xx_HAL_Driver/Src/stm32f4xx_hal.c **** }
 332              		.loc 1 345 0
 333 0016 02B0     		add	sp, sp, #8	@,,
 334              		.cfi_def_cfa_offset 8
 335              		@ sp needed	@
 336 0018 10BD     		pop	{r4, pc}	@
 337              		.cfi_endproc
 338              	.LFE130:
 339              		.size	HAL_Delay, .-HAL_Delay
 340              		.section	.text.HAL_SuspendTick,"ax",%progbits
 341              		.align	1
 342              		.weak	HAL_SuspendTick
 343              		.thumb
 344              		.thumb_func
 345              		.type	HAL_SuspendTick, %function
 346              	HAL_SuspendTick:
 347              	.LFB131:
 346:../STM32Cube_FW_F4_V1.4.0/Drivers/STM32F4xx_HAL_Driver/Src/stm32f4xx_hal.c **** 
 347:../STM32Cube_FW_F4_V1.4.0/Drivers/STM32F4xx_HAL_Driver/Src/stm32f4xx_hal.c **** /**
 348:../STM32Cube_FW_F4_V1.4.0/Drivers/STM32F4xx_HAL_Driver/Src/stm32f4xx_hal.c ****   * @brief Suspend Tick increment.
 349:../STM32Cube_FW_F4_V1.4.0/Drivers/STM32F4xx_HAL_Driver/Src/stm32f4xx_hal.c ****   * @note In the default implementation , SysTick timer is the source of time base. It is
 350:../STM32Cube_FW_F4_V1.4.0/Drivers/STM32F4xx_HAL_Driver/Src/stm32f4xx_hal.c ****   *       used to generate interrupts at regular time intervals. Once HAL_SuspendTick()
 351:../STM32Cube_FW_F4_V1.4.0/Drivers/STM32F4xx_HAL_Driver/Src/stm32f4xx_hal.c ****   *       is called, the SysTick interrupt will be disabled and so Tick increment 
 352:../STM32Cube_FW_F4_V1.4.0/Drivers/STM32F4xx_HAL_Driver/Src/stm32f4xx_hal.c ****   *       is suspended.
 353:../STM32Cube_FW_F4_V1.4.0/Drivers/STM32F4xx_HAL_Driver/Src/stm32f4xx_hal.c ****   * @note This function is declared as __weak to be overwritten in case of other
 354:../STM32Cube_FW_F4_V1.4.0/Drivers/STM32F4xx_HAL_Driver/Src/stm32f4xx_hal.c ****   *       implementations in user file.
 355:../STM32Cube_FW_F4_V1.4.0/Drivers/STM32F4xx_HAL_Driver/Src/stm32f4xx_hal.c ****   * @retval None
 356:../STM32Cube_FW_F4_V1.4.0/Drivers/STM32F4xx_HAL_Driver/Src/stm32f4xx_hal.c ****   */
 357:../STM32Cube_FW_F4_V1.4.0/Drivers/STM32F4xx_HAL_Driver/Src/stm32f4xx_hal.c **** __weak void HAL_SuspendTick(void)
 358:../STM32Cube_FW_F4_V1.4.0/Drivers/STM32F4xx_HAL_Driver/Src/stm32f4xx_hal.c **** {
 348              		.loc 1 358 0
 349              		.cfi_startproc
 350              		@ args = 0, pretend = 0, frame = 0
 351              		@ frame_needed = 0, uses_anonymous_args = 0
 352              		@ link register save eliminated.
 359:../STM32Cube_FW_F4_V1.4.0/Drivers/STM32F4xx_HAL_Driver/Src/stm32f4xx_hal.c ****   /* Disable SysTick Interrupt */
 360:../STM32Cube_FW_F4_V1.4.0/Drivers/STM32F4xx_HAL_Driver/Src/stm32f4xx_hal.c ****   SysTick->CTRL &= ~SysTick_CTRL_TICKINT_Msk;
 353              		.loc 1 360 0
 354 0000 024A     		ldr	r2, .L21	@ tmp112,
 355 0002 1368     		ldr	r3, [r2]	@ D.7535, MEM[(struct SysTick_Type *)3758153744B].CTRL
 356 0004 23F00203 		bic	r3, r3, #2	@ D.7535, D.7535,
 357 0008 1360     		str	r3, [r2]	@ D.7535, MEM[(struct SysTick_Type *)3758153744B].CTRL
 358 000a 7047     		bx	lr	@
ARM GAS  C:\cygwin\tmp\ccxydAnz.s 			page 14


 359              	.L22:
 360              		.align	2
 361              	.L21:
 362 000c 10E000E0 		.word	-536813552
 363              		.cfi_endproc
 364              	.LFE131:
 365              		.size	HAL_SuspendTick, .-HAL_SuspendTick
 366              		.section	.text.HAL_ResumeTick,"ax",%progbits
 367              		.align	1
 368              		.weak	HAL_ResumeTick
 369              		.thumb
 370              		.thumb_func
 371              		.type	HAL_ResumeTick, %function
 372              	HAL_ResumeTick:
 373              	.LFB132:
 361:../STM32Cube_FW_F4_V1.4.0/Drivers/STM32F4xx_HAL_Driver/Src/stm32f4xx_hal.c **** }
 362:../STM32Cube_FW_F4_V1.4.0/Drivers/STM32F4xx_HAL_Driver/Src/stm32f4xx_hal.c **** 
 363:../STM32Cube_FW_F4_V1.4.0/Drivers/STM32F4xx_HAL_Driver/Src/stm32f4xx_hal.c **** /**
 364:../STM32Cube_FW_F4_V1.4.0/Drivers/STM32F4xx_HAL_Driver/Src/stm32f4xx_hal.c ****   * @brief Resume Tick increment.
 365:../STM32Cube_FW_F4_V1.4.0/Drivers/STM32F4xx_HAL_Driver/Src/stm32f4xx_hal.c ****   * @note In the default implementation , SysTick timer is the source of time base. It is
 366:../STM32Cube_FW_F4_V1.4.0/Drivers/STM32F4xx_HAL_Driver/Src/stm32f4xx_hal.c ****   *       used to generate interrupts at regular time intervals. Once HAL_ResumeTick()
 367:../STM32Cube_FW_F4_V1.4.0/Drivers/STM32F4xx_HAL_Driver/Src/stm32f4xx_hal.c ****   *       is called, the SysTick interrupt will be enabled and so Tick increment 
 368:../STM32Cube_FW_F4_V1.4.0/Drivers/STM32F4xx_HAL_Driver/Src/stm32f4xx_hal.c ****   *       is resumed.
 369:../STM32Cube_FW_F4_V1.4.0/Drivers/STM32F4xx_HAL_Driver/Src/stm32f4xx_hal.c ****   * @note This function is declared as __weak to be overwritten in case of other
 370:../STM32Cube_FW_F4_V1.4.0/Drivers/STM32F4xx_HAL_Driver/Src/stm32f4xx_hal.c ****   *       implementations in user file.
 371:../STM32Cube_FW_F4_V1.4.0/Drivers/STM32F4xx_HAL_Driver/Src/stm32f4xx_hal.c ****   * @retval None
 372:../STM32Cube_FW_F4_V1.4.0/Drivers/STM32F4xx_HAL_Driver/Src/stm32f4xx_hal.c ****   */
 373:../STM32Cube_FW_F4_V1.4.0/Drivers/STM32F4xx_HAL_Driver/Src/stm32f4xx_hal.c **** __weak void HAL_ResumeTick(void)
 374:../STM32Cube_FW_F4_V1.4.0/Drivers/STM32F4xx_HAL_Driver/Src/stm32f4xx_hal.c **** {
 374              		.loc 1 374 0
 375              		.cfi_startproc
 376              		@ args = 0, pretend = 0, frame = 0
 377              		@ frame_needed = 0, uses_anonymous_args = 0
 378              		@ link register save eliminated.
 375:../STM32Cube_FW_F4_V1.4.0/Drivers/STM32F4xx_HAL_Driver/Src/stm32f4xx_hal.c ****   /* Enable SysTick Interrupt */
 376:../STM32Cube_FW_F4_V1.4.0/Drivers/STM32F4xx_HAL_Driver/Src/stm32f4xx_hal.c ****   SysTick->CTRL  |= SysTick_CTRL_TICKINT_Msk;
 379              		.loc 1 376 0
 380 0000 024A     		ldr	r2, .L24	@ tmp112,
 381 0002 1368     		ldr	r3, [r2]	@ D.7538, MEM[(struct SysTick_Type *)3758153744B].CTRL
 382 0004 43F00203 		orr	r3, r3, #2	@ D.7538, D.7538,
 383 0008 1360     		str	r3, [r2]	@ D.7538, MEM[(struct SysTick_Type *)3758153744B].CTRL
 384 000a 7047     		bx	lr	@
 385              	.L25:
 386              		.align	2
 387              	.L24:
 388 000c 10E000E0 		.word	-536813552
 389              		.cfi_endproc
 390              	.LFE132:
 391              		.size	HAL_ResumeTick, .-HAL_ResumeTick
 392              		.section	.text.HAL_GetHalVersion,"ax",%progbits
 393              		.align	1
 394              		.global	HAL_GetHalVersion
 395              		.thumb
 396              		.thumb_func
 397              		.type	HAL_GetHalVersion, %function
 398              	HAL_GetHalVersion:
 399              	.LFB133:
ARM GAS  C:\cygwin\tmp\ccxydAnz.s 			page 15


 377:../STM32Cube_FW_F4_V1.4.0/Drivers/STM32F4xx_HAL_Driver/Src/stm32f4xx_hal.c **** }
 378:../STM32Cube_FW_F4_V1.4.0/Drivers/STM32F4xx_HAL_Driver/Src/stm32f4xx_hal.c **** 
 379:../STM32Cube_FW_F4_V1.4.0/Drivers/STM32F4xx_HAL_Driver/Src/stm32f4xx_hal.c **** /**
 380:../STM32Cube_FW_F4_V1.4.0/Drivers/STM32F4xx_HAL_Driver/Src/stm32f4xx_hal.c ****   * @brief  Returns the HAL revision
 381:../STM32Cube_FW_F4_V1.4.0/Drivers/STM32F4xx_HAL_Driver/Src/stm32f4xx_hal.c ****   * @retval version : 0xXYZR (8bits for each decimal, R for RC)
 382:../STM32Cube_FW_F4_V1.4.0/Drivers/STM32F4xx_HAL_Driver/Src/stm32f4xx_hal.c ****   */
 383:../STM32Cube_FW_F4_V1.4.0/Drivers/STM32F4xx_HAL_Driver/Src/stm32f4xx_hal.c **** uint32_t HAL_GetHalVersion(void)
 384:../STM32Cube_FW_F4_V1.4.0/Drivers/STM32F4xx_HAL_Driver/Src/stm32f4xx_hal.c **** {
 400              		.loc 1 384 0
 401              		.cfi_startproc
 402              		@ args = 0, pretend = 0, frame = 0
 403              		@ frame_needed = 0, uses_anonymous_args = 0
 404              		@ link register save eliminated.
 385:../STM32Cube_FW_F4_V1.4.0/Drivers/STM32F4xx_HAL_Driver/Src/stm32f4xx_hal.c ****  return __STM32F4xx_HAL_VERSION;
 386:../STM32Cube_FW_F4_V1.4.0/Drivers/STM32F4xx_HAL_Driver/Src/stm32f4xx_hal.c **** }
 405              		.loc 1 386 0
 406 0000 4FF08170 		mov	r0, #16908288	@,
 407 0004 7047     		bx	lr	@
 408              		.cfi_endproc
 409              	.LFE133:
 410              		.size	HAL_GetHalVersion, .-HAL_GetHalVersion
 411              		.section	.text.HAL_GetREVID,"ax",%progbits
 412              		.align	1
 413              		.global	HAL_GetREVID
 414              		.thumb
 415              		.thumb_func
 416              		.type	HAL_GetREVID, %function
 417              	HAL_GetREVID:
 418              	.LFB134:
 387:../STM32Cube_FW_F4_V1.4.0/Drivers/STM32F4xx_HAL_Driver/Src/stm32f4xx_hal.c **** 
 388:../STM32Cube_FW_F4_V1.4.0/Drivers/STM32F4xx_HAL_Driver/Src/stm32f4xx_hal.c **** /**
 389:../STM32Cube_FW_F4_V1.4.0/Drivers/STM32F4xx_HAL_Driver/Src/stm32f4xx_hal.c ****   * @brief  Returns the device revision identifier.
 390:../STM32Cube_FW_F4_V1.4.0/Drivers/STM32F4xx_HAL_Driver/Src/stm32f4xx_hal.c ****   * @retval Device revision identifier
 391:../STM32Cube_FW_F4_V1.4.0/Drivers/STM32F4xx_HAL_Driver/Src/stm32f4xx_hal.c ****   */
 392:../STM32Cube_FW_F4_V1.4.0/Drivers/STM32F4xx_HAL_Driver/Src/stm32f4xx_hal.c **** uint32_t HAL_GetREVID(void)
 393:../STM32Cube_FW_F4_V1.4.0/Drivers/STM32F4xx_HAL_Driver/Src/stm32f4xx_hal.c **** {
 419              		.loc 1 393 0
 420              		.cfi_startproc
 421              		@ args = 0, pretend = 0, frame = 0
 422              		@ frame_needed = 0, uses_anonymous_args = 0
 423              		@ link register save eliminated.
 394:../STM32Cube_FW_F4_V1.4.0/Drivers/STM32F4xx_HAL_Driver/Src/stm32f4xx_hal.c ****    return((DBGMCU->IDCODE) >> 16);
 424              		.loc 1 394 0
 425 0000 014B     		ldr	r3, .L28	@ tmp113,
 426 0002 1868     		ldr	r0, [r3]	@ D.7543, MEM[(struct DBGMCU_TypeDef *)3758366720B].IDCODE
 395:../STM32Cube_FW_F4_V1.4.0/Drivers/STM32F4xx_HAL_Driver/Src/stm32f4xx_hal.c **** }
 427              		.loc 1 395 0
 428 0004 000C     		lsrs	r0, r0, #16	@, D.7543,
 429 0006 7047     		bx	lr	@
 430              	.L29:
 431              		.align	2
 432              	.L28:
 433 0008 002004E0 		.word	-536600576
 434              		.cfi_endproc
 435              	.LFE134:
 436              		.size	HAL_GetREVID, .-HAL_GetREVID
 437              		.section	.text.HAL_GetDEVID,"ax",%progbits
ARM GAS  C:\cygwin\tmp\ccxydAnz.s 			page 16


 438              		.align	1
 439              		.global	HAL_GetDEVID
 440              		.thumb
 441              		.thumb_func
 442              		.type	HAL_GetDEVID, %function
 443              	HAL_GetDEVID:
 444              	.LFB135:
 396:../STM32Cube_FW_F4_V1.4.0/Drivers/STM32F4xx_HAL_Driver/Src/stm32f4xx_hal.c **** 
 397:../STM32Cube_FW_F4_V1.4.0/Drivers/STM32F4xx_HAL_Driver/Src/stm32f4xx_hal.c **** /**
 398:../STM32Cube_FW_F4_V1.4.0/Drivers/STM32F4xx_HAL_Driver/Src/stm32f4xx_hal.c ****   * @brief  Returns the device identifier.
 399:../STM32Cube_FW_F4_V1.4.0/Drivers/STM32F4xx_HAL_Driver/Src/stm32f4xx_hal.c ****   * @retval Device identifier
 400:../STM32Cube_FW_F4_V1.4.0/Drivers/STM32F4xx_HAL_Driver/Src/stm32f4xx_hal.c ****   */
 401:../STM32Cube_FW_F4_V1.4.0/Drivers/STM32F4xx_HAL_Driver/Src/stm32f4xx_hal.c **** uint32_t HAL_GetDEVID(void)
 402:../STM32Cube_FW_F4_V1.4.0/Drivers/STM32F4xx_HAL_Driver/Src/stm32f4xx_hal.c **** {
 445              		.loc 1 402 0
 446              		.cfi_startproc
 447              		@ args = 0, pretend = 0, frame = 0
 448              		@ frame_needed = 0, uses_anonymous_args = 0
 449              		@ link register save eliminated.
 403:../STM32Cube_FW_F4_V1.4.0/Drivers/STM32F4xx_HAL_Driver/Src/stm32f4xx_hal.c ****    return((DBGMCU->IDCODE) & IDCODE_DEVID_MASK);
 450              		.loc 1 403 0
 451 0000 024B     		ldr	r3, .L31	@ tmp113,
 452 0002 1868     		ldr	r0, [r3]	@ D.7547, MEM[(struct DBGMCU_TypeDef *)3758366720B].IDCODE
 404:../STM32Cube_FW_F4_V1.4.0/Drivers/STM32F4xx_HAL_Driver/Src/stm32f4xx_hal.c **** }
 453              		.loc 1 404 0
 454 0004 C0F30B00 		ubfx	r0, r0, #0, #12	@, D.7547,,
 455 0008 7047     		bx	lr	@
 456              	.L32:
 457 000a 00BF     		.align	2
 458              	.L31:
 459 000c 002004E0 		.word	-536600576
 460              		.cfi_endproc
 461              	.LFE135:
 462              		.size	HAL_GetDEVID, .-HAL_GetDEVID
 463              		.section	.text.HAL_DBGMCU_EnableDBGSleepMode,"ax",%progbits
 464              		.align	1
 465              		.global	HAL_DBGMCU_EnableDBGSleepMode
 466              		.thumb
 467              		.thumb_func
 468              		.type	HAL_DBGMCU_EnableDBGSleepMode, %function
 469              	HAL_DBGMCU_EnableDBGSleepMode:
 470              	.LFB136:
 405:../STM32Cube_FW_F4_V1.4.0/Drivers/STM32F4xx_HAL_Driver/Src/stm32f4xx_hal.c **** 
 406:../STM32Cube_FW_F4_V1.4.0/Drivers/STM32F4xx_HAL_Driver/Src/stm32f4xx_hal.c **** /**
 407:../STM32Cube_FW_F4_V1.4.0/Drivers/STM32F4xx_HAL_Driver/Src/stm32f4xx_hal.c ****   * @brief  Enable the Debug Module during SLEEP mode
 408:../STM32Cube_FW_F4_V1.4.0/Drivers/STM32F4xx_HAL_Driver/Src/stm32f4xx_hal.c ****   * @retval None
 409:../STM32Cube_FW_F4_V1.4.0/Drivers/STM32F4xx_HAL_Driver/Src/stm32f4xx_hal.c ****   */
 410:../STM32Cube_FW_F4_V1.4.0/Drivers/STM32F4xx_HAL_Driver/Src/stm32f4xx_hal.c **** void HAL_DBGMCU_EnableDBGSleepMode(void)
 411:../STM32Cube_FW_F4_V1.4.0/Drivers/STM32F4xx_HAL_Driver/Src/stm32f4xx_hal.c **** {
 471              		.loc 1 411 0
 472              		.cfi_startproc
 473              		@ args = 0, pretend = 0, frame = 0
 474              		@ frame_needed = 0, uses_anonymous_args = 0
 475              		@ link register save eliminated.
 412:../STM32Cube_FW_F4_V1.4.0/Drivers/STM32F4xx_HAL_Driver/Src/stm32f4xx_hal.c ****   SET_BIT(DBGMCU->CR, DBGMCU_CR_DBG_SLEEP);
 476              		.loc 1 412 0
 477 0000 024A     		ldr	r2, .L34	@ tmp112,
ARM GAS  C:\cygwin\tmp\ccxydAnz.s 			page 17


 478 0002 5368     		ldr	r3, [r2, #4]	@ D.7551, MEM[(struct DBGMCU_TypeDef *)3758366720B].CR
 479 0004 43F00103 		orr	r3, r3, #1	@ D.7551, D.7551,
 480 0008 5360     		str	r3, [r2, #4]	@ D.7551, MEM[(struct DBGMCU_TypeDef *)3758366720B].CR
 481 000a 7047     		bx	lr	@
 482              	.L35:
 483              		.align	2
 484              	.L34:
 485 000c 002004E0 		.word	-536600576
 486              		.cfi_endproc
 487              	.LFE136:
 488              		.size	HAL_DBGMCU_EnableDBGSleepMode, .-HAL_DBGMCU_EnableDBGSleepMode
 489              		.section	.text.HAL_DBGMCU_DisableDBGSleepMode,"ax",%progbits
 490              		.align	1
 491              		.global	HAL_DBGMCU_DisableDBGSleepMode
 492              		.thumb
 493              		.thumb_func
 494              		.type	HAL_DBGMCU_DisableDBGSleepMode, %function
 495              	HAL_DBGMCU_DisableDBGSleepMode:
 496              	.LFB137:
 413:../STM32Cube_FW_F4_V1.4.0/Drivers/STM32F4xx_HAL_Driver/Src/stm32f4xx_hal.c **** }
 414:../STM32Cube_FW_F4_V1.4.0/Drivers/STM32F4xx_HAL_Driver/Src/stm32f4xx_hal.c **** 
 415:../STM32Cube_FW_F4_V1.4.0/Drivers/STM32F4xx_HAL_Driver/Src/stm32f4xx_hal.c **** /**
 416:../STM32Cube_FW_F4_V1.4.0/Drivers/STM32F4xx_HAL_Driver/Src/stm32f4xx_hal.c ****   * @brief  Disable the Debug Module during SLEEP mode
 417:../STM32Cube_FW_F4_V1.4.0/Drivers/STM32F4xx_HAL_Driver/Src/stm32f4xx_hal.c ****   * @retval None
 418:../STM32Cube_FW_F4_V1.4.0/Drivers/STM32F4xx_HAL_Driver/Src/stm32f4xx_hal.c ****   */
 419:../STM32Cube_FW_F4_V1.4.0/Drivers/STM32F4xx_HAL_Driver/Src/stm32f4xx_hal.c **** void HAL_DBGMCU_DisableDBGSleepMode(void)
 420:../STM32Cube_FW_F4_V1.4.0/Drivers/STM32F4xx_HAL_Driver/Src/stm32f4xx_hal.c **** {
 497              		.loc 1 420 0
 498              		.cfi_startproc
 499              		@ args = 0, pretend = 0, frame = 0
 500              		@ frame_needed = 0, uses_anonymous_args = 0
 501              		@ link register save eliminated.
 421:../STM32Cube_FW_F4_V1.4.0/Drivers/STM32F4xx_HAL_Driver/Src/stm32f4xx_hal.c ****   CLEAR_BIT(DBGMCU->CR, DBGMCU_CR_DBG_SLEEP);
 502              		.loc 1 421 0
 503 0000 024A     		ldr	r2, .L37	@ tmp112,
 504 0002 5368     		ldr	r3, [r2, #4]	@ D.7554, MEM[(struct DBGMCU_TypeDef *)3758366720B].CR
 505 0004 23F00103 		bic	r3, r3, #1	@ D.7554, D.7554,
 506 0008 5360     		str	r3, [r2, #4]	@ D.7554, MEM[(struct DBGMCU_TypeDef *)3758366720B].CR
 507 000a 7047     		bx	lr	@
 508              	.L38:
 509              		.align	2
 510              	.L37:
 511 000c 002004E0 		.word	-536600576
 512              		.cfi_endproc
 513              	.LFE137:
 514              		.size	HAL_DBGMCU_DisableDBGSleepMode, .-HAL_DBGMCU_DisableDBGSleepMode
 515              		.section	.text.HAL_DBGMCU_EnableDBGStopMode,"ax",%progbits
 516              		.align	1
 517              		.global	HAL_DBGMCU_EnableDBGStopMode
 518              		.thumb
 519              		.thumb_func
 520              		.type	HAL_DBGMCU_EnableDBGStopMode, %function
 521              	HAL_DBGMCU_EnableDBGStopMode:
 522              	.LFB138:
 422:../STM32Cube_FW_F4_V1.4.0/Drivers/STM32F4xx_HAL_Driver/Src/stm32f4xx_hal.c **** }
 423:../STM32Cube_FW_F4_V1.4.0/Drivers/STM32F4xx_HAL_Driver/Src/stm32f4xx_hal.c **** 
 424:../STM32Cube_FW_F4_V1.4.0/Drivers/STM32F4xx_HAL_Driver/Src/stm32f4xx_hal.c **** /**
ARM GAS  C:\cygwin\tmp\ccxydAnz.s 			page 18


 425:../STM32Cube_FW_F4_V1.4.0/Drivers/STM32F4xx_HAL_Driver/Src/stm32f4xx_hal.c ****   * @brief  Enable the Debug Module during STOP mode
 426:../STM32Cube_FW_F4_V1.4.0/Drivers/STM32F4xx_HAL_Driver/Src/stm32f4xx_hal.c ****   * @retval None
 427:../STM32Cube_FW_F4_V1.4.0/Drivers/STM32F4xx_HAL_Driver/Src/stm32f4xx_hal.c ****   */
 428:../STM32Cube_FW_F4_V1.4.0/Drivers/STM32F4xx_HAL_Driver/Src/stm32f4xx_hal.c **** void HAL_DBGMCU_EnableDBGStopMode(void)
 429:../STM32Cube_FW_F4_V1.4.0/Drivers/STM32F4xx_HAL_Driver/Src/stm32f4xx_hal.c **** {
 523              		.loc 1 429 0
 524              		.cfi_startproc
 525              		@ args = 0, pretend = 0, frame = 0
 526              		@ frame_needed = 0, uses_anonymous_args = 0
 527              		@ link register save eliminated.
 430:../STM32Cube_FW_F4_V1.4.0/Drivers/STM32F4xx_HAL_Driver/Src/stm32f4xx_hal.c ****   SET_BIT(DBGMCU->CR, DBGMCU_CR_DBG_STOP);
 528              		.loc 1 430 0
 529 0000 024A     		ldr	r2, .L40	@ tmp112,
 530 0002 5368     		ldr	r3, [r2, #4]	@ D.7557, MEM[(struct DBGMCU_TypeDef *)3758366720B].CR
 531 0004 43F00203 		orr	r3, r3, #2	@ D.7557, D.7557,
 532 0008 5360     		str	r3, [r2, #4]	@ D.7557, MEM[(struct DBGMCU_TypeDef *)3758366720B].CR
 533 000a 7047     		bx	lr	@
 534              	.L41:
 535              		.align	2
 536              	.L40:
 537 000c 002004E0 		.word	-536600576
 538              		.cfi_endproc
 539              	.LFE138:
 540              		.size	HAL_DBGMCU_EnableDBGStopMode, .-HAL_DBGMCU_EnableDBGStopMode
 541              		.section	.text.HAL_DBGMCU_DisableDBGStopMode,"ax",%progbits
 542              		.align	1
 543              		.global	HAL_DBGMCU_DisableDBGStopMode
 544              		.thumb
 545              		.thumb_func
 546              		.type	HAL_DBGMCU_DisableDBGStopMode, %function
 547              	HAL_DBGMCU_DisableDBGStopMode:
 548              	.LFB139:
 431:../STM32Cube_FW_F4_V1.4.0/Drivers/STM32F4xx_HAL_Driver/Src/stm32f4xx_hal.c **** }
 432:../STM32Cube_FW_F4_V1.4.0/Drivers/STM32F4xx_HAL_Driver/Src/stm32f4xx_hal.c **** 
 433:../STM32Cube_FW_F4_V1.4.0/Drivers/STM32F4xx_HAL_Driver/Src/stm32f4xx_hal.c **** /**
 434:../STM32Cube_FW_F4_V1.4.0/Drivers/STM32F4xx_HAL_Driver/Src/stm32f4xx_hal.c ****   * @brief  Disable the Debug Module during STOP mode
 435:../STM32Cube_FW_F4_V1.4.0/Drivers/STM32F4xx_HAL_Driver/Src/stm32f4xx_hal.c ****   * @retval None
 436:../STM32Cube_FW_F4_V1.4.0/Drivers/STM32F4xx_HAL_Driver/Src/stm32f4xx_hal.c ****   */
 437:../STM32Cube_FW_F4_V1.4.0/Drivers/STM32F4xx_HAL_Driver/Src/stm32f4xx_hal.c **** void HAL_DBGMCU_DisableDBGStopMode(void)
 438:../STM32Cube_FW_F4_V1.4.0/Drivers/STM32F4xx_HAL_Driver/Src/stm32f4xx_hal.c **** {
 549              		.loc 1 438 0
 550              		.cfi_startproc
 551              		@ args = 0, pretend = 0, frame = 0
 552              		@ frame_needed = 0, uses_anonymous_args = 0
 553              		@ link register save eliminated.
 439:../STM32Cube_FW_F4_V1.4.0/Drivers/STM32F4xx_HAL_Driver/Src/stm32f4xx_hal.c ****   CLEAR_BIT(DBGMCU->CR, DBGMCU_CR_DBG_STOP);
 554              		.loc 1 439 0
 555 0000 024A     		ldr	r2, .L43	@ tmp112,
 556 0002 5368     		ldr	r3, [r2, #4]	@ D.7560, MEM[(struct DBGMCU_TypeDef *)3758366720B].CR
 557 0004 23F00203 		bic	r3, r3, #2	@ D.7560, D.7560,
 558 0008 5360     		str	r3, [r2, #4]	@ D.7560, MEM[(struct DBGMCU_TypeDef *)3758366720B].CR
 559 000a 7047     		bx	lr	@
 560              	.L44:
 561              		.align	2
 562              	.L43:
 563 000c 002004E0 		.word	-536600576
 564              		.cfi_endproc
ARM GAS  C:\cygwin\tmp\ccxydAnz.s 			page 19


 565              	.LFE139:
 566              		.size	HAL_DBGMCU_DisableDBGStopMode, .-HAL_DBGMCU_DisableDBGStopMode
 567              		.section	.text.HAL_DBGMCU_EnableDBGStandbyMode,"ax",%progbits
 568              		.align	1
 569              		.global	HAL_DBGMCU_EnableDBGStandbyMode
 570              		.thumb
 571              		.thumb_func
 572              		.type	HAL_DBGMCU_EnableDBGStandbyMode, %function
 573              	HAL_DBGMCU_EnableDBGStandbyMode:
 574              	.LFB140:
 440:../STM32Cube_FW_F4_V1.4.0/Drivers/STM32F4xx_HAL_Driver/Src/stm32f4xx_hal.c **** }
 441:../STM32Cube_FW_F4_V1.4.0/Drivers/STM32F4xx_HAL_Driver/Src/stm32f4xx_hal.c **** 
 442:../STM32Cube_FW_F4_V1.4.0/Drivers/STM32F4xx_HAL_Driver/Src/stm32f4xx_hal.c **** /**
 443:../STM32Cube_FW_F4_V1.4.0/Drivers/STM32F4xx_HAL_Driver/Src/stm32f4xx_hal.c ****   * @brief  Enable the Debug Module during STANDBY mode
 444:../STM32Cube_FW_F4_V1.4.0/Drivers/STM32F4xx_HAL_Driver/Src/stm32f4xx_hal.c ****   * @retval None
 445:../STM32Cube_FW_F4_V1.4.0/Drivers/STM32F4xx_HAL_Driver/Src/stm32f4xx_hal.c ****   */
 446:../STM32Cube_FW_F4_V1.4.0/Drivers/STM32F4xx_HAL_Driver/Src/stm32f4xx_hal.c **** void HAL_DBGMCU_EnableDBGStandbyMode(void)
 447:../STM32Cube_FW_F4_V1.4.0/Drivers/STM32F4xx_HAL_Driver/Src/stm32f4xx_hal.c **** {
 575              		.loc 1 447 0
 576              		.cfi_startproc
 577              		@ args = 0, pretend = 0, frame = 0
 578              		@ frame_needed = 0, uses_anonymous_args = 0
 579              		@ link register save eliminated.
 448:../STM32Cube_FW_F4_V1.4.0/Drivers/STM32F4xx_HAL_Driver/Src/stm32f4xx_hal.c ****   SET_BIT(DBGMCU->CR, DBGMCU_CR_DBG_STANDBY);
 580              		.loc 1 448 0
 581 0000 024A     		ldr	r2, .L46	@ tmp112,
 582 0002 5368     		ldr	r3, [r2, #4]	@ D.7563, MEM[(struct DBGMCU_TypeDef *)3758366720B].CR
 583 0004 43F00403 		orr	r3, r3, #4	@ D.7563, D.7563,
 584 0008 5360     		str	r3, [r2, #4]	@ D.7563, MEM[(struct DBGMCU_TypeDef *)3758366720B].CR
 585 000a 7047     		bx	lr	@
 586              	.L47:
 587              		.align	2
 588              	.L46:
 589 000c 002004E0 		.word	-536600576
 590              		.cfi_endproc
 591              	.LFE140:
 592              		.size	HAL_DBGMCU_EnableDBGStandbyMode, .-HAL_DBGMCU_EnableDBGStandbyMode
 593              		.section	.text.HAL_DBGMCU_DisableDBGStandbyMode,"ax",%progbits
 594              		.align	1
 595              		.global	HAL_DBGMCU_DisableDBGStandbyMode
 596              		.thumb
 597              		.thumb_func
 598              		.type	HAL_DBGMCU_DisableDBGStandbyMode, %function
 599              	HAL_DBGMCU_DisableDBGStandbyMode:
 600              	.LFB141:
 449:../STM32Cube_FW_F4_V1.4.0/Drivers/STM32F4xx_HAL_Driver/Src/stm32f4xx_hal.c **** }
 450:../STM32Cube_FW_F4_V1.4.0/Drivers/STM32F4xx_HAL_Driver/Src/stm32f4xx_hal.c **** 
 451:../STM32Cube_FW_F4_V1.4.0/Drivers/STM32F4xx_HAL_Driver/Src/stm32f4xx_hal.c **** /**
 452:../STM32Cube_FW_F4_V1.4.0/Drivers/STM32F4xx_HAL_Driver/Src/stm32f4xx_hal.c ****   * @brief  Disable the Debug Module during STANDBY mode
 453:../STM32Cube_FW_F4_V1.4.0/Drivers/STM32F4xx_HAL_Driver/Src/stm32f4xx_hal.c ****   * @retval None
 454:../STM32Cube_FW_F4_V1.4.0/Drivers/STM32F4xx_HAL_Driver/Src/stm32f4xx_hal.c ****   */
 455:../STM32Cube_FW_F4_V1.4.0/Drivers/STM32F4xx_HAL_Driver/Src/stm32f4xx_hal.c **** void HAL_DBGMCU_DisableDBGStandbyMode(void)
 456:../STM32Cube_FW_F4_V1.4.0/Drivers/STM32F4xx_HAL_Driver/Src/stm32f4xx_hal.c **** {
 601              		.loc 1 456 0
 602              		.cfi_startproc
 603              		@ args = 0, pretend = 0, frame = 0
 604              		@ frame_needed = 0, uses_anonymous_args = 0
ARM GAS  C:\cygwin\tmp\ccxydAnz.s 			page 20


 605              		@ link register save eliminated.
 457:../STM32Cube_FW_F4_V1.4.0/Drivers/STM32F4xx_HAL_Driver/Src/stm32f4xx_hal.c ****   CLEAR_BIT(DBGMCU->CR, DBGMCU_CR_DBG_STANDBY);
 606              		.loc 1 457 0
 607 0000 024A     		ldr	r2, .L49	@ tmp112,
 608 0002 5368     		ldr	r3, [r2, #4]	@ D.7566, MEM[(struct DBGMCU_TypeDef *)3758366720B].CR
 609 0004 23F00403 		bic	r3, r3, #4	@ D.7566, D.7566,
 610 0008 5360     		str	r3, [r2, #4]	@ D.7566, MEM[(struct DBGMCU_TypeDef *)3758366720B].CR
 611 000a 7047     		bx	lr	@
 612              	.L50:
 613              		.align	2
 614              	.L49:
 615 000c 002004E0 		.word	-536600576
 616              		.cfi_endproc
 617              	.LFE141:
 618              		.size	HAL_DBGMCU_DisableDBGStandbyMode, .-HAL_DBGMCU_DisableDBGStandbyMode
 619              		.section	.text.HAL_EnableCompensationCell,"ax",%progbits
 620              		.align	1
 621              		.global	HAL_EnableCompensationCell
 622              		.thumb
 623              		.thumb_func
 624              		.type	HAL_EnableCompensationCell, %function
 625              	HAL_EnableCompensationCell:
 626              	.LFB142:
 458:../STM32Cube_FW_F4_V1.4.0/Drivers/STM32F4xx_HAL_Driver/Src/stm32f4xx_hal.c **** }
 459:../STM32Cube_FW_F4_V1.4.0/Drivers/STM32F4xx_HAL_Driver/Src/stm32f4xx_hal.c **** 
 460:../STM32Cube_FW_F4_V1.4.0/Drivers/STM32F4xx_HAL_Driver/Src/stm32f4xx_hal.c **** /**
 461:../STM32Cube_FW_F4_V1.4.0/Drivers/STM32F4xx_HAL_Driver/Src/stm32f4xx_hal.c ****   * @brief  Enables the I/O Compensation Cell.
 462:../STM32Cube_FW_F4_V1.4.0/Drivers/STM32F4xx_HAL_Driver/Src/stm32f4xx_hal.c ****   * @note   The I/O compensation cell can be used only when the device supply
 463:../STM32Cube_FW_F4_V1.4.0/Drivers/STM32F4xx_HAL_Driver/Src/stm32f4xx_hal.c ****   *         voltage ranges from 2.4 to 3.6 V.  
 464:../STM32Cube_FW_F4_V1.4.0/Drivers/STM32F4xx_HAL_Driver/Src/stm32f4xx_hal.c ****   * @retval None
 465:../STM32Cube_FW_F4_V1.4.0/Drivers/STM32F4xx_HAL_Driver/Src/stm32f4xx_hal.c ****   */
 466:../STM32Cube_FW_F4_V1.4.0/Drivers/STM32F4xx_HAL_Driver/Src/stm32f4xx_hal.c **** void HAL_EnableCompensationCell(void)
 467:../STM32Cube_FW_F4_V1.4.0/Drivers/STM32F4xx_HAL_Driver/Src/stm32f4xx_hal.c **** {
 627              		.loc 1 467 0
 628              		.cfi_startproc
 629              		@ args = 0, pretend = 0, frame = 0
 630              		@ frame_needed = 0, uses_anonymous_args = 0
 631              		@ link register save eliminated.
 632              	.LVL12:
 633              	.LBB10:
 634              	.LBB11:
 635              		.file 2 "../STM32Cube_FW_F4_V1.4.0/Drivers/CMSIS/Include/core_cmInstr.h"
   1:../STM32Cube_FW_F4_V1.4.0/Drivers/CMSIS/Include/core_cmInstr.h **** /**************************************************************************//**
   2:../STM32Cube_FW_F4_V1.4.0/Drivers/CMSIS/Include/core_cmInstr.h ****  * @file     core_cmInstr.h
   3:../STM32Cube_FW_F4_V1.4.0/Drivers/CMSIS/Include/core_cmInstr.h ****  * @brief    CMSIS Cortex-M Core Instruction Access Header File
   4:../STM32Cube_FW_F4_V1.4.0/Drivers/CMSIS/Include/core_cmInstr.h ****  * @version  V4.00
   5:../STM32Cube_FW_F4_V1.4.0/Drivers/CMSIS/Include/core_cmInstr.h ****  * @date     28. August 2014
   6:../STM32Cube_FW_F4_V1.4.0/Drivers/CMSIS/Include/core_cmInstr.h ****  *
   7:../STM32Cube_FW_F4_V1.4.0/Drivers/CMSIS/Include/core_cmInstr.h ****  * @note
   8:../STM32Cube_FW_F4_V1.4.0/Drivers/CMSIS/Include/core_cmInstr.h ****  *
   9:../STM32Cube_FW_F4_V1.4.0/Drivers/CMSIS/Include/core_cmInstr.h ****  ******************************************************************************/
  10:../STM32Cube_FW_F4_V1.4.0/Drivers/CMSIS/Include/core_cmInstr.h **** /* Copyright (c) 2009 - 2014 ARM LIMITED
  11:../STM32Cube_FW_F4_V1.4.0/Drivers/CMSIS/Include/core_cmInstr.h **** 
  12:../STM32Cube_FW_F4_V1.4.0/Drivers/CMSIS/Include/core_cmInstr.h ****    All rights reserved.
  13:../STM32Cube_FW_F4_V1.4.0/Drivers/CMSIS/Include/core_cmInstr.h ****    Redistribution and use in source and binary forms, with or without
  14:../STM32Cube_FW_F4_V1.4.0/Drivers/CMSIS/Include/core_cmInstr.h ****    modification, are permitted provided that the following conditions are met:
  15:../STM32Cube_FW_F4_V1.4.0/Drivers/CMSIS/Include/core_cmInstr.h ****    - Redistributions of source code must retain the above copyright
ARM GAS  C:\cygwin\tmp\ccxydAnz.s 			page 21


  16:../STM32Cube_FW_F4_V1.4.0/Drivers/CMSIS/Include/core_cmInstr.h ****      notice, this list of conditions and the following disclaimer.
  17:../STM32Cube_FW_F4_V1.4.0/Drivers/CMSIS/Include/core_cmInstr.h ****    - Redistributions in binary form must reproduce the above copyright
  18:../STM32Cube_FW_F4_V1.4.0/Drivers/CMSIS/Include/core_cmInstr.h ****      notice, this list of conditions and the following disclaimer in the
  19:../STM32Cube_FW_F4_V1.4.0/Drivers/CMSIS/Include/core_cmInstr.h ****      documentation and/or other materials provided with the distribution.
  20:../STM32Cube_FW_F4_V1.4.0/Drivers/CMSIS/Include/core_cmInstr.h ****    - Neither the name of ARM nor the names of its contributors may be used
  21:../STM32Cube_FW_F4_V1.4.0/Drivers/CMSIS/Include/core_cmInstr.h ****      to endorse or promote products derived from this software without
  22:../STM32Cube_FW_F4_V1.4.0/Drivers/CMSIS/Include/core_cmInstr.h ****      specific prior written permission.
  23:../STM32Cube_FW_F4_V1.4.0/Drivers/CMSIS/Include/core_cmInstr.h ****    *
  24:../STM32Cube_FW_F4_V1.4.0/Drivers/CMSIS/Include/core_cmInstr.h ****    THIS SOFTWARE IS PROVIDED BY THE COPYRIGHT HOLDERS AND CONTRIBUTORS "AS IS"
  25:../STM32Cube_FW_F4_V1.4.0/Drivers/CMSIS/Include/core_cmInstr.h ****    AND ANY EXPRESS OR IMPLIED WARRANTIES, INCLUDING, BUT NOT LIMITED TO, THE
  26:../STM32Cube_FW_F4_V1.4.0/Drivers/CMSIS/Include/core_cmInstr.h ****    IMPLIED WARRANTIES OF MERCHANTABILITY AND FITNESS FOR A PARTICULAR PURPOSE
  27:../STM32Cube_FW_F4_V1.4.0/Drivers/CMSIS/Include/core_cmInstr.h ****    ARE DISCLAIMED. IN NO EVENT SHALL COPYRIGHT HOLDERS AND CONTRIBUTORS BE
  28:../STM32Cube_FW_F4_V1.4.0/Drivers/CMSIS/Include/core_cmInstr.h ****    LIABLE FOR ANY DIRECT, INDIRECT, INCIDENTAL, SPECIAL, EXEMPLARY, OR
  29:../STM32Cube_FW_F4_V1.4.0/Drivers/CMSIS/Include/core_cmInstr.h ****    CONSEQUENTIAL DAMAGES (INCLUDING, BUT NOT LIMITED TO, PROCUREMENT OF
  30:../STM32Cube_FW_F4_V1.4.0/Drivers/CMSIS/Include/core_cmInstr.h ****    SUBSTITUTE GOODS OR SERVICES; LOSS OF USE, DATA, OR PROFITS; OR BUSINESS
  31:../STM32Cube_FW_F4_V1.4.0/Drivers/CMSIS/Include/core_cmInstr.h ****    INTERRUPTION) HOWEVER CAUSED AND ON ANY THEORY OF LIABILITY, WHETHER IN
  32:../STM32Cube_FW_F4_V1.4.0/Drivers/CMSIS/Include/core_cmInstr.h ****    CONTRACT, STRICT LIABILITY, OR TORT (INCLUDING NEGLIGENCE OR OTHERWISE)
  33:../STM32Cube_FW_F4_V1.4.0/Drivers/CMSIS/Include/core_cmInstr.h ****    ARISING IN ANY WAY OUT OF THE USE OF THIS SOFTWARE, EVEN IF ADVISED OF THE
  34:../STM32Cube_FW_F4_V1.4.0/Drivers/CMSIS/Include/core_cmInstr.h ****    POSSIBILITY OF SUCH DAMAGE.
  35:../STM32Cube_FW_F4_V1.4.0/Drivers/CMSIS/Include/core_cmInstr.h ****    ---------------------------------------------------------------------------*/
  36:../STM32Cube_FW_F4_V1.4.0/Drivers/CMSIS/Include/core_cmInstr.h **** 
  37:../STM32Cube_FW_F4_V1.4.0/Drivers/CMSIS/Include/core_cmInstr.h **** 
  38:../STM32Cube_FW_F4_V1.4.0/Drivers/CMSIS/Include/core_cmInstr.h **** #ifndef __CORE_CMINSTR_H
  39:../STM32Cube_FW_F4_V1.4.0/Drivers/CMSIS/Include/core_cmInstr.h **** #define __CORE_CMINSTR_H
  40:../STM32Cube_FW_F4_V1.4.0/Drivers/CMSIS/Include/core_cmInstr.h **** 
  41:../STM32Cube_FW_F4_V1.4.0/Drivers/CMSIS/Include/core_cmInstr.h **** 
  42:../STM32Cube_FW_F4_V1.4.0/Drivers/CMSIS/Include/core_cmInstr.h **** /* ##########################  Core Instruction Access  ######################### */
  43:../STM32Cube_FW_F4_V1.4.0/Drivers/CMSIS/Include/core_cmInstr.h **** /** \defgroup CMSIS_Core_InstructionInterface CMSIS Core Instruction Interface
  44:../STM32Cube_FW_F4_V1.4.0/Drivers/CMSIS/Include/core_cmInstr.h ****   Access to dedicated instructions
  45:../STM32Cube_FW_F4_V1.4.0/Drivers/CMSIS/Include/core_cmInstr.h ****   @{
  46:../STM32Cube_FW_F4_V1.4.0/Drivers/CMSIS/Include/core_cmInstr.h **** */
  47:../STM32Cube_FW_F4_V1.4.0/Drivers/CMSIS/Include/core_cmInstr.h **** 
  48:../STM32Cube_FW_F4_V1.4.0/Drivers/CMSIS/Include/core_cmInstr.h **** #if   defined ( __CC_ARM ) /*------------------RealView Compiler -----------------*/
  49:../STM32Cube_FW_F4_V1.4.0/Drivers/CMSIS/Include/core_cmInstr.h **** /* ARM armcc specific functions */
  50:../STM32Cube_FW_F4_V1.4.0/Drivers/CMSIS/Include/core_cmInstr.h **** 
  51:../STM32Cube_FW_F4_V1.4.0/Drivers/CMSIS/Include/core_cmInstr.h **** #if (__ARMCC_VERSION < 400677)
  52:../STM32Cube_FW_F4_V1.4.0/Drivers/CMSIS/Include/core_cmInstr.h ****   #error "Please use ARM Compiler Toolchain V4.0.677 or later!"
  53:../STM32Cube_FW_F4_V1.4.0/Drivers/CMSIS/Include/core_cmInstr.h **** #endif
  54:../STM32Cube_FW_F4_V1.4.0/Drivers/CMSIS/Include/core_cmInstr.h **** 
  55:../STM32Cube_FW_F4_V1.4.0/Drivers/CMSIS/Include/core_cmInstr.h **** 
  56:../STM32Cube_FW_F4_V1.4.0/Drivers/CMSIS/Include/core_cmInstr.h **** /** \brief  No Operation
  57:../STM32Cube_FW_F4_V1.4.0/Drivers/CMSIS/Include/core_cmInstr.h **** 
  58:../STM32Cube_FW_F4_V1.4.0/Drivers/CMSIS/Include/core_cmInstr.h ****     No Operation does nothing. This instruction can be used for code alignment purposes.
  59:../STM32Cube_FW_F4_V1.4.0/Drivers/CMSIS/Include/core_cmInstr.h ****  */
  60:../STM32Cube_FW_F4_V1.4.0/Drivers/CMSIS/Include/core_cmInstr.h **** #define __NOP                             __nop
  61:../STM32Cube_FW_F4_V1.4.0/Drivers/CMSIS/Include/core_cmInstr.h **** 
  62:../STM32Cube_FW_F4_V1.4.0/Drivers/CMSIS/Include/core_cmInstr.h **** 
  63:../STM32Cube_FW_F4_V1.4.0/Drivers/CMSIS/Include/core_cmInstr.h **** /** \brief  Wait For Interrupt
  64:../STM32Cube_FW_F4_V1.4.0/Drivers/CMSIS/Include/core_cmInstr.h **** 
  65:../STM32Cube_FW_F4_V1.4.0/Drivers/CMSIS/Include/core_cmInstr.h ****     Wait For Interrupt is a hint instruction that suspends execution
  66:../STM32Cube_FW_F4_V1.4.0/Drivers/CMSIS/Include/core_cmInstr.h ****     until one of a number of events occurs.
  67:../STM32Cube_FW_F4_V1.4.0/Drivers/CMSIS/Include/core_cmInstr.h ****  */
  68:../STM32Cube_FW_F4_V1.4.0/Drivers/CMSIS/Include/core_cmInstr.h **** #define __WFI                             __wfi
  69:../STM32Cube_FW_F4_V1.4.0/Drivers/CMSIS/Include/core_cmInstr.h **** 
  70:../STM32Cube_FW_F4_V1.4.0/Drivers/CMSIS/Include/core_cmInstr.h **** 
  71:../STM32Cube_FW_F4_V1.4.0/Drivers/CMSIS/Include/core_cmInstr.h **** /** \brief  Wait For Event
  72:../STM32Cube_FW_F4_V1.4.0/Drivers/CMSIS/Include/core_cmInstr.h **** 
ARM GAS  C:\cygwin\tmp\ccxydAnz.s 			page 22


  73:../STM32Cube_FW_F4_V1.4.0/Drivers/CMSIS/Include/core_cmInstr.h ****     Wait For Event is a hint instruction that permits the processor to enter
  74:../STM32Cube_FW_F4_V1.4.0/Drivers/CMSIS/Include/core_cmInstr.h ****     a low-power state until one of a number of events occurs.
  75:../STM32Cube_FW_F4_V1.4.0/Drivers/CMSIS/Include/core_cmInstr.h ****  */
  76:../STM32Cube_FW_F4_V1.4.0/Drivers/CMSIS/Include/core_cmInstr.h **** #define __WFE                             __wfe
  77:../STM32Cube_FW_F4_V1.4.0/Drivers/CMSIS/Include/core_cmInstr.h **** 
  78:../STM32Cube_FW_F4_V1.4.0/Drivers/CMSIS/Include/core_cmInstr.h **** 
  79:../STM32Cube_FW_F4_V1.4.0/Drivers/CMSIS/Include/core_cmInstr.h **** /** \brief  Send Event
  80:../STM32Cube_FW_F4_V1.4.0/Drivers/CMSIS/Include/core_cmInstr.h **** 
  81:../STM32Cube_FW_F4_V1.4.0/Drivers/CMSIS/Include/core_cmInstr.h ****     Send Event is a hint instruction. It causes an event to be signaled to the CPU.
  82:../STM32Cube_FW_F4_V1.4.0/Drivers/CMSIS/Include/core_cmInstr.h ****  */
  83:../STM32Cube_FW_F4_V1.4.0/Drivers/CMSIS/Include/core_cmInstr.h **** #define __SEV                             __sev
  84:../STM32Cube_FW_F4_V1.4.0/Drivers/CMSIS/Include/core_cmInstr.h **** 
  85:../STM32Cube_FW_F4_V1.4.0/Drivers/CMSIS/Include/core_cmInstr.h **** 
  86:../STM32Cube_FW_F4_V1.4.0/Drivers/CMSIS/Include/core_cmInstr.h **** /** \brief  Instruction Synchronization Barrier
  87:../STM32Cube_FW_F4_V1.4.0/Drivers/CMSIS/Include/core_cmInstr.h **** 
  88:../STM32Cube_FW_F4_V1.4.0/Drivers/CMSIS/Include/core_cmInstr.h ****     Instruction Synchronization Barrier flushes the pipeline in the processor,
  89:../STM32Cube_FW_F4_V1.4.0/Drivers/CMSIS/Include/core_cmInstr.h ****     so that all instructions following the ISB are fetched from cache or
  90:../STM32Cube_FW_F4_V1.4.0/Drivers/CMSIS/Include/core_cmInstr.h ****     memory, after the instruction has been completed.
  91:../STM32Cube_FW_F4_V1.4.0/Drivers/CMSIS/Include/core_cmInstr.h ****  */
  92:../STM32Cube_FW_F4_V1.4.0/Drivers/CMSIS/Include/core_cmInstr.h **** #define __ISB()                           __isb(0xF)
  93:../STM32Cube_FW_F4_V1.4.0/Drivers/CMSIS/Include/core_cmInstr.h **** 
  94:../STM32Cube_FW_F4_V1.4.0/Drivers/CMSIS/Include/core_cmInstr.h **** 
  95:../STM32Cube_FW_F4_V1.4.0/Drivers/CMSIS/Include/core_cmInstr.h **** /** \brief  Data Synchronization Barrier
  96:../STM32Cube_FW_F4_V1.4.0/Drivers/CMSIS/Include/core_cmInstr.h **** 
  97:../STM32Cube_FW_F4_V1.4.0/Drivers/CMSIS/Include/core_cmInstr.h ****     This function acts as a special kind of Data Memory Barrier.
  98:../STM32Cube_FW_F4_V1.4.0/Drivers/CMSIS/Include/core_cmInstr.h ****     It completes when all explicit memory accesses before this instruction complete.
  99:../STM32Cube_FW_F4_V1.4.0/Drivers/CMSIS/Include/core_cmInstr.h ****  */
 100:../STM32Cube_FW_F4_V1.4.0/Drivers/CMSIS/Include/core_cmInstr.h **** #define __DSB()                           __dsb(0xF)
 101:../STM32Cube_FW_F4_V1.4.0/Drivers/CMSIS/Include/core_cmInstr.h **** 
 102:../STM32Cube_FW_F4_V1.4.0/Drivers/CMSIS/Include/core_cmInstr.h **** 
 103:../STM32Cube_FW_F4_V1.4.0/Drivers/CMSIS/Include/core_cmInstr.h **** /** \brief  Data Memory Barrier
 104:../STM32Cube_FW_F4_V1.4.0/Drivers/CMSIS/Include/core_cmInstr.h **** 
 105:../STM32Cube_FW_F4_V1.4.0/Drivers/CMSIS/Include/core_cmInstr.h ****     This function ensures the apparent order of the explicit memory operations before
 106:../STM32Cube_FW_F4_V1.4.0/Drivers/CMSIS/Include/core_cmInstr.h ****     and after the instruction, without ensuring their completion.
 107:../STM32Cube_FW_F4_V1.4.0/Drivers/CMSIS/Include/core_cmInstr.h ****  */
 108:../STM32Cube_FW_F4_V1.4.0/Drivers/CMSIS/Include/core_cmInstr.h **** #define __DMB()                           __dmb(0xF)
 109:../STM32Cube_FW_F4_V1.4.0/Drivers/CMSIS/Include/core_cmInstr.h **** 
 110:../STM32Cube_FW_F4_V1.4.0/Drivers/CMSIS/Include/core_cmInstr.h **** 
 111:../STM32Cube_FW_F4_V1.4.0/Drivers/CMSIS/Include/core_cmInstr.h **** /** \brief  Reverse byte order (32 bit)
 112:../STM32Cube_FW_F4_V1.4.0/Drivers/CMSIS/Include/core_cmInstr.h **** 
 113:../STM32Cube_FW_F4_V1.4.0/Drivers/CMSIS/Include/core_cmInstr.h ****     This function reverses the byte order in integer value.
 114:../STM32Cube_FW_F4_V1.4.0/Drivers/CMSIS/Include/core_cmInstr.h **** 
 115:../STM32Cube_FW_F4_V1.4.0/Drivers/CMSIS/Include/core_cmInstr.h ****     \param [in]    value  Value to reverse
 116:../STM32Cube_FW_F4_V1.4.0/Drivers/CMSIS/Include/core_cmInstr.h ****     \return               Reversed value
 117:../STM32Cube_FW_F4_V1.4.0/Drivers/CMSIS/Include/core_cmInstr.h ****  */
 118:../STM32Cube_FW_F4_V1.4.0/Drivers/CMSIS/Include/core_cmInstr.h **** #define __REV                             __rev
 119:../STM32Cube_FW_F4_V1.4.0/Drivers/CMSIS/Include/core_cmInstr.h **** 
 120:../STM32Cube_FW_F4_V1.4.0/Drivers/CMSIS/Include/core_cmInstr.h **** 
 121:../STM32Cube_FW_F4_V1.4.0/Drivers/CMSIS/Include/core_cmInstr.h **** /** \brief  Reverse byte order (16 bit)
 122:../STM32Cube_FW_F4_V1.4.0/Drivers/CMSIS/Include/core_cmInstr.h **** 
 123:../STM32Cube_FW_F4_V1.4.0/Drivers/CMSIS/Include/core_cmInstr.h ****     This function reverses the byte order in two unsigned short values.
 124:../STM32Cube_FW_F4_V1.4.0/Drivers/CMSIS/Include/core_cmInstr.h **** 
 125:../STM32Cube_FW_F4_V1.4.0/Drivers/CMSIS/Include/core_cmInstr.h ****     \param [in]    value  Value to reverse
 126:../STM32Cube_FW_F4_V1.4.0/Drivers/CMSIS/Include/core_cmInstr.h ****     \return               Reversed value
 127:../STM32Cube_FW_F4_V1.4.0/Drivers/CMSIS/Include/core_cmInstr.h ****  */
 128:../STM32Cube_FW_F4_V1.4.0/Drivers/CMSIS/Include/core_cmInstr.h **** #ifndef __NO_EMBEDDED_ASM
 129:../STM32Cube_FW_F4_V1.4.0/Drivers/CMSIS/Include/core_cmInstr.h **** __attribute__((section(".rev16_text"))) __STATIC_INLINE __ASM uint32_t __REV16(uint32_t value)
ARM GAS  C:\cygwin\tmp\ccxydAnz.s 			page 23


 130:../STM32Cube_FW_F4_V1.4.0/Drivers/CMSIS/Include/core_cmInstr.h **** {
 131:../STM32Cube_FW_F4_V1.4.0/Drivers/CMSIS/Include/core_cmInstr.h ****   rev16 r0, r0
 132:../STM32Cube_FW_F4_V1.4.0/Drivers/CMSIS/Include/core_cmInstr.h ****   bx lr
 133:../STM32Cube_FW_F4_V1.4.0/Drivers/CMSIS/Include/core_cmInstr.h **** }
 134:../STM32Cube_FW_F4_V1.4.0/Drivers/CMSIS/Include/core_cmInstr.h **** #endif
 135:../STM32Cube_FW_F4_V1.4.0/Drivers/CMSIS/Include/core_cmInstr.h **** 
 136:../STM32Cube_FW_F4_V1.4.0/Drivers/CMSIS/Include/core_cmInstr.h **** /** \brief  Reverse byte order in signed short value
 137:../STM32Cube_FW_F4_V1.4.0/Drivers/CMSIS/Include/core_cmInstr.h **** 
 138:../STM32Cube_FW_F4_V1.4.0/Drivers/CMSIS/Include/core_cmInstr.h ****     This function reverses the byte order in a signed short value with sign extension to integer.
 139:../STM32Cube_FW_F4_V1.4.0/Drivers/CMSIS/Include/core_cmInstr.h **** 
 140:../STM32Cube_FW_F4_V1.4.0/Drivers/CMSIS/Include/core_cmInstr.h ****     \param [in]    value  Value to reverse
 141:../STM32Cube_FW_F4_V1.4.0/Drivers/CMSIS/Include/core_cmInstr.h ****     \return               Reversed value
 142:../STM32Cube_FW_F4_V1.4.0/Drivers/CMSIS/Include/core_cmInstr.h ****  */
 143:../STM32Cube_FW_F4_V1.4.0/Drivers/CMSIS/Include/core_cmInstr.h **** #ifndef __NO_EMBEDDED_ASM
 144:../STM32Cube_FW_F4_V1.4.0/Drivers/CMSIS/Include/core_cmInstr.h **** __attribute__((section(".revsh_text"))) __STATIC_INLINE __ASM int32_t __REVSH(int32_t value)
 145:../STM32Cube_FW_F4_V1.4.0/Drivers/CMSIS/Include/core_cmInstr.h **** {
 146:../STM32Cube_FW_F4_V1.4.0/Drivers/CMSIS/Include/core_cmInstr.h ****   revsh r0, r0
 147:../STM32Cube_FW_F4_V1.4.0/Drivers/CMSIS/Include/core_cmInstr.h ****   bx lr
 148:../STM32Cube_FW_F4_V1.4.0/Drivers/CMSIS/Include/core_cmInstr.h **** }
 149:../STM32Cube_FW_F4_V1.4.0/Drivers/CMSIS/Include/core_cmInstr.h **** #endif
 150:../STM32Cube_FW_F4_V1.4.0/Drivers/CMSIS/Include/core_cmInstr.h **** 
 151:../STM32Cube_FW_F4_V1.4.0/Drivers/CMSIS/Include/core_cmInstr.h **** 
 152:../STM32Cube_FW_F4_V1.4.0/Drivers/CMSIS/Include/core_cmInstr.h **** /** \brief  Rotate Right in unsigned value (32 bit)
 153:../STM32Cube_FW_F4_V1.4.0/Drivers/CMSIS/Include/core_cmInstr.h **** 
 154:../STM32Cube_FW_F4_V1.4.0/Drivers/CMSIS/Include/core_cmInstr.h ****     This function Rotate Right (immediate) provides the value of the contents of a register rotated
 155:../STM32Cube_FW_F4_V1.4.0/Drivers/CMSIS/Include/core_cmInstr.h **** 
 156:../STM32Cube_FW_F4_V1.4.0/Drivers/CMSIS/Include/core_cmInstr.h ****     \param [in]    value  Value to rotate
 157:../STM32Cube_FW_F4_V1.4.0/Drivers/CMSIS/Include/core_cmInstr.h ****     \param [in]    value  Number of Bits to rotate
 158:../STM32Cube_FW_F4_V1.4.0/Drivers/CMSIS/Include/core_cmInstr.h ****     \return               Rotated value
 159:../STM32Cube_FW_F4_V1.4.0/Drivers/CMSIS/Include/core_cmInstr.h ****  */
 160:../STM32Cube_FW_F4_V1.4.0/Drivers/CMSIS/Include/core_cmInstr.h **** #define __ROR                             __ror
 161:../STM32Cube_FW_F4_V1.4.0/Drivers/CMSIS/Include/core_cmInstr.h **** 
 162:../STM32Cube_FW_F4_V1.4.0/Drivers/CMSIS/Include/core_cmInstr.h **** 
 163:../STM32Cube_FW_F4_V1.4.0/Drivers/CMSIS/Include/core_cmInstr.h **** /** \brief  Breakpoint
 164:../STM32Cube_FW_F4_V1.4.0/Drivers/CMSIS/Include/core_cmInstr.h **** 
 165:../STM32Cube_FW_F4_V1.4.0/Drivers/CMSIS/Include/core_cmInstr.h ****     This function causes the processor to enter Debug state.
 166:../STM32Cube_FW_F4_V1.4.0/Drivers/CMSIS/Include/core_cmInstr.h ****     Debug tools can use this to investigate system state when the instruction at a particular addre
 167:../STM32Cube_FW_F4_V1.4.0/Drivers/CMSIS/Include/core_cmInstr.h **** 
 168:../STM32Cube_FW_F4_V1.4.0/Drivers/CMSIS/Include/core_cmInstr.h ****     \param [in]    value  is ignored by the processor.
 169:../STM32Cube_FW_F4_V1.4.0/Drivers/CMSIS/Include/core_cmInstr.h ****                    If required, a debugger can use it to store additional information about the bre
 170:../STM32Cube_FW_F4_V1.4.0/Drivers/CMSIS/Include/core_cmInstr.h ****  */
 171:../STM32Cube_FW_F4_V1.4.0/Drivers/CMSIS/Include/core_cmInstr.h **** #define __BKPT(value)                       __breakpoint(value)
 172:../STM32Cube_FW_F4_V1.4.0/Drivers/CMSIS/Include/core_cmInstr.h **** 
 173:../STM32Cube_FW_F4_V1.4.0/Drivers/CMSIS/Include/core_cmInstr.h **** 
 174:../STM32Cube_FW_F4_V1.4.0/Drivers/CMSIS/Include/core_cmInstr.h **** #if       (__CORTEX_M >= 0x03) || (__CORTEX_SC >= 300)
 175:../STM32Cube_FW_F4_V1.4.0/Drivers/CMSIS/Include/core_cmInstr.h **** 
 176:../STM32Cube_FW_F4_V1.4.0/Drivers/CMSIS/Include/core_cmInstr.h **** /** \brief  Reverse bit order of value
 177:../STM32Cube_FW_F4_V1.4.0/Drivers/CMSIS/Include/core_cmInstr.h **** 
 178:../STM32Cube_FW_F4_V1.4.0/Drivers/CMSIS/Include/core_cmInstr.h ****     This function reverses the bit order of the given value.
 179:../STM32Cube_FW_F4_V1.4.0/Drivers/CMSIS/Include/core_cmInstr.h **** 
 180:../STM32Cube_FW_F4_V1.4.0/Drivers/CMSIS/Include/core_cmInstr.h ****     \param [in]    value  Value to reverse
 181:../STM32Cube_FW_F4_V1.4.0/Drivers/CMSIS/Include/core_cmInstr.h ****     \return               Reversed value
 182:../STM32Cube_FW_F4_V1.4.0/Drivers/CMSIS/Include/core_cmInstr.h ****  */
 183:../STM32Cube_FW_F4_V1.4.0/Drivers/CMSIS/Include/core_cmInstr.h **** #define __RBIT                            __rbit
 184:../STM32Cube_FW_F4_V1.4.0/Drivers/CMSIS/Include/core_cmInstr.h **** 
 185:../STM32Cube_FW_F4_V1.4.0/Drivers/CMSIS/Include/core_cmInstr.h **** 
 186:../STM32Cube_FW_F4_V1.4.0/Drivers/CMSIS/Include/core_cmInstr.h **** /** \brief  LDR Exclusive (8 bit)
ARM GAS  C:\cygwin\tmp\ccxydAnz.s 			page 24


 187:../STM32Cube_FW_F4_V1.4.0/Drivers/CMSIS/Include/core_cmInstr.h **** 
 188:../STM32Cube_FW_F4_V1.4.0/Drivers/CMSIS/Include/core_cmInstr.h ****     This function executes a exclusive LDR instruction for 8 bit value.
 189:../STM32Cube_FW_F4_V1.4.0/Drivers/CMSIS/Include/core_cmInstr.h **** 
 190:../STM32Cube_FW_F4_V1.4.0/Drivers/CMSIS/Include/core_cmInstr.h ****     \param [in]    ptr  Pointer to data
 191:../STM32Cube_FW_F4_V1.4.0/Drivers/CMSIS/Include/core_cmInstr.h ****     \return             value of type uint8_t at (*ptr)
 192:../STM32Cube_FW_F4_V1.4.0/Drivers/CMSIS/Include/core_cmInstr.h ****  */
 193:../STM32Cube_FW_F4_V1.4.0/Drivers/CMSIS/Include/core_cmInstr.h **** #define __LDREXB(ptr)                     ((uint8_t ) __ldrex(ptr))
 194:../STM32Cube_FW_F4_V1.4.0/Drivers/CMSIS/Include/core_cmInstr.h **** 
 195:../STM32Cube_FW_F4_V1.4.0/Drivers/CMSIS/Include/core_cmInstr.h **** 
 196:../STM32Cube_FW_F4_V1.4.0/Drivers/CMSIS/Include/core_cmInstr.h **** /** \brief  LDR Exclusive (16 bit)
 197:../STM32Cube_FW_F4_V1.4.0/Drivers/CMSIS/Include/core_cmInstr.h **** 
 198:../STM32Cube_FW_F4_V1.4.0/Drivers/CMSIS/Include/core_cmInstr.h ****     This function executes a exclusive LDR instruction for 16 bit values.
 199:../STM32Cube_FW_F4_V1.4.0/Drivers/CMSIS/Include/core_cmInstr.h **** 
 200:../STM32Cube_FW_F4_V1.4.0/Drivers/CMSIS/Include/core_cmInstr.h ****     \param [in]    ptr  Pointer to data
 201:../STM32Cube_FW_F4_V1.4.0/Drivers/CMSIS/Include/core_cmInstr.h ****     \return        value of type uint16_t at (*ptr)
 202:../STM32Cube_FW_F4_V1.4.0/Drivers/CMSIS/Include/core_cmInstr.h ****  */
 203:../STM32Cube_FW_F4_V1.4.0/Drivers/CMSIS/Include/core_cmInstr.h **** #define __LDREXH(ptr)                     ((uint16_t) __ldrex(ptr))
 204:../STM32Cube_FW_F4_V1.4.0/Drivers/CMSIS/Include/core_cmInstr.h **** 
 205:../STM32Cube_FW_F4_V1.4.0/Drivers/CMSIS/Include/core_cmInstr.h **** 
 206:../STM32Cube_FW_F4_V1.4.0/Drivers/CMSIS/Include/core_cmInstr.h **** /** \brief  LDR Exclusive (32 bit)
 207:../STM32Cube_FW_F4_V1.4.0/Drivers/CMSIS/Include/core_cmInstr.h **** 
 208:../STM32Cube_FW_F4_V1.4.0/Drivers/CMSIS/Include/core_cmInstr.h ****     This function executes a exclusive LDR instruction for 32 bit values.
 209:../STM32Cube_FW_F4_V1.4.0/Drivers/CMSIS/Include/core_cmInstr.h **** 
 210:../STM32Cube_FW_F4_V1.4.0/Drivers/CMSIS/Include/core_cmInstr.h ****     \param [in]    ptr  Pointer to data
 211:../STM32Cube_FW_F4_V1.4.0/Drivers/CMSIS/Include/core_cmInstr.h ****     \return        value of type uint32_t at (*ptr)
 212:../STM32Cube_FW_F4_V1.4.0/Drivers/CMSIS/Include/core_cmInstr.h ****  */
 213:../STM32Cube_FW_F4_V1.4.0/Drivers/CMSIS/Include/core_cmInstr.h **** #define __LDREXW(ptr)                     ((uint32_t ) __ldrex(ptr))
 214:../STM32Cube_FW_F4_V1.4.0/Drivers/CMSIS/Include/core_cmInstr.h **** 
 215:../STM32Cube_FW_F4_V1.4.0/Drivers/CMSIS/Include/core_cmInstr.h **** 
 216:../STM32Cube_FW_F4_V1.4.0/Drivers/CMSIS/Include/core_cmInstr.h **** /** \brief  STR Exclusive (8 bit)
 217:../STM32Cube_FW_F4_V1.4.0/Drivers/CMSIS/Include/core_cmInstr.h **** 
 218:../STM32Cube_FW_F4_V1.4.0/Drivers/CMSIS/Include/core_cmInstr.h ****     This function executes a exclusive STR instruction for 8 bit values.
 219:../STM32Cube_FW_F4_V1.4.0/Drivers/CMSIS/Include/core_cmInstr.h **** 
 220:../STM32Cube_FW_F4_V1.4.0/Drivers/CMSIS/Include/core_cmInstr.h ****     \param [in]  value  Value to store
 221:../STM32Cube_FW_F4_V1.4.0/Drivers/CMSIS/Include/core_cmInstr.h ****     \param [in]    ptr  Pointer to location
 222:../STM32Cube_FW_F4_V1.4.0/Drivers/CMSIS/Include/core_cmInstr.h ****     \return          0  Function succeeded
 223:../STM32Cube_FW_F4_V1.4.0/Drivers/CMSIS/Include/core_cmInstr.h ****     \return          1  Function failed
 224:../STM32Cube_FW_F4_V1.4.0/Drivers/CMSIS/Include/core_cmInstr.h ****  */
 225:../STM32Cube_FW_F4_V1.4.0/Drivers/CMSIS/Include/core_cmInstr.h **** #define __STREXB(value, ptr)              __strex(value, ptr)
 226:../STM32Cube_FW_F4_V1.4.0/Drivers/CMSIS/Include/core_cmInstr.h **** 
 227:../STM32Cube_FW_F4_V1.4.0/Drivers/CMSIS/Include/core_cmInstr.h **** 
 228:../STM32Cube_FW_F4_V1.4.0/Drivers/CMSIS/Include/core_cmInstr.h **** /** \brief  STR Exclusive (16 bit)
 229:../STM32Cube_FW_F4_V1.4.0/Drivers/CMSIS/Include/core_cmInstr.h **** 
 230:../STM32Cube_FW_F4_V1.4.0/Drivers/CMSIS/Include/core_cmInstr.h ****     This function executes a exclusive STR instruction for 16 bit values.
 231:../STM32Cube_FW_F4_V1.4.0/Drivers/CMSIS/Include/core_cmInstr.h **** 
 232:../STM32Cube_FW_F4_V1.4.0/Drivers/CMSIS/Include/core_cmInstr.h ****     \param [in]  value  Value to store
 233:../STM32Cube_FW_F4_V1.4.0/Drivers/CMSIS/Include/core_cmInstr.h ****     \param [in]    ptr  Pointer to location
 234:../STM32Cube_FW_F4_V1.4.0/Drivers/CMSIS/Include/core_cmInstr.h ****     \return          0  Function succeeded
 235:../STM32Cube_FW_F4_V1.4.0/Drivers/CMSIS/Include/core_cmInstr.h ****     \return          1  Function failed
 236:../STM32Cube_FW_F4_V1.4.0/Drivers/CMSIS/Include/core_cmInstr.h ****  */
 237:../STM32Cube_FW_F4_V1.4.0/Drivers/CMSIS/Include/core_cmInstr.h **** #define __STREXH(value, ptr)              __strex(value, ptr)
 238:../STM32Cube_FW_F4_V1.4.0/Drivers/CMSIS/Include/core_cmInstr.h **** 
 239:../STM32Cube_FW_F4_V1.4.0/Drivers/CMSIS/Include/core_cmInstr.h **** 
 240:../STM32Cube_FW_F4_V1.4.0/Drivers/CMSIS/Include/core_cmInstr.h **** /** \brief  STR Exclusive (32 bit)
 241:../STM32Cube_FW_F4_V1.4.0/Drivers/CMSIS/Include/core_cmInstr.h **** 
 242:../STM32Cube_FW_F4_V1.4.0/Drivers/CMSIS/Include/core_cmInstr.h ****     This function executes a exclusive STR instruction for 32 bit values.
 243:../STM32Cube_FW_F4_V1.4.0/Drivers/CMSIS/Include/core_cmInstr.h **** 
ARM GAS  C:\cygwin\tmp\ccxydAnz.s 			page 25


 244:../STM32Cube_FW_F4_V1.4.0/Drivers/CMSIS/Include/core_cmInstr.h ****     \param [in]  value  Value to store
 245:../STM32Cube_FW_F4_V1.4.0/Drivers/CMSIS/Include/core_cmInstr.h ****     \param [in]    ptr  Pointer to location
 246:../STM32Cube_FW_F4_V1.4.0/Drivers/CMSIS/Include/core_cmInstr.h ****     \return          0  Function succeeded
 247:../STM32Cube_FW_F4_V1.4.0/Drivers/CMSIS/Include/core_cmInstr.h ****     \return          1  Function failed
 248:../STM32Cube_FW_F4_V1.4.0/Drivers/CMSIS/Include/core_cmInstr.h ****  */
 249:../STM32Cube_FW_F4_V1.4.0/Drivers/CMSIS/Include/core_cmInstr.h **** #define __STREXW(value, ptr)              __strex(value, ptr)
 250:../STM32Cube_FW_F4_V1.4.0/Drivers/CMSIS/Include/core_cmInstr.h **** 
 251:../STM32Cube_FW_F4_V1.4.0/Drivers/CMSIS/Include/core_cmInstr.h **** 
 252:../STM32Cube_FW_F4_V1.4.0/Drivers/CMSIS/Include/core_cmInstr.h **** /** \brief  Remove the exclusive lock
 253:../STM32Cube_FW_F4_V1.4.0/Drivers/CMSIS/Include/core_cmInstr.h **** 
 254:../STM32Cube_FW_F4_V1.4.0/Drivers/CMSIS/Include/core_cmInstr.h ****     This function removes the exclusive lock which is created by LDREX.
 255:../STM32Cube_FW_F4_V1.4.0/Drivers/CMSIS/Include/core_cmInstr.h **** 
 256:../STM32Cube_FW_F4_V1.4.0/Drivers/CMSIS/Include/core_cmInstr.h ****  */
 257:../STM32Cube_FW_F4_V1.4.0/Drivers/CMSIS/Include/core_cmInstr.h **** #define __CLREX                           __clrex
 258:../STM32Cube_FW_F4_V1.4.0/Drivers/CMSIS/Include/core_cmInstr.h **** 
 259:../STM32Cube_FW_F4_V1.4.0/Drivers/CMSIS/Include/core_cmInstr.h **** 
 260:../STM32Cube_FW_F4_V1.4.0/Drivers/CMSIS/Include/core_cmInstr.h **** /** \brief  Signed Saturate
 261:../STM32Cube_FW_F4_V1.4.0/Drivers/CMSIS/Include/core_cmInstr.h **** 
 262:../STM32Cube_FW_F4_V1.4.0/Drivers/CMSIS/Include/core_cmInstr.h ****     This function saturates a signed value.
 263:../STM32Cube_FW_F4_V1.4.0/Drivers/CMSIS/Include/core_cmInstr.h **** 
 264:../STM32Cube_FW_F4_V1.4.0/Drivers/CMSIS/Include/core_cmInstr.h ****     \param [in]  value  Value to be saturated
 265:../STM32Cube_FW_F4_V1.4.0/Drivers/CMSIS/Include/core_cmInstr.h ****     \param [in]    sat  Bit position to saturate to (1..32)
 266:../STM32Cube_FW_F4_V1.4.0/Drivers/CMSIS/Include/core_cmInstr.h ****     \return             Saturated value
 267:../STM32Cube_FW_F4_V1.4.0/Drivers/CMSIS/Include/core_cmInstr.h ****  */
 268:../STM32Cube_FW_F4_V1.4.0/Drivers/CMSIS/Include/core_cmInstr.h **** #define __SSAT                            __ssat
 269:../STM32Cube_FW_F4_V1.4.0/Drivers/CMSIS/Include/core_cmInstr.h **** 
 270:../STM32Cube_FW_F4_V1.4.0/Drivers/CMSIS/Include/core_cmInstr.h **** 
 271:../STM32Cube_FW_F4_V1.4.0/Drivers/CMSIS/Include/core_cmInstr.h **** /** \brief  Unsigned Saturate
 272:../STM32Cube_FW_F4_V1.4.0/Drivers/CMSIS/Include/core_cmInstr.h **** 
 273:../STM32Cube_FW_F4_V1.4.0/Drivers/CMSIS/Include/core_cmInstr.h ****     This function saturates an unsigned value.
 274:../STM32Cube_FW_F4_V1.4.0/Drivers/CMSIS/Include/core_cmInstr.h **** 
 275:../STM32Cube_FW_F4_V1.4.0/Drivers/CMSIS/Include/core_cmInstr.h ****     \param [in]  value  Value to be saturated
 276:../STM32Cube_FW_F4_V1.4.0/Drivers/CMSIS/Include/core_cmInstr.h ****     \param [in]    sat  Bit position to saturate to (0..31)
 277:../STM32Cube_FW_F4_V1.4.0/Drivers/CMSIS/Include/core_cmInstr.h ****     \return             Saturated value
 278:../STM32Cube_FW_F4_V1.4.0/Drivers/CMSIS/Include/core_cmInstr.h ****  */
 279:../STM32Cube_FW_F4_V1.4.0/Drivers/CMSIS/Include/core_cmInstr.h **** #define __USAT                            __usat
 280:../STM32Cube_FW_F4_V1.4.0/Drivers/CMSIS/Include/core_cmInstr.h **** 
 281:../STM32Cube_FW_F4_V1.4.0/Drivers/CMSIS/Include/core_cmInstr.h **** 
 282:../STM32Cube_FW_F4_V1.4.0/Drivers/CMSIS/Include/core_cmInstr.h **** /** \brief  Count leading zeros
 283:../STM32Cube_FW_F4_V1.4.0/Drivers/CMSIS/Include/core_cmInstr.h **** 
 284:../STM32Cube_FW_F4_V1.4.0/Drivers/CMSIS/Include/core_cmInstr.h ****     This function counts the number of leading zeros of a data value.
 285:../STM32Cube_FW_F4_V1.4.0/Drivers/CMSIS/Include/core_cmInstr.h **** 
 286:../STM32Cube_FW_F4_V1.4.0/Drivers/CMSIS/Include/core_cmInstr.h ****     \param [in]  value  Value to count the leading zeros
 287:../STM32Cube_FW_F4_V1.4.0/Drivers/CMSIS/Include/core_cmInstr.h ****     \return             number of leading zeros in value
 288:../STM32Cube_FW_F4_V1.4.0/Drivers/CMSIS/Include/core_cmInstr.h ****  */
 289:../STM32Cube_FW_F4_V1.4.0/Drivers/CMSIS/Include/core_cmInstr.h **** #define __CLZ                             __clz
 290:../STM32Cube_FW_F4_V1.4.0/Drivers/CMSIS/Include/core_cmInstr.h **** 
 291:../STM32Cube_FW_F4_V1.4.0/Drivers/CMSIS/Include/core_cmInstr.h **** 
 292:../STM32Cube_FW_F4_V1.4.0/Drivers/CMSIS/Include/core_cmInstr.h **** /** \brief  Rotate Right with Extend (32 bit)
 293:../STM32Cube_FW_F4_V1.4.0/Drivers/CMSIS/Include/core_cmInstr.h **** 
 294:../STM32Cube_FW_F4_V1.4.0/Drivers/CMSIS/Include/core_cmInstr.h ****     This function moves each bit of a bitstring right by one bit. The carry input is shifted in at 
 295:../STM32Cube_FW_F4_V1.4.0/Drivers/CMSIS/Include/core_cmInstr.h **** 
 296:../STM32Cube_FW_F4_V1.4.0/Drivers/CMSIS/Include/core_cmInstr.h ****     \param [in]    value  Value to rotate
 297:../STM32Cube_FW_F4_V1.4.0/Drivers/CMSIS/Include/core_cmInstr.h ****     \return               Rotated value
 298:../STM32Cube_FW_F4_V1.4.0/Drivers/CMSIS/Include/core_cmInstr.h ****  */
 299:../STM32Cube_FW_F4_V1.4.0/Drivers/CMSIS/Include/core_cmInstr.h **** #ifndef __NO_EMBEDDED_ASM
 300:../STM32Cube_FW_F4_V1.4.0/Drivers/CMSIS/Include/core_cmInstr.h **** __attribute__((section(".rrx_text"))) __STATIC_INLINE __ASM uint32_t __RRX(uint32_t value)
ARM GAS  C:\cygwin\tmp\ccxydAnz.s 			page 26


 301:../STM32Cube_FW_F4_V1.4.0/Drivers/CMSIS/Include/core_cmInstr.h **** {
 302:../STM32Cube_FW_F4_V1.4.0/Drivers/CMSIS/Include/core_cmInstr.h ****   rrx r0, r0
 303:../STM32Cube_FW_F4_V1.4.0/Drivers/CMSIS/Include/core_cmInstr.h ****   bx lr
 304:../STM32Cube_FW_F4_V1.4.0/Drivers/CMSIS/Include/core_cmInstr.h **** }
 305:../STM32Cube_FW_F4_V1.4.0/Drivers/CMSIS/Include/core_cmInstr.h **** #endif
 306:../STM32Cube_FW_F4_V1.4.0/Drivers/CMSIS/Include/core_cmInstr.h **** 
 307:../STM32Cube_FW_F4_V1.4.0/Drivers/CMSIS/Include/core_cmInstr.h **** 
 308:../STM32Cube_FW_F4_V1.4.0/Drivers/CMSIS/Include/core_cmInstr.h **** /** \brief  LDRT Unprivileged (8 bit)
 309:../STM32Cube_FW_F4_V1.4.0/Drivers/CMSIS/Include/core_cmInstr.h **** 
 310:../STM32Cube_FW_F4_V1.4.0/Drivers/CMSIS/Include/core_cmInstr.h ****     This function executes a Unprivileged LDRT instruction for 8 bit value.
 311:../STM32Cube_FW_F4_V1.4.0/Drivers/CMSIS/Include/core_cmInstr.h **** 
 312:../STM32Cube_FW_F4_V1.4.0/Drivers/CMSIS/Include/core_cmInstr.h ****     \param [in]    ptr  Pointer to data
 313:../STM32Cube_FW_F4_V1.4.0/Drivers/CMSIS/Include/core_cmInstr.h ****     \return             value of type uint8_t at (*ptr)
 314:../STM32Cube_FW_F4_V1.4.0/Drivers/CMSIS/Include/core_cmInstr.h ****  */
 315:../STM32Cube_FW_F4_V1.4.0/Drivers/CMSIS/Include/core_cmInstr.h **** #define __LDRBT(ptr)                      ((uint8_t )  __ldrt(ptr))
 316:../STM32Cube_FW_F4_V1.4.0/Drivers/CMSIS/Include/core_cmInstr.h **** 
 317:../STM32Cube_FW_F4_V1.4.0/Drivers/CMSIS/Include/core_cmInstr.h **** 
 318:../STM32Cube_FW_F4_V1.4.0/Drivers/CMSIS/Include/core_cmInstr.h **** /** \brief  LDRT Unprivileged (16 bit)
 319:../STM32Cube_FW_F4_V1.4.0/Drivers/CMSIS/Include/core_cmInstr.h **** 
 320:../STM32Cube_FW_F4_V1.4.0/Drivers/CMSIS/Include/core_cmInstr.h ****     This function executes a Unprivileged LDRT instruction for 16 bit values.
 321:../STM32Cube_FW_F4_V1.4.0/Drivers/CMSIS/Include/core_cmInstr.h **** 
 322:../STM32Cube_FW_F4_V1.4.0/Drivers/CMSIS/Include/core_cmInstr.h ****     \param [in]    ptr  Pointer to data
 323:../STM32Cube_FW_F4_V1.4.0/Drivers/CMSIS/Include/core_cmInstr.h ****     \return        value of type uint16_t at (*ptr)
 324:../STM32Cube_FW_F4_V1.4.0/Drivers/CMSIS/Include/core_cmInstr.h ****  */
 325:../STM32Cube_FW_F4_V1.4.0/Drivers/CMSIS/Include/core_cmInstr.h **** #define __LDRHT(ptr)                      ((uint16_t)  __ldrt(ptr))
 326:../STM32Cube_FW_F4_V1.4.0/Drivers/CMSIS/Include/core_cmInstr.h **** 
 327:../STM32Cube_FW_F4_V1.4.0/Drivers/CMSIS/Include/core_cmInstr.h **** 
 328:../STM32Cube_FW_F4_V1.4.0/Drivers/CMSIS/Include/core_cmInstr.h **** /** \brief  LDRT Unprivileged (32 bit)
 329:../STM32Cube_FW_F4_V1.4.0/Drivers/CMSIS/Include/core_cmInstr.h **** 
 330:../STM32Cube_FW_F4_V1.4.0/Drivers/CMSIS/Include/core_cmInstr.h ****     This function executes a Unprivileged LDRT instruction for 32 bit values.
 331:../STM32Cube_FW_F4_V1.4.0/Drivers/CMSIS/Include/core_cmInstr.h **** 
 332:../STM32Cube_FW_F4_V1.4.0/Drivers/CMSIS/Include/core_cmInstr.h ****     \param [in]    ptr  Pointer to data
 333:../STM32Cube_FW_F4_V1.4.0/Drivers/CMSIS/Include/core_cmInstr.h ****     \return        value of type uint32_t at (*ptr)
 334:../STM32Cube_FW_F4_V1.4.0/Drivers/CMSIS/Include/core_cmInstr.h ****  */
 335:../STM32Cube_FW_F4_V1.4.0/Drivers/CMSIS/Include/core_cmInstr.h **** #define __LDRT(ptr)                       ((uint32_t ) __ldrt(ptr))
 336:../STM32Cube_FW_F4_V1.4.0/Drivers/CMSIS/Include/core_cmInstr.h **** 
 337:../STM32Cube_FW_F4_V1.4.0/Drivers/CMSIS/Include/core_cmInstr.h **** 
 338:../STM32Cube_FW_F4_V1.4.0/Drivers/CMSIS/Include/core_cmInstr.h **** /** \brief  STRT Unprivileged (8 bit)
 339:../STM32Cube_FW_F4_V1.4.0/Drivers/CMSIS/Include/core_cmInstr.h **** 
 340:../STM32Cube_FW_F4_V1.4.0/Drivers/CMSIS/Include/core_cmInstr.h ****     This function executes a Unprivileged STRT instruction for 8 bit values.
 341:../STM32Cube_FW_F4_V1.4.0/Drivers/CMSIS/Include/core_cmInstr.h **** 
 342:../STM32Cube_FW_F4_V1.4.0/Drivers/CMSIS/Include/core_cmInstr.h ****     \param [in]  value  Value to store
 343:../STM32Cube_FW_F4_V1.4.0/Drivers/CMSIS/Include/core_cmInstr.h ****     \param [in]    ptr  Pointer to location
 344:../STM32Cube_FW_F4_V1.4.0/Drivers/CMSIS/Include/core_cmInstr.h ****  */
 345:../STM32Cube_FW_F4_V1.4.0/Drivers/CMSIS/Include/core_cmInstr.h **** #define __STRBT(value, ptr)               __strt(value, ptr)
 346:../STM32Cube_FW_F4_V1.4.0/Drivers/CMSIS/Include/core_cmInstr.h **** 
 347:../STM32Cube_FW_F4_V1.4.0/Drivers/CMSIS/Include/core_cmInstr.h **** 
 348:../STM32Cube_FW_F4_V1.4.0/Drivers/CMSIS/Include/core_cmInstr.h **** /** \brief  STRT Unprivileged (16 bit)
 349:../STM32Cube_FW_F4_V1.4.0/Drivers/CMSIS/Include/core_cmInstr.h **** 
 350:../STM32Cube_FW_F4_V1.4.0/Drivers/CMSIS/Include/core_cmInstr.h ****     This function executes a Unprivileged STRT instruction for 16 bit values.
 351:../STM32Cube_FW_F4_V1.4.0/Drivers/CMSIS/Include/core_cmInstr.h **** 
 352:../STM32Cube_FW_F4_V1.4.0/Drivers/CMSIS/Include/core_cmInstr.h ****     \param [in]  value  Value to store
 353:../STM32Cube_FW_F4_V1.4.0/Drivers/CMSIS/Include/core_cmInstr.h ****     \param [in]    ptr  Pointer to location
 354:../STM32Cube_FW_F4_V1.4.0/Drivers/CMSIS/Include/core_cmInstr.h ****  */
 355:../STM32Cube_FW_F4_V1.4.0/Drivers/CMSIS/Include/core_cmInstr.h **** #define __STRHT(value, ptr)               __strt(value, ptr)
 356:../STM32Cube_FW_F4_V1.4.0/Drivers/CMSIS/Include/core_cmInstr.h **** 
 357:../STM32Cube_FW_F4_V1.4.0/Drivers/CMSIS/Include/core_cmInstr.h **** 
ARM GAS  C:\cygwin\tmp\ccxydAnz.s 			page 27


 358:../STM32Cube_FW_F4_V1.4.0/Drivers/CMSIS/Include/core_cmInstr.h **** /** \brief  STRT Unprivileged (32 bit)
 359:../STM32Cube_FW_F4_V1.4.0/Drivers/CMSIS/Include/core_cmInstr.h **** 
 360:../STM32Cube_FW_F4_V1.4.0/Drivers/CMSIS/Include/core_cmInstr.h ****     This function executes a Unprivileged STRT instruction for 32 bit values.
 361:../STM32Cube_FW_F4_V1.4.0/Drivers/CMSIS/Include/core_cmInstr.h **** 
 362:../STM32Cube_FW_F4_V1.4.0/Drivers/CMSIS/Include/core_cmInstr.h ****     \param [in]  value  Value to store
 363:../STM32Cube_FW_F4_V1.4.0/Drivers/CMSIS/Include/core_cmInstr.h ****     \param [in]    ptr  Pointer to location
 364:../STM32Cube_FW_F4_V1.4.0/Drivers/CMSIS/Include/core_cmInstr.h ****  */
 365:../STM32Cube_FW_F4_V1.4.0/Drivers/CMSIS/Include/core_cmInstr.h **** #define __STRT(value, ptr)                __strt(value, ptr)
 366:../STM32Cube_FW_F4_V1.4.0/Drivers/CMSIS/Include/core_cmInstr.h **** 
 367:../STM32Cube_FW_F4_V1.4.0/Drivers/CMSIS/Include/core_cmInstr.h **** #endif /* (__CORTEX_M >= 0x03) || (__CORTEX_SC >= 300) */
 368:../STM32Cube_FW_F4_V1.4.0/Drivers/CMSIS/Include/core_cmInstr.h **** 
 369:../STM32Cube_FW_F4_V1.4.0/Drivers/CMSIS/Include/core_cmInstr.h **** 
 370:../STM32Cube_FW_F4_V1.4.0/Drivers/CMSIS/Include/core_cmInstr.h **** #elif defined ( __GNUC__ ) /*------------------ GNU Compiler ---------------------*/
 371:../STM32Cube_FW_F4_V1.4.0/Drivers/CMSIS/Include/core_cmInstr.h **** /* GNU gcc specific functions */
 372:../STM32Cube_FW_F4_V1.4.0/Drivers/CMSIS/Include/core_cmInstr.h **** 
 373:../STM32Cube_FW_F4_V1.4.0/Drivers/CMSIS/Include/core_cmInstr.h **** /* Define macros for porting to both thumb1 and thumb2.
 374:../STM32Cube_FW_F4_V1.4.0/Drivers/CMSIS/Include/core_cmInstr.h ****  * For thumb1, use low register (r0-r7), specified by constrant "l"
 375:../STM32Cube_FW_F4_V1.4.0/Drivers/CMSIS/Include/core_cmInstr.h ****  * Otherwise, use general registers, specified by constrant "r" */
 376:../STM32Cube_FW_F4_V1.4.0/Drivers/CMSIS/Include/core_cmInstr.h **** #if defined (__thumb__) && !defined (__thumb2__)
 377:../STM32Cube_FW_F4_V1.4.0/Drivers/CMSIS/Include/core_cmInstr.h **** #define __CMSIS_GCC_OUT_REG(r) "=l" (r)
 378:../STM32Cube_FW_F4_V1.4.0/Drivers/CMSIS/Include/core_cmInstr.h **** #define __CMSIS_GCC_USE_REG(r) "l" (r)
 379:../STM32Cube_FW_F4_V1.4.0/Drivers/CMSIS/Include/core_cmInstr.h **** #else
 380:../STM32Cube_FW_F4_V1.4.0/Drivers/CMSIS/Include/core_cmInstr.h **** #define __CMSIS_GCC_OUT_REG(r) "=r" (r)
 381:../STM32Cube_FW_F4_V1.4.0/Drivers/CMSIS/Include/core_cmInstr.h **** #define __CMSIS_GCC_USE_REG(r) "r" (r)
 382:../STM32Cube_FW_F4_V1.4.0/Drivers/CMSIS/Include/core_cmInstr.h **** #endif
 383:../STM32Cube_FW_F4_V1.4.0/Drivers/CMSIS/Include/core_cmInstr.h **** 
 384:../STM32Cube_FW_F4_V1.4.0/Drivers/CMSIS/Include/core_cmInstr.h **** /** \brief  No Operation
 385:../STM32Cube_FW_F4_V1.4.0/Drivers/CMSIS/Include/core_cmInstr.h **** 
 386:../STM32Cube_FW_F4_V1.4.0/Drivers/CMSIS/Include/core_cmInstr.h ****     No Operation does nothing. This instruction can be used for code alignment purposes.
 387:../STM32Cube_FW_F4_V1.4.0/Drivers/CMSIS/Include/core_cmInstr.h ****  */
 388:../STM32Cube_FW_F4_V1.4.0/Drivers/CMSIS/Include/core_cmInstr.h **** __attribute__( ( always_inline ) ) __STATIC_INLINE void __NOP(void)
 389:../STM32Cube_FW_F4_V1.4.0/Drivers/CMSIS/Include/core_cmInstr.h **** {
 390:../STM32Cube_FW_F4_V1.4.0/Drivers/CMSIS/Include/core_cmInstr.h ****   __ASM volatile ("nop");
 391:../STM32Cube_FW_F4_V1.4.0/Drivers/CMSIS/Include/core_cmInstr.h **** }
 392:../STM32Cube_FW_F4_V1.4.0/Drivers/CMSIS/Include/core_cmInstr.h **** 
 393:../STM32Cube_FW_F4_V1.4.0/Drivers/CMSIS/Include/core_cmInstr.h **** 
 394:../STM32Cube_FW_F4_V1.4.0/Drivers/CMSIS/Include/core_cmInstr.h **** /** \brief  Wait For Interrupt
 395:../STM32Cube_FW_F4_V1.4.0/Drivers/CMSIS/Include/core_cmInstr.h **** 
 396:../STM32Cube_FW_F4_V1.4.0/Drivers/CMSIS/Include/core_cmInstr.h ****     Wait For Interrupt is a hint instruction that suspends execution
 397:../STM32Cube_FW_F4_V1.4.0/Drivers/CMSIS/Include/core_cmInstr.h ****     until one of a number of events occurs.
 398:../STM32Cube_FW_F4_V1.4.0/Drivers/CMSIS/Include/core_cmInstr.h ****  */
 399:../STM32Cube_FW_F4_V1.4.0/Drivers/CMSIS/Include/core_cmInstr.h **** __attribute__( ( always_inline ) ) __STATIC_INLINE void __WFI(void)
 400:../STM32Cube_FW_F4_V1.4.0/Drivers/CMSIS/Include/core_cmInstr.h **** {
 401:../STM32Cube_FW_F4_V1.4.0/Drivers/CMSIS/Include/core_cmInstr.h ****   __ASM volatile ("wfi");
 402:../STM32Cube_FW_F4_V1.4.0/Drivers/CMSIS/Include/core_cmInstr.h **** }
 403:../STM32Cube_FW_F4_V1.4.0/Drivers/CMSIS/Include/core_cmInstr.h **** 
 404:../STM32Cube_FW_F4_V1.4.0/Drivers/CMSIS/Include/core_cmInstr.h **** 
 405:../STM32Cube_FW_F4_V1.4.0/Drivers/CMSIS/Include/core_cmInstr.h **** /** \brief  Wait For Event
 406:../STM32Cube_FW_F4_V1.4.0/Drivers/CMSIS/Include/core_cmInstr.h **** 
 407:../STM32Cube_FW_F4_V1.4.0/Drivers/CMSIS/Include/core_cmInstr.h ****     Wait For Event is a hint instruction that permits the processor to enter
 408:../STM32Cube_FW_F4_V1.4.0/Drivers/CMSIS/Include/core_cmInstr.h ****     a low-power state until one of a number of events occurs.
 409:../STM32Cube_FW_F4_V1.4.0/Drivers/CMSIS/Include/core_cmInstr.h ****  */
 410:../STM32Cube_FW_F4_V1.4.0/Drivers/CMSIS/Include/core_cmInstr.h **** __attribute__( ( always_inline ) ) __STATIC_INLINE void __WFE(void)
 411:../STM32Cube_FW_F4_V1.4.0/Drivers/CMSIS/Include/core_cmInstr.h **** {
 412:../STM32Cube_FW_F4_V1.4.0/Drivers/CMSIS/Include/core_cmInstr.h ****   __ASM volatile ("wfe");
 413:../STM32Cube_FW_F4_V1.4.0/Drivers/CMSIS/Include/core_cmInstr.h **** }
 414:../STM32Cube_FW_F4_V1.4.0/Drivers/CMSIS/Include/core_cmInstr.h **** 
ARM GAS  C:\cygwin\tmp\ccxydAnz.s 			page 28


 415:../STM32Cube_FW_F4_V1.4.0/Drivers/CMSIS/Include/core_cmInstr.h **** 
 416:../STM32Cube_FW_F4_V1.4.0/Drivers/CMSIS/Include/core_cmInstr.h **** /** \brief  Send Event
 417:../STM32Cube_FW_F4_V1.4.0/Drivers/CMSIS/Include/core_cmInstr.h **** 
 418:../STM32Cube_FW_F4_V1.4.0/Drivers/CMSIS/Include/core_cmInstr.h ****     Send Event is a hint instruction. It causes an event to be signaled to the CPU.
 419:../STM32Cube_FW_F4_V1.4.0/Drivers/CMSIS/Include/core_cmInstr.h ****  */
 420:../STM32Cube_FW_F4_V1.4.0/Drivers/CMSIS/Include/core_cmInstr.h **** __attribute__( ( always_inline ) ) __STATIC_INLINE void __SEV(void)
 421:../STM32Cube_FW_F4_V1.4.0/Drivers/CMSIS/Include/core_cmInstr.h **** {
 422:../STM32Cube_FW_F4_V1.4.0/Drivers/CMSIS/Include/core_cmInstr.h ****   __ASM volatile ("sev");
 423:../STM32Cube_FW_F4_V1.4.0/Drivers/CMSIS/Include/core_cmInstr.h **** }
 424:../STM32Cube_FW_F4_V1.4.0/Drivers/CMSIS/Include/core_cmInstr.h **** 
 425:../STM32Cube_FW_F4_V1.4.0/Drivers/CMSIS/Include/core_cmInstr.h **** 
 426:../STM32Cube_FW_F4_V1.4.0/Drivers/CMSIS/Include/core_cmInstr.h **** /** \brief  Instruction Synchronization Barrier
 427:../STM32Cube_FW_F4_V1.4.0/Drivers/CMSIS/Include/core_cmInstr.h **** 
 428:../STM32Cube_FW_F4_V1.4.0/Drivers/CMSIS/Include/core_cmInstr.h ****     Instruction Synchronization Barrier flushes the pipeline in the processor,
 429:../STM32Cube_FW_F4_V1.4.0/Drivers/CMSIS/Include/core_cmInstr.h ****     so that all instructions following the ISB are fetched from cache or
 430:../STM32Cube_FW_F4_V1.4.0/Drivers/CMSIS/Include/core_cmInstr.h ****     memory, after the instruction has been completed.
 431:../STM32Cube_FW_F4_V1.4.0/Drivers/CMSIS/Include/core_cmInstr.h ****  */
 432:../STM32Cube_FW_F4_V1.4.0/Drivers/CMSIS/Include/core_cmInstr.h **** __attribute__( ( always_inline ) ) __STATIC_INLINE void __ISB(void)
 433:../STM32Cube_FW_F4_V1.4.0/Drivers/CMSIS/Include/core_cmInstr.h **** {
 434:../STM32Cube_FW_F4_V1.4.0/Drivers/CMSIS/Include/core_cmInstr.h ****   __ASM volatile ("isb");
 435:../STM32Cube_FW_F4_V1.4.0/Drivers/CMSIS/Include/core_cmInstr.h **** }
 436:../STM32Cube_FW_F4_V1.4.0/Drivers/CMSIS/Include/core_cmInstr.h **** 
 437:../STM32Cube_FW_F4_V1.4.0/Drivers/CMSIS/Include/core_cmInstr.h **** 
 438:../STM32Cube_FW_F4_V1.4.0/Drivers/CMSIS/Include/core_cmInstr.h **** /** \brief  Data Synchronization Barrier
 439:../STM32Cube_FW_F4_V1.4.0/Drivers/CMSIS/Include/core_cmInstr.h **** 
 440:../STM32Cube_FW_F4_V1.4.0/Drivers/CMSIS/Include/core_cmInstr.h ****     This function acts as a special kind of Data Memory Barrier.
 441:../STM32Cube_FW_F4_V1.4.0/Drivers/CMSIS/Include/core_cmInstr.h ****     It completes when all explicit memory accesses before this instruction complete.
 442:../STM32Cube_FW_F4_V1.4.0/Drivers/CMSIS/Include/core_cmInstr.h ****  */
 443:../STM32Cube_FW_F4_V1.4.0/Drivers/CMSIS/Include/core_cmInstr.h **** __attribute__( ( always_inline ) ) __STATIC_INLINE void __DSB(void)
 444:../STM32Cube_FW_F4_V1.4.0/Drivers/CMSIS/Include/core_cmInstr.h **** {
 445:../STM32Cube_FW_F4_V1.4.0/Drivers/CMSIS/Include/core_cmInstr.h ****   __ASM volatile ("dsb");
 446:../STM32Cube_FW_F4_V1.4.0/Drivers/CMSIS/Include/core_cmInstr.h **** }
 447:../STM32Cube_FW_F4_V1.4.0/Drivers/CMSIS/Include/core_cmInstr.h **** 
 448:../STM32Cube_FW_F4_V1.4.0/Drivers/CMSIS/Include/core_cmInstr.h **** 
 449:../STM32Cube_FW_F4_V1.4.0/Drivers/CMSIS/Include/core_cmInstr.h **** /** \brief  Data Memory Barrier
 450:../STM32Cube_FW_F4_V1.4.0/Drivers/CMSIS/Include/core_cmInstr.h **** 
 451:../STM32Cube_FW_F4_V1.4.0/Drivers/CMSIS/Include/core_cmInstr.h ****     This function ensures the apparent order of the explicit memory operations before
 452:../STM32Cube_FW_F4_V1.4.0/Drivers/CMSIS/Include/core_cmInstr.h ****     and after the instruction, without ensuring their completion.
 453:../STM32Cube_FW_F4_V1.4.0/Drivers/CMSIS/Include/core_cmInstr.h ****  */
 454:../STM32Cube_FW_F4_V1.4.0/Drivers/CMSIS/Include/core_cmInstr.h **** __attribute__( ( always_inline ) ) __STATIC_INLINE void __DMB(void)
 455:../STM32Cube_FW_F4_V1.4.0/Drivers/CMSIS/Include/core_cmInstr.h **** {
 456:../STM32Cube_FW_F4_V1.4.0/Drivers/CMSIS/Include/core_cmInstr.h ****   __ASM volatile ("dmb");
 457:../STM32Cube_FW_F4_V1.4.0/Drivers/CMSIS/Include/core_cmInstr.h **** }
 458:../STM32Cube_FW_F4_V1.4.0/Drivers/CMSIS/Include/core_cmInstr.h **** 
 459:../STM32Cube_FW_F4_V1.4.0/Drivers/CMSIS/Include/core_cmInstr.h **** 
 460:../STM32Cube_FW_F4_V1.4.0/Drivers/CMSIS/Include/core_cmInstr.h **** /** \brief  Reverse byte order (32 bit)
 461:../STM32Cube_FW_F4_V1.4.0/Drivers/CMSIS/Include/core_cmInstr.h **** 
 462:../STM32Cube_FW_F4_V1.4.0/Drivers/CMSIS/Include/core_cmInstr.h ****     This function reverses the byte order in integer value.
 463:../STM32Cube_FW_F4_V1.4.0/Drivers/CMSIS/Include/core_cmInstr.h **** 
 464:../STM32Cube_FW_F4_V1.4.0/Drivers/CMSIS/Include/core_cmInstr.h ****     \param [in]    value  Value to reverse
 465:../STM32Cube_FW_F4_V1.4.0/Drivers/CMSIS/Include/core_cmInstr.h ****     \return               Reversed value
 466:../STM32Cube_FW_F4_V1.4.0/Drivers/CMSIS/Include/core_cmInstr.h ****  */
 467:../STM32Cube_FW_F4_V1.4.0/Drivers/CMSIS/Include/core_cmInstr.h **** __attribute__( ( always_inline ) ) __STATIC_INLINE uint32_t __REV(uint32_t value)
 468:../STM32Cube_FW_F4_V1.4.0/Drivers/CMSIS/Include/core_cmInstr.h **** {
 469:../STM32Cube_FW_F4_V1.4.0/Drivers/CMSIS/Include/core_cmInstr.h **** #if (__GNUC__ > 4) || (__GNUC__ == 4 && __GNUC_MINOR__ >= 5)
 470:../STM32Cube_FW_F4_V1.4.0/Drivers/CMSIS/Include/core_cmInstr.h ****   return __builtin_bswap32(value);
 471:../STM32Cube_FW_F4_V1.4.0/Drivers/CMSIS/Include/core_cmInstr.h **** #else
ARM GAS  C:\cygwin\tmp\ccxydAnz.s 			page 29


 472:../STM32Cube_FW_F4_V1.4.0/Drivers/CMSIS/Include/core_cmInstr.h ****   uint32_t result;
 473:../STM32Cube_FW_F4_V1.4.0/Drivers/CMSIS/Include/core_cmInstr.h **** 
 474:../STM32Cube_FW_F4_V1.4.0/Drivers/CMSIS/Include/core_cmInstr.h ****   __ASM volatile ("rev %0, %1" : __CMSIS_GCC_OUT_REG (result) : __CMSIS_GCC_USE_REG (value) );
 475:../STM32Cube_FW_F4_V1.4.0/Drivers/CMSIS/Include/core_cmInstr.h ****   return(result);
 476:../STM32Cube_FW_F4_V1.4.0/Drivers/CMSIS/Include/core_cmInstr.h **** #endif
 477:../STM32Cube_FW_F4_V1.4.0/Drivers/CMSIS/Include/core_cmInstr.h **** }
 478:../STM32Cube_FW_F4_V1.4.0/Drivers/CMSIS/Include/core_cmInstr.h **** 
 479:../STM32Cube_FW_F4_V1.4.0/Drivers/CMSIS/Include/core_cmInstr.h **** 
 480:../STM32Cube_FW_F4_V1.4.0/Drivers/CMSIS/Include/core_cmInstr.h **** /** \brief  Reverse byte order (16 bit)
 481:../STM32Cube_FW_F4_V1.4.0/Drivers/CMSIS/Include/core_cmInstr.h **** 
 482:../STM32Cube_FW_F4_V1.4.0/Drivers/CMSIS/Include/core_cmInstr.h ****     This function reverses the byte order in two unsigned short values.
 483:../STM32Cube_FW_F4_V1.4.0/Drivers/CMSIS/Include/core_cmInstr.h **** 
 484:../STM32Cube_FW_F4_V1.4.0/Drivers/CMSIS/Include/core_cmInstr.h ****     \param [in]    value  Value to reverse
 485:../STM32Cube_FW_F4_V1.4.0/Drivers/CMSIS/Include/core_cmInstr.h ****     \return               Reversed value
 486:../STM32Cube_FW_F4_V1.4.0/Drivers/CMSIS/Include/core_cmInstr.h ****  */
 487:../STM32Cube_FW_F4_V1.4.0/Drivers/CMSIS/Include/core_cmInstr.h **** __attribute__( ( always_inline ) ) __STATIC_INLINE uint32_t __REV16(uint32_t value)
 488:../STM32Cube_FW_F4_V1.4.0/Drivers/CMSIS/Include/core_cmInstr.h **** {
 489:../STM32Cube_FW_F4_V1.4.0/Drivers/CMSIS/Include/core_cmInstr.h ****   uint32_t result;
 490:../STM32Cube_FW_F4_V1.4.0/Drivers/CMSIS/Include/core_cmInstr.h **** 
 491:../STM32Cube_FW_F4_V1.4.0/Drivers/CMSIS/Include/core_cmInstr.h ****   __ASM volatile ("rev16 %0, %1" : __CMSIS_GCC_OUT_REG (result) : __CMSIS_GCC_USE_REG (value) );
 492:../STM32Cube_FW_F4_V1.4.0/Drivers/CMSIS/Include/core_cmInstr.h ****   return(result);
 493:../STM32Cube_FW_F4_V1.4.0/Drivers/CMSIS/Include/core_cmInstr.h **** }
 494:../STM32Cube_FW_F4_V1.4.0/Drivers/CMSIS/Include/core_cmInstr.h **** 
 495:../STM32Cube_FW_F4_V1.4.0/Drivers/CMSIS/Include/core_cmInstr.h **** 
 496:../STM32Cube_FW_F4_V1.4.0/Drivers/CMSIS/Include/core_cmInstr.h **** /** \brief  Reverse byte order in signed short value
 497:../STM32Cube_FW_F4_V1.4.0/Drivers/CMSIS/Include/core_cmInstr.h **** 
 498:../STM32Cube_FW_F4_V1.4.0/Drivers/CMSIS/Include/core_cmInstr.h ****     This function reverses the byte order in a signed short value with sign extension to integer.
 499:../STM32Cube_FW_F4_V1.4.0/Drivers/CMSIS/Include/core_cmInstr.h **** 
 500:../STM32Cube_FW_F4_V1.4.0/Drivers/CMSIS/Include/core_cmInstr.h ****     \param [in]    value  Value to reverse
 501:../STM32Cube_FW_F4_V1.4.0/Drivers/CMSIS/Include/core_cmInstr.h ****     \return               Reversed value
 502:../STM32Cube_FW_F4_V1.4.0/Drivers/CMSIS/Include/core_cmInstr.h ****  */
 503:../STM32Cube_FW_F4_V1.4.0/Drivers/CMSIS/Include/core_cmInstr.h **** __attribute__( ( always_inline ) ) __STATIC_INLINE int32_t __REVSH(int32_t value)
 504:../STM32Cube_FW_F4_V1.4.0/Drivers/CMSIS/Include/core_cmInstr.h **** {
 505:../STM32Cube_FW_F4_V1.4.0/Drivers/CMSIS/Include/core_cmInstr.h **** #if (__GNUC__ > 4) || (__GNUC__ == 4 && __GNUC_MINOR__ >= 8)
 506:../STM32Cube_FW_F4_V1.4.0/Drivers/CMSIS/Include/core_cmInstr.h ****   return (short)__builtin_bswap16(value);
 507:../STM32Cube_FW_F4_V1.4.0/Drivers/CMSIS/Include/core_cmInstr.h **** #else
 508:../STM32Cube_FW_F4_V1.4.0/Drivers/CMSIS/Include/core_cmInstr.h ****   uint32_t result;
 509:../STM32Cube_FW_F4_V1.4.0/Drivers/CMSIS/Include/core_cmInstr.h **** 
 510:../STM32Cube_FW_F4_V1.4.0/Drivers/CMSIS/Include/core_cmInstr.h ****   __ASM volatile ("revsh %0, %1" : __CMSIS_GCC_OUT_REG (result) : __CMSIS_GCC_USE_REG (value) );
 511:../STM32Cube_FW_F4_V1.4.0/Drivers/CMSIS/Include/core_cmInstr.h ****   return(result);
 512:../STM32Cube_FW_F4_V1.4.0/Drivers/CMSIS/Include/core_cmInstr.h **** #endif
 513:../STM32Cube_FW_F4_V1.4.0/Drivers/CMSIS/Include/core_cmInstr.h **** }
 514:../STM32Cube_FW_F4_V1.4.0/Drivers/CMSIS/Include/core_cmInstr.h **** 
 515:../STM32Cube_FW_F4_V1.4.0/Drivers/CMSIS/Include/core_cmInstr.h **** 
 516:../STM32Cube_FW_F4_V1.4.0/Drivers/CMSIS/Include/core_cmInstr.h **** /** \brief  Rotate Right in unsigned value (32 bit)
 517:../STM32Cube_FW_F4_V1.4.0/Drivers/CMSIS/Include/core_cmInstr.h **** 
 518:../STM32Cube_FW_F4_V1.4.0/Drivers/CMSIS/Include/core_cmInstr.h ****     This function Rotate Right (immediate) provides the value of the contents of a register rotated
 519:../STM32Cube_FW_F4_V1.4.0/Drivers/CMSIS/Include/core_cmInstr.h **** 
 520:../STM32Cube_FW_F4_V1.4.0/Drivers/CMSIS/Include/core_cmInstr.h ****     \param [in]    value  Value to rotate
 521:../STM32Cube_FW_F4_V1.4.0/Drivers/CMSIS/Include/core_cmInstr.h ****     \param [in]    value  Number of Bits to rotate
 522:../STM32Cube_FW_F4_V1.4.0/Drivers/CMSIS/Include/core_cmInstr.h ****     \return               Rotated value
 523:../STM32Cube_FW_F4_V1.4.0/Drivers/CMSIS/Include/core_cmInstr.h ****  */
 524:../STM32Cube_FW_F4_V1.4.0/Drivers/CMSIS/Include/core_cmInstr.h **** __attribute__( ( always_inline ) ) __STATIC_INLINE uint32_t __ROR(uint32_t op1, uint32_t op2)
 525:../STM32Cube_FW_F4_V1.4.0/Drivers/CMSIS/Include/core_cmInstr.h **** {
 526:../STM32Cube_FW_F4_V1.4.0/Drivers/CMSIS/Include/core_cmInstr.h ****   return (op1 >> op2) | (op1 << (32 - op2)); 
 527:../STM32Cube_FW_F4_V1.4.0/Drivers/CMSIS/Include/core_cmInstr.h **** }
 528:../STM32Cube_FW_F4_V1.4.0/Drivers/CMSIS/Include/core_cmInstr.h **** 
ARM GAS  C:\cygwin\tmp\ccxydAnz.s 			page 30


 529:../STM32Cube_FW_F4_V1.4.0/Drivers/CMSIS/Include/core_cmInstr.h **** 
 530:../STM32Cube_FW_F4_V1.4.0/Drivers/CMSIS/Include/core_cmInstr.h **** /** \brief  Breakpoint
 531:../STM32Cube_FW_F4_V1.4.0/Drivers/CMSIS/Include/core_cmInstr.h **** 
 532:../STM32Cube_FW_F4_V1.4.0/Drivers/CMSIS/Include/core_cmInstr.h ****     This function causes the processor to enter Debug state.
 533:../STM32Cube_FW_F4_V1.4.0/Drivers/CMSIS/Include/core_cmInstr.h ****     Debug tools can use this to investigate system state when the instruction at a particular addre
 534:../STM32Cube_FW_F4_V1.4.0/Drivers/CMSIS/Include/core_cmInstr.h **** 
 535:../STM32Cube_FW_F4_V1.4.0/Drivers/CMSIS/Include/core_cmInstr.h ****     \param [in]    value  is ignored by the processor.
 536:../STM32Cube_FW_F4_V1.4.0/Drivers/CMSIS/Include/core_cmInstr.h ****                    If required, a debugger can use it to store additional information about the bre
 537:../STM32Cube_FW_F4_V1.4.0/Drivers/CMSIS/Include/core_cmInstr.h ****  */
 538:../STM32Cube_FW_F4_V1.4.0/Drivers/CMSIS/Include/core_cmInstr.h **** #define __BKPT(value)                       __ASM volatile ("bkpt "#value)
 539:../STM32Cube_FW_F4_V1.4.0/Drivers/CMSIS/Include/core_cmInstr.h **** 
 540:../STM32Cube_FW_F4_V1.4.0/Drivers/CMSIS/Include/core_cmInstr.h **** 
 541:../STM32Cube_FW_F4_V1.4.0/Drivers/CMSIS/Include/core_cmInstr.h **** #if       (__CORTEX_M >= 0x03) || (__CORTEX_SC >= 300)
 542:../STM32Cube_FW_F4_V1.4.0/Drivers/CMSIS/Include/core_cmInstr.h **** 
 543:../STM32Cube_FW_F4_V1.4.0/Drivers/CMSIS/Include/core_cmInstr.h **** /** \brief  Reverse bit order of value
 544:../STM32Cube_FW_F4_V1.4.0/Drivers/CMSIS/Include/core_cmInstr.h **** 
 545:../STM32Cube_FW_F4_V1.4.0/Drivers/CMSIS/Include/core_cmInstr.h ****     This function reverses the bit order of the given value.
 546:../STM32Cube_FW_F4_V1.4.0/Drivers/CMSIS/Include/core_cmInstr.h **** 
 547:../STM32Cube_FW_F4_V1.4.0/Drivers/CMSIS/Include/core_cmInstr.h ****     \param [in]    value  Value to reverse
 548:../STM32Cube_FW_F4_V1.4.0/Drivers/CMSIS/Include/core_cmInstr.h ****     \return               Reversed value
 549:../STM32Cube_FW_F4_V1.4.0/Drivers/CMSIS/Include/core_cmInstr.h ****  */
 550:../STM32Cube_FW_F4_V1.4.0/Drivers/CMSIS/Include/core_cmInstr.h **** __attribute__( ( always_inline ) ) __STATIC_INLINE uint32_t __RBIT(uint32_t value)
 551:../STM32Cube_FW_F4_V1.4.0/Drivers/CMSIS/Include/core_cmInstr.h **** {
 552:../STM32Cube_FW_F4_V1.4.0/Drivers/CMSIS/Include/core_cmInstr.h ****   uint32_t result;
 553:../STM32Cube_FW_F4_V1.4.0/Drivers/CMSIS/Include/core_cmInstr.h **** 
 554:../STM32Cube_FW_F4_V1.4.0/Drivers/CMSIS/Include/core_cmInstr.h ****    __ASM volatile ("rbit %0, %1" : "=r" (result) : "r" (value) );
 636              		.loc 2 554 0
 637 0000 0122     		movs	r2, #1	@ tmp119,
 638              	@ 554 "../STM32Cube_FW_F4_V1.4.0/Drivers/CMSIS/Include/core_cmInstr.h" 1
 639 0002 92FAA2F3 		rbit r3, r2	@ result, tmp119
 640              	@ 0 "" 2
 641              	.LVL13:
 642              		.thumb
 643              	.LBE11:
 644              	.LBE10:
 645              	.LBB12:
 646              	.LBB13:
 555:../STM32Cube_FW_F4_V1.4.0/Drivers/CMSIS/Include/core_cmInstr.h ****    return(result);
 556:../STM32Cube_FW_F4_V1.4.0/Drivers/CMSIS/Include/core_cmInstr.h **** }
 557:../STM32Cube_FW_F4_V1.4.0/Drivers/CMSIS/Include/core_cmInstr.h **** 
 558:../STM32Cube_FW_F4_V1.4.0/Drivers/CMSIS/Include/core_cmInstr.h **** 
 559:../STM32Cube_FW_F4_V1.4.0/Drivers/CMSIS/Include/core_cmInstr.h **** /** \brief  LDR Exclusive (8 bit)
 560:../STM32Cube_FW_F4_V1.4.0/Drivers/CMSIS/Include/core_cmInstr.h **** 
 561:../STM32Cube_FW_F4_V1.4.0/Drivers/CMSIS/Include/core_cmInstr.h ****     This function executes a exclusive LDR instruction for 8 bit value.
 562:../STM32Cube_FW_F4_V1.4.0/Drivers/CMSIS/Include/core_cmInstr.h **** 
 563:../STM32Cube_FW_F4_V1.4.0/Drivers/CMSIS/Include/core_cmInstr.h ****     \param [in]    ptr  Pointer to data
 564:../STM32Cube_FW_F4_V1.4.0/Drivers/CMSIS/Include/core_cmInstr.h ****     \return             value of type uint8_t at (*ptr)
 565:../STM32Cube_FW_F4_V1.4.0/Drivers/CMSIS/Include/core_cmInstr.h ****  */
 566:../STM32Cube_FW_F4_V1.4.0/Drivers/CMSIS/Include/core_cmInstr.h **** __attribute__( ( always_inline ) ) __STATIC_INLINE uint8_t __LDREXB(volatile uint8_t *addr)
 567:../STM32Cube_FW_F4_V1.4.0/Drivers/CMSIS/Include/core_cmInstr.h **** {
 568:../STM32Cube_FW_F4_V1.4.0/Drivers/CMSIS/Include/core_cmInstr.h ****     uint32_t result;
 569:../STM32Cube_FW_F4_V1.4.0/Drivers/CMSIS/Include/core_cmInstr.h **** 
 570:../STM32Cube_FW_F4_V1.4.0/Drivers/CMSIS/Include/core_cmInstr.h **** #if (__GNUC__ > 4) || (__GNUC__ == 4 && __GNUC_MINOR__ >= 8)
 571:../STM32Cube_FW_F4_V1.4.0/Drivers/CMSIS/Include/core_cmInstr.h ****    __ASM volatile ("ldrexb %0, %1" : "=r" (result) : "Q" (*addr) );
 572:../STM32Cube_FW_F4_V1.4.0/Drivers/CMSIS/Include/core_cmInstr.h **** #else
 573:../STM32Cube_FW_F4_V1.4.0/Drivers/CMSIS/Include/core_cmInstr.h ****     /* Prior to GCC 4.8, "Q" will be expanded to [rx, #0] which is not
 574:../STM32Cube_FW_F4_V1.4.0/Drivers/CMSIS/Include/core_cmInstr.h ****        accepted by assembler. So has to use following less efficient pattern.
ARM GAS  C:\cygwin\tmp\ccxydAnz.s 			page 31


 575:../STM32Cube_FW_F4_V1.4.0/Drivers/CMSIS/Include/core_cmInstr.h ****     */
 576:../STM32Cube_FW_F4_V1.4.0/Drivers/CMSIS/Include/core_cmInstr.h ****    __ASM volatile ("ldrexb %0, [%1]" : "=r" (result) : "r" (addr) : "memory" );
 577:../STM32Cube_FW_F4_V1.4.0/Drivers/CMSIS/Include/core_cmInstr.h **** #endif
 578:../STM32Cube_FW_F4_V1.4.0/Drivers/CMSIS/Include/core_cmInstr.h ****    return ((uint8_t) result);    /* Add explicit type cast here */
 579:../STM32Cube_FW_F4_V1.4.0/Drivers/CMSIS/Include/core_cmInstr.h **** }
 580:../STM32Cube_FW_F4_V1.4.0/Drivers/CMSIS/Include/core_cmInstr.h **** 
 581:../STM32Cube_FW_F4_V1.4.0/Drivers/CMSIS/Include/core_cmInstr.h **** 
 582:../STM32Cube_FW_F4_V1.4.0/Drivers/CMSIS/Include/core_cmInstr.h **** /** \brief  LDR Exclusive (16 bit)
 583:../STM32Cube_FW_F4_V1.4.0/Drivers/CMSIS/Include/core_cmInstr.h **** 
 584:../STM32Cube_FW_F4_V1.4.0/Drivers/CMSIS/Include/core_cmInstr.h ****     This function executes a exclusive LDR instruction for 16 bit values.
 585:../STM32Cube_FW_F4_V1.4.0/Drivers/CMSIS/Include/core_cmInstr.h **** 
 586:../STM32Cube_FW_F4_V1.4.0/Drivers/CMSIS/Include/core_cmInstr.h ****     \param [in]    ptr  Pointer to data
 587:../STM32Cube_FW_F4_V1.4.0/Drivers/CMSIS/Include/core_cmInstr.h ****     \return        value of type uint16_t at (*ptr)
 588:../STM32Cube_FW_F4_V1.4.0/Drivers/CMSIS/Include/core_cmInstr.h ****  */
 589:../STM32Cube_FW_F4_V1.4.0/Drivers/CMSIS/Include/core_cmInstr.h **** __attribute__( ( always_inline ) ) __STATIC_INLINE uint16_t __LDREXH(volatile uint16_t *addr)
 590:../STM32Cube_FW_F4_V1.4.0/Drivers/CMSIS/Include/core_cmInstr.h **** {
 591:../STM32Cube_FW_F4_V1.4.0/Drivers/CMSIS/Include/core_cmInstr.h ****     uint32_t result;
 592:../STM32Cube_FW_F4_V1.4.0/Drivers/CMSIS/Include/core_cmInstr.h **** 
 593:../STM32Cube_FW_F4_V1.4.0/Drivers/CMSIS/Include/core_cmInstr.h **** #if (__GNUC__ > 4) || (__GNUC__ == 4 && __GNUC_MINOR__ >= 8)
 594:../STM32Cube_FW_F4_V1.4.0/Drivers/CMSIS/Include/core_cmInstr.h ****    __ASM volatile ("ldrexh %0, %1" : "=r" (result) : "Q" (*addr) );
 595:../STM32Cube_FW_F4_V1.4.0/Drivers/CMSIS/Include/core_cmInstr.h **** #else
 596:../STM32Cube_FW_F4_V1.4.0/Drivers/CMSIS/Include/core_cmInstr.h ****     /* Prior to GCC 4.8, "Q" will be expanded to [rx, #0] which is not
 597:../STM32Cube_FW_F4_V1.4.0/Drivers/CMSIS/Include/core_cmInstr.h ****        accepted by assembler. So has to use following less efficient pattern.
 598:../STM32Cube_FW_F4_V1.4.0/Drivers/CMSIS/Include/core_cmInstr.h ****     */
 599:../STM32Cube_FW_F4_V1.4.0/Drivers/CMSIS/Include/core_cmInstr.h ****    __ASM volatile ("ldrexh %0, [%1]" : "=r" (result) : "r" (addr) : "memory" );
 600:../STM32Cube_FW_F4_V1.4.0/Drivers/CMSIS/Include/core_cmInstr.h **** #endif
 601:../STM32Cube_FW_F4_V1.4.0/Drivers/CMSIS/Include/core_cmInstr.h ****    return ((uint16_t) result);    /* Add explicit type cast here */
 602:../STM32Cube_FW_F4_V1.4.0/Drivers/CMSIS/Include/core_cmInstr.h **** }
 603:../STM32Cube_FW_F4_V1.4.0/Drivers/CMSIS/Include/core_cmInstr.h **** 
 604:../STM32Cube_FW_F4_V1.4.0/Drivers/CMSIS/Include/core_cmInstr.h **** 
 605:../STM32Cube_FW_F4_V1.4.0/Drivers/CMSIS/Include/core_cmInstr.h **** /** \brief  LDR Exclusive (32 bit)
 606:../STM32Cube_FW_F4_V1.4.0/Drivers/CMSIS/Include/core_cmInstr.h **** 
 607:../STM32Cube_FW_F4_V1.4.0/Drivers/CMSIS/Include/core_cmInstr.h ****     This function executes a exclusive LDR instruction for 32 bit values.
 608:../STM32Cube_FW_F4_V1.4.0/Drivers/CMSIS/Include/core_cmInstr.h **** 
 609:../STM32Cube_FW_F4_V1.4.0/Drivers/CMSIS/Include/core_cmInstr.h ****     \param [in]    ptr  Pointer to data
 610:../STM32Cube_FW_F4_V1.4.0/Drivers/CMSIS/Include/core_cmInstr.h ****     \return        value of type uint32_t at (*ptr)
 611:../STM32Cube_FW_F4_V1.4.0/Drivers/CMSIS/Include/core_cmInstr.h ****  */
 612:../STM32Cube_FW_F4_V1.4.0/Drivers/CMSIS/Include/core_cmInstr.h **** __attribute__( ( always_inline ) ) __STATIC_INLINE uint32_t __LDREXW(volatile uint32_t *addr)
 613:../STM32Cube_FW_F4_V1.4.0/Drivers/CMSIS/Include/core_cmInstr.h **** {
 614:../STM32Cube_FW_F4_V1.4.0/Drivers/CMSIS/Include/core_cmInstr.h ****     uint32_t result;
 615:../STM32Cube_FW_F4_V1.4.0/Drivers/CMSIS/Include/core_cmInstr.h **** 
 616:../STM32Cube_FW_F4_V1.4.0/Drivers/CMSIS/Include/core_cmInstr.h ****    __ASM volatile ("ldrex %0, %1" : "=r" (result) : "Q" (*addr) );
 617:../STM32Cube_FW_F4_V1.4.0/Drivers/CMSIS/Include/core_cmInstr.h ****    return(result);
 618:../STM32Cube_FW_F4_V1.4.0/Drivers/CMSIS/Include/core_cmInstr.h **** }
 619:../STM32Cube_FW_F4_V1.4.0/Drivers/CMSIS/Include/core_cmInstr.h **** 
 620:../STM32Cube_FW_F4_V1.4.0/Drivers/CMSIS/Include/core_cmInstr.h **** 
 621:../STM32Cube_FW_F4_V1.4.0/Drivers/CMSIS/Include/core_cmInstr.h **** /** \brief  STR Exclusive (8 bit)
 622:../STM32Cube_FW_F4_V1.4.0/Drivers/CMSIS/Include/core_cmInstr.h **** 
 623:../STM32Cube_FW_F4_V1.4.0/Drivers/CMSIS/Include/core_cmInstr.h ****     This function executes a exclusive STR instruction for 8 bit values.
 624:../STM32Cube_FW_F4_V1.4.0/Drivers/CMSIS/Include/core_cmInstr.h **** 
 625:../STM32Cube_FW_F4_V1.4.0/Drivers/CMSIS/Include/core_cmInstr.h ****     \param [in]  value  Value to store
 626:../STM32Cube_FW_F4_V1.4.0/Drivers/CMSIS/Include/core_cmInstr.h ****     \param [in]    ptr  Pointer to location
 627:../STM32Cube_FW_F4_V1.4.0/Drivers/CMSIS/Include/core_cmInstr.h ****     \return          0  Function succeeded
 628:../STM32Cube_FW_F4_V1.4.0/Drivers/CMSIS/Include/core_cmInstr.h ****     \return          1  Function failed
 629:../STM32Cube_FW_F4_V1.4.0/Drivers/CMSIS/Include/core_cmInstr.h ****  */
 630:../STM32Cube_FW_F4_V1.4.0/Drivers/CMSIS/Include/core_cmInstr.h **** __attribute__( ( always_inline ) ) __STATIC_INLINE uint32_t __STREXB(uint8_t value, volatile uint8_
 631:../STM32Cube_FW_F4_V1.4.0/Drivers/CMSIS/Include/core_cmInstr.h **** {
ARM GAS  C:\cygwin\tmp\ccxydAnz.s 			page 32


 632:../STM32Cube_FW_F4_V1.4.0/Drivers/CMSIS/Include/core_cmInstr.h ****    uint32_t result;
 633:../STM32Cube_FW_F4_V1.4.0/Drivers/CMSIS/Include/core_cmInstr.h **** 
 634:../STM32Cube_FW_F4_V1.4.0/Drivers/CMSIS/Include/core_cmInstr.h ****    __ASM volatile ("strexb %0, %2, %1" : "=&r" (result), "=Q" (*addr) : "r" ((uint32_t)value) );
 635:../STM32Cube_FW_F4_V1.4.0/Drivers/CMSIS/Include/core_cmInstr.h ****    return(result);
 636:../STM32Cube_FW_F4_V1.4.0/Drivers/CMSIS/Include/core_cmInstr.h **** }
 637:../STM32Cube_FW_F4_V1.4.0/Drivers/CMSIS/Include/core_cmInstr.h **** 
 638:../STM32Cube_FW_F4_V1.4.0/Drivers/CMSIS/Include/core_cmInstr.h **** 
 639:../STM32Cube_FW_F4_V1.4.0/Drivers/CMSIS/Include/core_cmInstr.h **** /** \brief  STR Exclusive (16 bit)
 640:../STM32Cube_FW_F4_V1.4.0/Drivers/CMSIS/Include/core_cmInstr.h **** 
 641:../STM32Cube_FW_F4_V1.4.0/Drivers/CMSIS/Include/core_cmInstr.h ****     This function executes a exclusive STR instruction for 16 bit values.
 642:../STM32Cube_FW_F4_V1.4.0/Drivers/CMSIS/Include/core_cmInstr.h **** 
 643:../STM32Cube_FW_F4_V1.4.0/Drivers/CMSIS/Include/core_cmInstr.h ****     \param [in]  value  Value to store
 644:../STM32Cube_FW_F4_V1.4.0/Drivers/CMSIS/Include/core_cmInstr.h ****     \param [in]    ptr  Pointer to location
 645:../STM32Cube_FW_F4_V1.4.0/Drivers/CMSIS/Include/core_cmInstr.h ****     \return          0  Function succeeded
 646:../STM32Cube_FW_F4_V1.4.0/Drivers/CMSIS/Include/core_cmInstr.h ****     \return          1  Function failed
 647:../STM32Cube_FW_F4_V1.4.0/Drivers/CMSIS/Include/core_cmInstr.h ****  */
 648:../STM32Cube_FW_F4_V1.4.0/Drivers/CMSIS/Include/core_cmInstr.h **** __attribute__( ( always_inline ) ) __STATIC_INLINE uint32_t __STREXH(uint16_t value, volatile uint1
 649:../STM32Cube_FW_F4_V1.4.0/Drivers/CMSIS/Include/core_cmInstr.h **** {
 650:../STM32Cube_FW_F4_V1.4.0/Drivers/CMSIS/Include/core_cmInstr.h ****    uint32_t result;
 651:../STM32Cube_FW_F4_V1.4.0/Drivers/CMSIS/Include/core_cmInstr.h **** 
 652:../STM32Cube_FW_F4_V1.4.0/Drivers/CMSIS/Include/core_cmInstr.h ****    __ASM volatile ("strexh %0, %2, %1" : "=&r" (result), "=Q" (*addr) : "r" ((uint32_t)value) );
 653:../STM32Cube_FW_F4_V1.4.0/Drivers/CMSIS/Include/core_cmInstr.h ****    return(result);
 654:../STM32Cube_FW_F4_V1.4.0/Drivers/CMSIS/Include/core_cmInstr.h **** }
 655:../STM32Cube_FW_F4_V1.4.0/Drivers/CMSIS/Include/core_cmInstr.h **** 
 656:../STM32Cube_FW_F4_V1.4.0/Drivers/CMSIS/Include/core_cmInstr.h **** 
 657:../STM32Cube_FW_F4_V1.4.0/Drivers/CMSIS/Include/core_cmInstr.h **** /** \brief  STR Exclusive (32 bit)
 658:../STM32Cube_FW_F4_V1.4.0/Drivers/CMSIS/Include/core_cmInstr.h **** 
 659:../STM32Cube_FW_F4_V1.4.0/Drivers/CMSIS/Include/core_cmInstr.h ****     This function executes a exclusive STR instruction for 32 bit values.
 660:../STM32Cube_FW_F4_V1.4.0/Drivers/CMSIS/Include/core_cmInstr.h **** 
 661:../STM32Cube_FW_F4_V1.4.0/Drivers/CMSIS/Include/core_cmInstr.h ****     \param [in]  value  Value to store
 662:../STM32Cube_FW_F4_V1.4.0/Drivers/CMSIS/Include/core_cmInstr.h ****     \param [in]    ptr  Pointer to location
 663:../STM32Cube_FW_F4_V1.4.0/Drivers/CMSIS/Include/core_cmInstr.h ****     \return          0  Function succeeded
 664:../STM32Cube_FW_F4_V1.4.0/Drivers/CMSIS/Include/core_cmInstr.h ****     \return          1  Function failed
 665:../STM32Cube_FW_F4_V1.4.0/Drivers/CMSIS/Include/core_cmInstr.h ****  */
 666:../STM32Cube_FW_F4_V1.4.0/Drivers/CMSIS/Include/core_cmInstr.h **** __attribute__( ( always_inline ) ) __STATIC_INLINE uint32_t __STREXW(uint32_t value, volatile uint3
 667:../STM32Cube_FW_F4_V1.4.0/Drivers/CMSIS/Include/core_cmInstr.h **** {
 668:../STM32Cube_FW_F4_V1.4.0/Drivers/CMSIS/Include/core_cmInstr.h ****    uint32_t result;
 669:../STM32Cube_FW_F4_V1.4.0/Drivers/CMSIS/Include/core_cmInstr.h **** 
 670:../STM32Cube_FW_F4_V1.4.0/Drivers/CMSIS/Include/core_cmInstr.h ****    __ASM volatile ("strex %0, %2, %1" : "=&r" (result), "=Q" (*addr) : "r" (value) );
 671:../STM32Cube_FW_F4_V1.4.0/Drivers/CMSIS/Include/core_cmInstr.h ****    return(result);
 672:../STM32Cube_FW_F4_V1.4.0/Drivers/CMSIS/Include/core_cmInstr.h **** }
 673:../STM32Cube_FW_F4_V1.4.0/Drivers/CMSIS/Include/core_cmInstr.h **** 
 674:../STM32Cube_FW_F4_V1.4.0/Drivers/CMSIS/Include/core_cmInstr.h **** 
 675:../STM32Cube_FW_F4_V1.4.0/Drivers/CMSIS/Include/core_cmInstr.h **** /** \brief  Remove the exclusive lock
 676:../STM32Cube_FW_F4_V1.4.0/Drivers/CMSIS/Include/core_cmInstr.h **** 
 677:../STM32Cube_FW_F4_V1.4.0/Drivers/CMSIS/Include/core_cmInstr.h ****     This function removes the exclusive lock which is created by LDREX.
 678:../STM32Cube_FW_F4_V1.4.0/Drivers/CMSIS/Include/core_cmInstr.h **** 
 679:../STM32Cube_FW_F4_V1.4.0/Drivers/CMSIS/Include/core_cmInstr.h ****  */
 680:../STM32Cube_FW_F4_V1.4.0/Drivers/CMSIS/Include/core_cmInstr.h **** __attribute__( ( always_inline ) ) __STATIC_INLINE void __CLREX(void)
 681:../STM32Cube_FW_F4_V1.4.0/Drivers/CMSIS/Include/core_cmInstr.h **** {
 682:../STM32Cube_FW_F4_V1.4.0/Drivers/CMSIS/Include/core_cmInstr.h ****   __ASM volatile ("clrex" ::: "memory");
 683:../STM32Cube_FW_F4_V1.4.0/Drivers/CMSIS/Include/core_cmInstr.h **** }
 684:../STM32Cube_FW_F4_V1.4.0/Drivers/CMSIS/Include/core_cmInstr.h **** 
 685:../STM32Cube_FW_F4_V1.4.0/Drivers/CMSIS/Include/core_cmInstr.h **** 
 686:../STM32Cube_FW_F4_V1.4.0/Drivers/CMSIS/Include/core_cmInstr.h **** /** \brief  Signed Saturate
 687:../STM32Cube_FW_F4_V1.4.0/Drivers/CMSIS/Include/core_cmInstr.h **** 
 688:../STM32Cube_FW_F4_V1.4.0/Drivers/CMSIS/Include/core_cmInstr.h ****     This function saturates a signed value.
ARM GAS  C:\cygwin\tmp\ccxydAnz.s 			page 33


 689:../STM32Cube_FW_F4_V1.4.0/Drivers/CMSIS/Include/core_cmInstr.h **** 
 690:../STM32Cube_FW_F4_V1.4.0/Drivers/CMSIS/Include/core_cmInstr.h ****     \param [in]  value  Value to be saturated
 691:../STM32Cube_FW_F4_V1.4.0/Drivers/CMSIS/Include/core_cmInstr.h ****     \param [in]    sat  Bit position to saturate to (1..32)
 692:../STM32Cube_FW_F4_V1.4.0/Drivers/CMSIS/Include/core_cmInstr.h ****     \return             Saturated value
 693:../STM32Cube_FW_F4_V1.4.0/Drivers/CMSIS/Include/core_cmInstr.h ****  */
 694:../STM32Cube_FW_F4_V1.4.0/Drivers/CMSIS/Include/core_cmInstr.h **** #define __SSAT(ARG1,ARG2) \
 695:../STM32Cube_FW_F4_V1.4.0/Drivers/CMSIS/Include/core_cmInstr.h **** ({                          \
 696:../STM32Cube_FW_F4_V1.4.0/Drivers/CMSIS/Include/core_cmInstr.h ****   uint32_t __RES, __ARG1 = (ARG1); \
 697:../STM32Cube_FW_F4_V1.4.0/Drivers/CMSIS/Include/core_cmInstr.h ****   __ASM ("ssat %0, %1, %2" : "=r" (__RES) :  "I" (ARG2), "r" (__ARG1) ); \
 698:../STM32Cube_FW_F4_V1.4.0/Drivers/CMSIS/Include/core_cmInstr.h ****   __RES; \
 699:../STM32Cube_FW_F4_V1.4.0/Drivers/CMSIS/Include/core_cmInstr.h ****  })
 700:../STM32Cube_FW_F4_V1.4.0/Drivers/CMSIS/Include/core_cmInstr.h **** 
 701:../STM32Cube_FW_F4_V1.4.0/Drivers/CMSIS/Include/core_cmInstr.h **** 
 702:../STM32Cube_FW_F4_V1.4.0/Drivers/CMSIS/Include/core_cmInstr.h **** /** \brief  Unsigned Saturate
 703:../STM32Cube_FW_F4_V1.4.0/Drivers/CMSIS/Include/core_cmInstr.h **** 
 704:../STM32Cube_FW_F4_V1.4.0/Drivers/CMSIS/Include/core_cmInstr.h ****     This function saturates an unsigned value.
 705:../STM32Cube_FW_F4_V1.4.0/Drivers/CMSIS/Include/core_cmInstr.h **** 
 706:../STM32Cube_FW_F4_V1.4.0/Drivers/CMSIS/Include/core_cmInstr.h ****     \param [in]  value  Value to be saturated
 707:../STM32Cube_FW_F4_V1.4.0/Drivers/CMSIS/Include/core_cmInstr.h ****     \param [in]    sat  Bit position to saturate to (0..31)
 708:../STM32Cube_FW_F4_V1.4.0/Drivers/CMSIS/Include/core_cmInstr.h ****     \return             Saturated value
 709:../STM32Cube_FW_F4_V1.4.0/Drivers/CMSIS/Include/core_cmInstr.h ****  */
 710:../STM32Cube_FW_F4_V1.4.0/Drivers/CMSIS/Include/core_cmInstr.h **** #define __USAT(ARG1,ARG2) \
 711:../STM32Cube_FW_F4_V1.4.0/Drivers/CMSIS/Include/core_cmInstr.h **** ({                          \
 712:../STM32Cube_FW_F4_V1.4.0/Drivers/CMSIS/Include/core_cmInstr.h ****   uint32_t __RES, __ARG1 = (ARG1); \
 713:../STM32Cube_FW_F4_V1.4.0/Drivers/CMSIS/Include/core_cmInstr.h ****   __ASM ("usat %0, %1, %2" : "=r" (__RES) :  "I" (ARG2), "r" (__ARG1) ); \
 714:../STM32Cube_FW_F4_V1.4.0/Drivers/CMSIS/Include/core_cmInstr.h ****   __RES; \
 715:../STM32Cube_FW_F4_V1.4.0/Drivers/CMSIS/Include/core_cmInstr.h ****  })
 716:../STM32Cube_FW_F4_V1.4.0/Drivers/CMSIS/Include/core_cmInstr.h **** 
 717:../STM32Cube_FW_F4_V1.4.0/Drivers/CMSIS/Include/core_cmInstr.h **** 
 718:../STM32Cube_FW_F4_V1.4.0/Drivers/CMSIS/Include/core_cmInstr.h **** /** \brief  Count leading zeros
 719:../STM32Cube_FW_F4_V1.4.0/Drivers/CMSIS/Include/core_cmInstr.h **** 
 720:../STM32Cube_FW_F4_V1.4.0/Drivers/CMSIS/Include/core_cmInstr.h ****     This function counts the number of leading zeros of a data value.
 721:../STM32Cube_FW_F4_V1.4.0/Drivers/CMSIS/Include/core_cmInstr.h **** 
 722:../STM32Cube_FW_F4_V1.4.0/Drivers/CMSIS/Include/core_cmInstr.h ****     \param [in]  value  Value to count the leading zeros
 723:../STM32Cube_FW_F4_V1.4.0/Drivers/CMSIS/Include/core_cmInstr.h ****     \return             number of leading zeros in value
 724:../STM32Cube_FW_F4_V1.4.0/Drivers/CMSIS/Include/core_cmInstr.h ****  */
 725:../STM32Cube_FW_F4_V1.4.0/Drivers/CMSIS/Include/core_cmInstr.h **** __attribute__( ( always_inline ) ) __STATIC_INLINE uint8_t __CLZ(uint32_t value)
 726:../STM32Cube_FW_F4_V1.4.0/Drivers/CMSIS/Include/core_cmInstr.h **** {
 727:../STM32Cube_FW_F4_V1.4.0/Drivers/CMSIS/Include/core_cmInstr.h ****   uint32_t result;
 728:../STM32Cube_FW_F4_V1.4.0/Drivers/CMSIS/Include/core_cmInstr.h **** 
 729:../STM32Cube_FW_F4_V1.4.0/Drivers/CMSIS/Include/core_cmInstr.h ****   __ASM volatile ("clz %0, %1" : "=r" (result) : "r" (value) );
 647              		.loc 2 729 0
 648              	@ 729 "../STM32Cube_FW_F4_V1.4.0/Drivers/CMSIS/Include/core_cmInstr.h" 1
 649 0006 B3FA83F3 		clz r3, r3	@ result, result
 650              	@ 0 "" 2
 651              	.LVL14:
 652              		.thumb
 653              	.LBE13:
 654              	.LBE12:
 468:../STM32Cube_FW_F4_V1.4.0/Drivers/STM32F4xx_HAL_Driver/Src/stm32f4xx_hal.c ****   *(__IO uint32_t *)CMPCR_CMP_PD_BB = (uint32_t)ENABLE;
 655              		.loc 1 468 0
 656 000a 0249     		ldr	r1, .L52	@ tmp123,
 657 000c DBB2     		uxtb	r3, r3	@ D.7570, result
 658              	.LVL15:
 659 000e 41F82320 		str	r2, [r1, r3, lsl #2]	@ tmp119, *_7
 660 0012 7047     		bx	lr	@
 661              	.L53:
ARM GAS  C:\cygwin\tmp\ccxydAnz.s 			page 34


 662              		.align	2
 663              	.L52:
 664 0014 00042742 		.word	1109853184
 665              		.cfi_endproc
 666              	.LFE142:
 667              		.size	HAL_EnableCompensationCell, .-HAL_EnableCompensationCell
 668              		.section	.text.HAL_DisableCompensationCell,"ax",%progbits
 669              		.align	1
 670              		.global	HAL_DisableCompensationCell
 671              		.thumb
 672              		.thumb_func
 673              		.type	HAL_DisableCompensationCell, %function
 674              	HAL_DisableCompensationCell:
 675              	.LFB143:
 469:../STM32Cube_FW_F4_V1.4.0/Drivers/STM32F4xx_HAL_Driver/Src/stm32f4xx_hal.c **** }
 470:../STM32Cube_FW_F4_V1.4.0/Drivers/STM32F4xx_HAL_Driver/Src/stm32f4xx_hal.c **** 
 471:../STM32Cube_FW_F4_V1.4.0/Drivers/STM32F4xx_HAL_Driver/Src/stm32f4xx_hal.c **** /**
 472:../STM32Cube_FW_F4_V1.4.0/Drivers/STM32F4xx_HAL_Driver/Src/stm32f4xx_hal.c ****   * @brief  Power-down the I/O Compensation Cell.
 473:../STM32Cube_FW_F4_V1.4.0/Drivers/STM32F4xx_HAL_Driver/Src/stm32f4xx_hal.c ****   * @note   The I/O compensation cell can be used only when the device supply
 474:../STM32Cube_FW_F4_V1.4.0/Drivers/STM32F4xx_HAL_Driver/Src/stm32f4xx_hal.c ****   *         voltage ranges from 2.4 to 3.6 V.  
 475:../STM32Cube_FW_F4_V1.4.0/Drivers/STM32F4xx_HAL_Driver/Src/stm32f4xx_hal.c ****   * @retval None
 476:../STM32Cube_FW_F4_V1.4.0/Drivers/STM32F4xx_HAL_Driver/Src/stm32f4xx_hal.c ****   */
 477:../STM32Cube_FW_F4_V1.4.0/Drivers/STM32F4xx_HAL_Driver/Src/stm32f4xx_hal.c **** void HAL_DisableCompensationCell(void)
 478:../STM32Cube_FW_F4_V1.4.0/Drivers/STM32F4xx_HAL_Driver/Src/stm32f4xx_hal.c **** {
 676              		.loc 1 478 0
 677              		.cfi_startproc
 678              		@ args = 0, pretend = 0, frame = 0
 679              		@ frame_needed = 0, uses_anonymous_args = 0
 680              		@ link register save eliminated.
 681              	.LVL16:
 682              	.LBB14:
 683              	.LBB15:
 554:../STM32Cube_FW_F4_V1.4.0/Drivers/CMSIS/Include/core_cmInstr.h ****    return(result);
 684              		.loc 2 554 0
 685 0000 0123     		movs	r3, #1	@ tmp119,
 686              	@ 554 "../STM32Cube_FW_F4_V1.4.0/Drivers/CMSIS/Include/core_cmInstr.h" 1
 687 0002 93FAA3F3 		rbit r3, r3	@ result, tmp119
 688              	@ 0 "" 2
 689              	.LVL17:
 690              		.thumb
 691              	.LBE15:
 692              	.LBE14:
 693              	.LBB16:
 694              	.LBB17:
 695              		.loc 2 729 0
 696              	@ 729 "../STM32Cube_FW_F4_V1.4.0/Drivers/CMSIS/Include/core_cmInstr.h" 1
 697 0006 B3FA83F3 		clz r3, r3	@ result, result
 698              	@ 0 "" 2
 699              	.LVL18:
 700              		.thumb
 701              	.LBE17:
 702              	.LBE16:
 479:../STM32Cube_FW_F4_V1.4.0/Drivers/STM32F4xx_HAL_Driver/Src/stm32f4xx_hal.c ****   *(__IO uint32_t *)CMPCR_CMP_PD_BB = (uint32_t)DISABLE;
 703              		.loc 1 479 0
 704 000a 034A     		ldr	r2, .L55	@ tmp123,
 705 000c DBB2     		uxtb	r3, r3	@ D.7577, result
 706              	.LVL19:
ARM GAS  C:\cygwin\tmp\ccxydAnz.s 			page 35


 707 000e 0021     		movs	r1, #0	@ tmp124,
 708 0010 42F82310 		str	r1, [r2, r3, lsl #2]	@ tmp124, *_7
 709 0014 7047     		bx	lr	@
 710              	.L56:
 711 0016 00BF     		.align	2
 712              	.L55:
 713 0018 00042742 		.word	1109853184
 714              		.cfi_endproc
 715              	.LFE143:
 716              		.size	HAL_DisableCompensationCell, .-HAL_DisableCompensationCell
 717              		.section	.bss.uwTick,"aw",%nobits
 718              		.align	2
 719              		.set	.LANCHOR0,. + 0
 720              		.type	uwTick, %object
 721              		.size	uwTick, 4
 722              	uwTick:
 723 0000 00000000 		.space	4
 724              		.text
 725              	.Letext0:
 726              		.file 3 "../STM32Cube_FW_F4_V1.4.0/Drivers/CMSIS/Device/ST/STM32F4xx/Include/stm32f407xx.h"
 727              		.file 4 "c:\\program files\\gnu tools arm embedded\\4.9 2014q4\\arm-none-eabi\\include\\machine\\_
 728              		.file 5 "c:\\program files\\gnu tools arm embedded\\4.9 2014q4\\arm-none-eabi\\include\\stdint.h"
 729              		.file 6 "../STM32Cube_FW_F4_V1.4.0/Drivers/CMSIS/Include/core_cm4.h"
 730              		.file 7 "../STM32Cube_FW_F4_V1.4.0/Drivers/CMSIS/Device/ST/STM32F4xx/Include/stm32f4xx.h"
 731              		.file 8 "../STM32Cube_FW_F4_V1.4.0/Drivers/STM32F4xx_HAL_Driver/Inc/stm32f4xx_hal_def.h"
 732              		.file 9 "../STM32Cube_FW_F4_V1.4.0/Drivers/STM32F4xx_HAL_Driver/Inc/stm32f4xx_hal_rcc.h"
 733              		.file 10 "../STM32Cube_FW_F4_V1.4.0/Drivers/STM32F4xx_HAL_Driver/Inc/stm32f4xx_hal_cortex.h"