ARM GAS  C:\cygwin\tmp\ccjnKsnc.s 			page 1


   1              		.syntax unified
   2              		.cpu cortex-m4
   3              		.fpu softvfp
   4              		.eabi_attribute 20, 1	@ Tag_ABI_FP_denormal
   5              		.eabi_attribute 21, 1	@ Tag_ABI_FP_exceptions
   6              		.eabi_attribute 23, 3	@ Tag_ABI_FP_number_model
   7              		.eabi_attribute 24, 1	@ Tag_ABI_align8_needed
   8              		.eabi_attribute 25, 1	@ Tag_ABI_align8_preserved
   9              		.eabi_attribute 26, 1	@ Tag_ABI_enum_size
  10              		.eabi_attribute 30, 4	@ Tag_ABI_optimization_goals
  11              		.eabi_attribute 34, 1	@ Tag_CPU_unaligned_access
  12              		.eabi_attribute 18, 4	@ Tag_ABI_PCS_wchar_t
  13              		.file	"stm32_ub_stemwin.c"
  14              	@ GNU C (GNU Tools for ARM Embedded Processors) version 4.9.3 20141119 (release) [ARM/embedded-4_9-
  15              	@	compiled by GNU C version 4.7.4, GMP version 4.3.2, MPFR version 2.4.2, MPC version 0.8.1
  16              	@ GGC heuristics: --param ggc-min-expand=100 --param ggc-min-heapsize=131072
  17              	@ options passed:  -I . -I Inc -I gui -I emWin -I emWin/config
  18              	@ -I ../STM32Cube_FW_F4_V1.4.0/Drivers/CMSIS/Include
  19              	@ -I ../STM32Cube_FW_F4_V1.4.0/Drivers/CMSIS/Device/ST/STM32F4xx/Include
  20              	@ -I ../STM32Cube_FW_F4_V1.4.0/Drivers/STM32F4xx_HAL_Driver/Inc
  21              	@ -I ../STM32Cube_FW_F4_V1.4.0/Drivers/CMSIS/Include
  22              	@ -I ../STM32Cube_FW_F4_V1.4.0/Middlewares/ST/STemWin/inc
  23              	@ -I .drivers/modbus -I ./drivers/display -imultilib armv7e-m
  24              	@ -iprefix c:\program files\gnu tools arm embedded\4.9 2014q4\bin\../lib/gcc/arm-none-eabi/4.9.3/
  25              	@ -isysroot c:\program files\gnu tools arm embedded\4.9 2014q4\bin\../arm-none-eabi
  26              	@ -MD out/stm32_ub_stemwin.d -MF out/stm32_ub_stemwin.d -MP
  27              	@ -MQ out/stm32_ub_stemwin.o -D__USES_INITFINI__ -D USE_HAL_DRIVER
  28              	@ -D STM32F4XX -D HSE_VALUE=8000000 -D __STARTUP_CLEAR_BSS -D STM32F407VG
  29              	@ -D USE_FULL_ASSERT -D __FPU_USED emWin/stm32_ub_stemwin.c -mcpu=cortex-m4
  30              	@ -mthumb -auxbase-strip out/stm32_ub_stemwin.o -g -ggdb3 -Os -Os -Wall
  31              	@ -Wstrict-prototypes -Wextra -std=gnu90 -ffunction-sections
  32              	@ -fdata-sections -fverbose-asm
  33              	@ options enabled:  -faggressive-loop-optimizations -fauto-inc-dec
  34              	@ -fbranch-count-reg -fcaller-saves -fcombine-stack-adjustments -fcommon
  35              	@ -fcompare-elim -fcprop-registers -fcrossjumping -fcse-follow-jumps
  36              	@ -fdata-sections -fdefer-pop -fdelete-null-pointer-checks -fdevirtualize
  37              	@ -fdevirtualize-speculatively -fdwarf2-cfi-asm -fearly-inlining
  38              	@ -feliminate-unused-debug-types -fexpensive-optimizations
  39              	@ -fforward-propagate -ffunction-cse -ffunction-sections -fgcse -fgcse-lm
  40              	@ -fgnu-runtime -fgnu-unique -fguess-branch-probability
  41              	@ -fhoist-adjacent-loads -fident -fif-conversion -fif-conversion2
  42              	@ -findirect-inlining -finline -finline-atomics -finline-functions
  43              	@ -finline-functions-called-once -finline-small-functions -fipa-cp
  44              	@ -fipa-profile -fipa-pure-const -fipa-reference -fipa-sra
  45              	@ -fira-hoist-pressure -fira-share-save-slots -fira-share-spill-slots
  46              	@ -fisolate-erroneous-paths-dereference -fivopts -fkeep-static-consts
  47              	@ -fleading-underscore -fmath-errno -fmerge-constants -fmerge-debug-strings
  48              	@ -fomit-frame-pointer -foptimize-sibling-calls -fpartial-inlining
  49              	@ -fpeephole -fpeephole2 -fprefetch-loop-arrays -freg-struct-return
  50              	@ -freorder-blocks -freorder-functions -frerun-cse-after-loop
  51              	@ -fsched-critical-path-heuristic -fsched-dep-count-heuristic
  52              	@ -fsched-group-heuristic -fsched-interblock -fsched-last-insn-heuristic
  53              	@ -fsched-pressure -fsched-rank-heuristic -fsched-spec
  54              	@ -fsched-spec-insn-heuristic -fsched-stalled-insns-dep -fschedule-insns2
  55              	@ -fsection-anchors -fshow-column -fsigned-zeros -fsplit-ivs-in-unroller
  56              	@ -fsplit-wide-types -fstrict-aliasing -fstrict-overflow
  57              	@ -fstrict-volatile-bitfields -fsync-libcalls -fthread-jumps
ARM GAS  C:\cygwin\tmp\ccjnKsnc.s 			page 2


  58              	@ -ftoplevel-reorder -ftrapping-math -ftree-bit-ccp -ftree-builtin-call-dce
  59              	@ -ftree-ccp -ftree-ch -ftree-coalesce-vars -ftree-copy-prop
  60              	@ -ftree-copyrename -ftree-cselim -ftree-dce -ftree-dominator-opts
  61              	@ -ftree-dse -ftree-forwprop -ftree-fre -ftree-loop-if-convert
  62              	@ -ftree-loop-im -ftree-loop-ivcanon -ftree-loop-optimize
  63              	@ -ftree-parallelize-loops= -ftree-phiprop -ftree-pre -ftree-pta
  64              	@ -ftree-reassoc -ftree-scev-cprop -ftree-sink -ftree-slsr -ftree-sra
  65              	@ -ftree-switch-conversion -ftree-tail-merge -ftree-ter -ftree-vrp
  66              	@ -funit-at-a-time -fvar-tracking -fvar-tracking-assignments -fverbose-asm
  67              	@ -fzero-initialized-in-bss -mlittle-endian -mlra
  68              	@ -mpic-data-is-text-relative -msched-prolog -mthumb -munaligned-access
  69              	@ -mvectorize-with-neon-quad
  70              	
  71              		.text
  72              	.Ltext0:
  73              		.cfi_sections	.debug_frame
  74              		.section	.text.UB_STemWIN_init,"ax",%progbits
  75              		.align	1
  76              		.global	UB_STemWIN_init
  77              		.thumb
  78              		.thumb_func
  79              		.type	UB_STemWIN_init, %function
  80              	UB_STemWIN_init:
  81              	.LFB123:
  82              		.file 1 "emWin/stm32_ub_stemwin.c"
   1:emWin/stm32_ub_stemwin.c **** /**
   2:emWin/stm32_ub_stemwin.c ****   ******************************************************************************
   3:emWin/stm32_ub_stemwin.c ****   * @file    stm32_ub_stemwin.c
   4:emWin/stm32_ub_stemwin.c ****   * @author  Multicalor
   5:emWin/stm32_ub_stemwin.c ****   * @version V1.0.0
   6:emWin/stm32_ub_stemwin.c ****   * @date    23-01-2015
   7:emWin/stm32_ub_stemwin.c ****   * @brief   STemWin GUI init + Touch init
   8:emWin/stm32_ub_stemwin.c **** 	@brief	Verventa 1.0.0
   9:emWin/stm32_ub_stemwin.c ****   ******************************************************************************
  10:emWin/stm32_ub_stemwin.c ****   * @attention
  11:emWin/stm32_ub_stemwin.c ****   *
  12:emWin/stm32_ub_stemwin.c ****   * <h2><center>&copy; COPYRIGHT(c) 2014 STMicroelectronics</center></h2>
  13:emWin/stm32_ub_stemwin.c ****   *
  14:emWin/stm32_ub_stemwin.c ****   * Redistribution and use in source and binary forms, with or without modification,
  15:emWin/stm32_ub_stemwin.c ****   * are permitted provided that the following conditions are met:
  16:emWin/stm32_ub_stemwin.c ****   *   1. Redistributions of source code must retain the above copyright notice,
  17:emWin/stm32_ub_stemwin.c ****   *      this list of conditions and the following disclaimer.
  18:emWin/stm32_ub_stemwin.c ****   *   2. Redistributions in binary form must reproduce the above copyright notice,
  19:emWin/stm32_ub_stemwin.c ****   *      this list of conditions and the following disclaimer in the documentation
  20:emWin/stm32_ub_stemwin.c ****   *      and/or other materials provided with the distribution.
  21:emWin/stm32_ub_stemwin.c ****   *   3. Neither the name of STMicroelectronics nor the names of its contributors
  22:emWin/stm32_ub_stemwin.c ****   *      may be used to endorse or promote products derived from this software
  23:emWin/stm32_ub_stemwin.c ****   *      without specific prior written permission.
  24:emWin/stm32_ub_stemwin.c ****   *
  25:emWin/stm32_ub_stemwin.c ****   * THIS SOFTWARE IS PROVIDED BY THE COPYRIGHT HOLDERS AND CONTRIBUTORS "AS IS"
  26:emWin/stm32_ub_stemwin.c ****   * AND ANY EXPRESS OR IMPLIED WARRANTIES, INCLUDING, BUT NOT LIMITED TO, THE
  27:emWin/stm32_ub_stemwin.c ****   * IMPLIED WARRANTIES OF MERCHANTABILITY AND FITNESS FOR A PARTICULAR PURPOSE ARE
  28:emWin/stm32_ub_stemwin.c ****   * DISCLAIMED. IN NO EVENT SHALL THE COPYRIGHT HOLDER OR CONTRIBUTORS BE LIABLE
  29:emWin/stm32_ub_stemwin.c ****   * FOR ANY DIRECT, INDIRECT, INCIDENTAL, SPECIAL, EXEMPLARY, OR CONSEQUENTIAL
  30:emWin/stm32_ub_stemwin.c ****   * DAMAGES (INCLUDING, BUT NOT LIMITED TO, PROCUREMENT OF SUBSTITUTE GOODS OR
  31:emWin/stm32_ub_stemwin.c ****   * SERVICES; LOSS OF USE, DATA, OR PROFITS; OR BUSINESS INTERRUPTION) HOWEVER
  32:emWin/stm32_ub_stemwin.c ****   * CAUSED AND ON ANY THEORY OF LIABILITY, WHETHER IN CONTRACT, STRICT LIABILITY,
ARM GAS  C:\cygwin\tmp\ccjnKsnc.s 			page 3


  33:emWin/stm32_ub_stemwin.c ****   * OR TORT (INCLUDING NEGLIGENCE OR OTHERWISE) ARISING IN ANY WAY OUT OF THE USE
  34:emWin/stm32_ub_stemwin.c ****   * OF THIS SOFTWARE, EVEN IF ADVISED OF THE POSSIBILITY OF SUCH DAMAGE.
  35:emWin/stm32_ub_stemwin.c ****   *
  36:emWin/stm32_ub_stemwin.c ****   ******************************************************************************
  37:emWin/stm32_ub_stemwin.c ****   */
  38:emWin/stm32_ub_stemwin.c **** /* Includes ------------------------------------------------------------------*/
  39:emWin/stm32_ub_stemwin.c **** #include "stm32_ub_stemwin.h"
  40:emWin/stm32_ub_stemwin.c **** #include "stm32f4xx_it.h"
  41:emWin/stm32_ub_stemwin.c **** 
  42:emWin/stm32_ub_stemwin.c **** /**
  43:emWin/stm32_ub_stemwin.c ****   * @brief  This function Init STemWin Display Touchpanel.
  44:emWin/stm32_ub_stemwin.c ****   * @param  None
  45:emWin/stm32_ub_stemwin.c ****   * @retval ErrorStatus
  46:emWin/stm32_ub_stemwin.c ****   */
  47:emWin/stm32_ub_stemwin.c **** ErrorStatus UB_STemWIN_init(void){
  83              		.loc 1 47 0
  84              		.cfi_startproc
  85              		@ args = 0, pretend = 0, frame = 0
  86              		@ frame_needed = 0, uses_anonymous_args = 0
  87              	.LVL0:
  88 0000 08B5     		push	{r3, lr}	@
  89              		.cfi_def_cfa_offset 8
  90              		.cfi_offset 3, -8
  91              		.cfi_offset 14, -4
  48:emWin/stm32_ub_stemwin.c ****   int16_t error_stat;
  49:emWin/stm32_ub_stemwin.c ****   uint8_t threshhold = 0;
  50:emWin/stm32_ub_stemwin.c ****   RCC_ClocksTypeDef RCC_Clocks;
  51:emWin/stm32_ub_stemwin.c **** 
  52:emWin/stm32_ub_stemwin.c ****   RCC_AHB1PeriphClockCmd(RCC_AHB1Periph_CRC, ENABLE); // Don't forget!!
  92              		.loc 1 52 0
  93 0002 0121     		movs	r1, #1	@,
  94 0004 4FF48050 		mov	r0, #4096	@,
  95 0008 FFF7FEFF 		bl	RCC_AHB1PeriphClockCmd	@
  96              	.LVL1:
  53:emWin/stm32_ub_stemwin.c ****   
  54:emWin/stm32_ub_stemwin.c ****   /*	Display Init	*/
  55:emWin/stm32_ub_stemwin.c ****   init_ili9341();
  97              		.loc 1 55 0
  98 000c FFF7FEFF 		bl	init_ili9341	@
  99              	.LVL2:
  56:emWin/stm32_ub_stemwin.c ****   HAL_Delay(2);
 100              		.loc 1 56 0
 101 0010 0220     		movs	r0, #2	@,
 102 0012 FFF7FEFF 		bl	HAL_Delay	@
 103              	.LVL3:
  57:emWin/stm32_ub_stemwin.c **** 
  58:emWin/stm32_ub_stemwin.c ****   /*	Touch Init	*/
  59:emWin/stm32_ub_stemwin.c ****   FT6206_begin(threshhold);
 104              		.loc 1 59 0
 105 0016 0020     		movs	r0, #0	@,
 106 0018 FFF7FEFF 		bl	FT6206_begin	@
 107              	.LVL4:
  60:emWin/stm32_ub_stemwin.c ****   HAL_Delay(5);
 108              		.loc 1 60 0
 109 001c 0520     		movs	r0, #5	@,
 110 001e FFF7FEFF 		bl	HAL_Delay	@
 111              	.LVL5:
ARM GAS  C:\cygwin\tmp\ccjnKsnc.s 			page 4


  61:emWin/stm32_ub_stemwin.c **** 
  62:emWin/stm32_ub_stemwin.c ****   /*	STemWin-GUI Init	*/
  63:emWin/stm32_ub_stemwin.c ****   if(GUI_Init()!=0) {
 112              		.loc 1 63 0
 113 0022 FFF7FEFF 		bl	GUI_Init	@
 114              	.LVL6:
  64:emWin/stm32_ub_stemwin.c ****     return(ERROR);
  65:emWin/stm32_ub_stemwin.c ****   }
  66:emWin/stm32_ub_stemwin.c ****   
  67:emWin/stm32_ub_stemwin.c ****   return(SUCCESS);
  68:emWin/stm32_ub_stemwin.c **** }
 115              		.loc 1 68 0
 116 0026 B0FA80F0 		clz	r0, r0	@,
 117 002a 4009     		lsrs	r0, r0, #5	@,,
 118 002c 08BD     		pop	{r3, pc}	@
 119              		.cfi_endproc
 120              	.LFE123:
 121              		.size	UB_STemWIN_init, .-UB_STemWIN_init
 122              		.section	.text.UB_STemWIN_updateTouch,"ax",%progbits
 123              		.align	1
 124              		.global	UB_STemWIN_updateTouch
 125              		.thumb
 126              		.thumb_func
 127              		.type	UB_STemWIN_updateTouch, %function
 128              	UB_STemWIN_updateTouch:
 129              	.LFB124:
  69:emWin/stm32_ub_stemwin.c **** 
  70:emWin/stm32_ub_stemwin.c ****  
  71:emWin/stm32_ub_stemwin.c **** 
  72:emWin/stm32_ub_stemwin.c **** /**
  73:emWin/stm32_ub_stemwin.c ****   * @brief  This function updates Touch every 3ms.
  74:emWin/stm32_ub_stemwin.c ****   * @param  None
  75:emWin/stm32_ub_stemwin.c ****   * @retval None
  76:emWin/stm32_ub_stemwin.c ****   */
  77:emWin/stm32_ub_stemwin.c **** void UB_STemWIN_updateTouch(void){
 130              		.loc 1 77 0
 131              		.cfi_startproc
 132              		@ args = 0, pretend = 0, frame = 16
 133              		@ frame_needed = 0, uses_anonymous_args = 0
 134              	.LVL7:
 135 0000 1FB5     		push	{r0, r1, r2, r3, r4, lr}	@
 136              		.cfi_def_cfa_offset 24
 137              		.cfi_offset 14, -4
  78:emWin/stm32_ub_stemwin.c ****   GUI_PID_STATE TS_State;
  79:emWin/stm32_ub_stemwin.c ****   static uint8_t prev_state = 0;
  80:emWin/stm32_ub_stemwin.c ****   uint32_t TS_Orientation = 1;  // LandScape Mode
  81:emWin/stm32_ub_stemwin.c ****   
  82:emWin/stm32_ub_stemwin.c ****   /*	Call Touches	*/
  83:emWin/stm32_ub_stemwin.c ****   FT6206_read_data();
 138              		.loc 1 83 0
 139 0002 FFF7FEFF 		bl	FT6206_read_data	@
 140              	.LVL8:
  84:emWin/stm32_ub_stemwin.c **** 
  85:emWin/stm32_ub_stemwin.c ****     if(TS_Orientation == 0){
  86:emWin/stm32_ub_stemwin.c **** 		TS_State.x = FT6206.touch_01_xpos;
  87:emWin/stm32_ub_stemwin.c **** 		TS_State.y = FT6206.touch_01_ypos;
  88:emWin/stm32_ub_stemwin.c **** 	}
ARM GAS  C:\cygwin\tmp\ccjnKsnc.s 			page 5


  89:emWin/stm32_ub_stemwin.c **** 	else{
  90:emWin/stm32_ub_stemwin.c **** 		TS_State.y = 240 - FT6206.touch_01_xpos;
 141              		.loc 1 90 0
 142 0006 0E4B     		ldr	r3, .L7	@ tmp118,
 143 0008 9A88     		ldrh	r2, [r3, #4]	@ D.11035, FT6206.touch_01_xpos
 144 000a C2F1F002 		rsb	r2, r2, #240	@ D.11035, D.11035,
 145 000e 0292     		str	r2, [sp, #8]	@ D.11035, TS_State.y
  91:emWin/stm32_ub_stemwin.c **** 		TS_State.x = FT6206.touch_01_ypos;
 146              		.loc 1 91 0
 147 0010 1A89     		ldrh	r2, [r3, #8]	@ FT6206.touch_01_ypos, FT6206.touch_01_ypos
  92:emWin/stm32_ub_stemwin.c **** 	}
  93:emWin/stm32_ub_stemwin.c **** 	
  94:emWin/stm32_ub_stemwin.c **** 	if((FT6206.touch_points) != 0){
 148              		.loc 1 94 0
 149 0012 5B78     		ldrb	r3, [r3, #1]	@ zero_extendqisi2	@ FT6206.touch_points, FT6206.touch_points
  91:emWin/stm32_ub_stemwin.c **** 		TS_State.x = FT6206.touch_01_ypos;
 150              		.loc 1 91 0
 151 0014 0192     		str	r2, [sp, #4]	@ FT6206.touch_01_ypos, TS_State.x
 152              		.loc 1 94 0
 153 0016 03B1     		cbz	r3, .L3	@ FT6206.touch_points,
  95:emWin/stm32_ub_stemwin.c **** 		TS_State.Pressed = 1;
 154              		.loc 1 95 0
 155 0018 0123     		movs	r3, #1	@ tmp125,
 156              	.L3:
  96:emWin/stm32_ub_stemwin.c **** 	}
  97:emWin/stm32_ub_stemwin.c **** 	else{
  98:emWin/stm32_ub_stemwin.c **** 		TS_State.Pressed = 0;
 157              		.loc 1 98 0
 158 001a 8DF80C30 		strb	r3, [sp, #12]	@ FT6206.touch_points, TS_State.Pressed
  99:emWin/stm32_ub_stemwin.c **** 	}
 100:emWin/stm32_ub_stemwin.c **** 
 101:emWin/stm32_ub_stemwin.c **** 	if(prev_state != TS_State.Pressed ){
 159              		.loc 1 101 0
 160 001e 094B     		ldr	r3, .L7+4	@ tmp129,
 161 0020 9DF80C20 		ldrb	r2, [sp, #12]	@ zero_extendqisi2	@ D.11036, TS_State.Pressed
 162 0024 1978     		ldrb	r1, [r3]	@ zero_extendqisi2	@ prev_state, prev_state
 163 0026 9142     		cmp	r1, r2	@ prev_state, D.11036
 164 0028 06D0     		beq	.L2	@,
 102:emWin/stm32_ub_stemwin.c **** 		prev_state = TS_State.Pressed;
 165              		.loc 1 102 0
 166 002a 1A70     		strb	r2, [r3]	@ D.11036, prev_state
 103:emWin/stm32_ub_stemwin.c **** 		TS_State.Layer = 0;
 104:emWin/stm32_ub_stemwin.c **** 		GUI_TOUCH_StoreStateEx(&TS_State);
 167              		.loc 1 104 0
 168 002c 01A8     		add	r0, sp, #4	@,,
 103:emWin/stm32_ub_stemwin.c **** 		TS_State.Layer = 0;
 169              		.loc 1 103 0
 170 002e 0023     		movs	r3, #0	@ tmp133,
 171 0030 8DF80D30 		strb	r3, [sp, #13]	@ tmp133, TS_State.Layer
 172              		.loc 1 104 0
 173 0034 FFF7FEFF 		bl	GUI_TOUCH_StoreStateEx	@
 174              	.LVL9:
 175              	.L2:
 105:emWin/stm32_ub_stemwin.c **** 	}
 106:emWin/stm32_ub_stemwin.c **** 	
 107:emWin/stm32_ub_stemwin.c **** }
 176              		.loc 1 107 0
ARM GAS  C:\cygwin\tmp\ccjnKsnc.s 			page 6


 177 0038 05B0     		add	sp, sp, #20	@,,
 178              		.cfi_def_cfa_offset 4
 179              		@ sp needed	@
 180 003a 5DF804FB 		ldr	pc, [sp], #4	@
 181              	.L8:
 182 003e 00BF     		.align	2
 183              	.L7:
 184 0040 00000000 		.word	FT6206
 185 0044 00000000 		.word	.LANCHOR0
 186              		.cfi_endproc
 187              	.LFE124:
 188              		.size	UB_STemWIN_updateTouch, .-UB_STemWIN_updateTouch
 189              		.section	.bss.prev_state.10996,"aw",%nobits
 190              		.set	.LANCHOR0,. + 0
 191              		.type	prev_state.10996, %object
 192              		.size	prev_state.10996, 1
 193              	prev_state.10996:
 194 0000 00       		.space	1
 195              		.text
 196              	.Letext0:
 197              		.file 2 "c:\\program files\\gnu tools arm embedded\\4.9 2014q4\\arm-none-eabi\\include\\machine\\_
 198              		.file 3 "c:\\program files\\gnu tools arm embedded\\4.9 2014q4\\arm-none-eabi\\include\\stdint.h"
 199              		.file 4 "../STM32Cube_FW_F4_V1.4.0/Drivers/CMSIS/Device/ST/STM32F4xx/Include/stm32f4xx.h"
 200              		.file 5 "./drivers/display/FT6206.h"
 201              		.file 6 "emWin/config/stm32f4xx_rcc.h"
 202              		.file 7 "../STM32Cube_FW_F4_V1.4.0/Middlewares/ST/STemWin/inc/GUI_Type.h"
 203              		.file 8 "../STM32Cube_FW_F4_V1.4.0/Drivers/CMSIS/Include/core_cm4.h"
 204              		.file 9 "../STM32Cube_FW_F4_V1.4.0/Drivers/STM32F4xx_HAL_Driver/Inc/stm32f4xx_hal.h"
 205              		.file 10 "./drivers/display/ili_9341.h"
 206              		.file 11 "../STM32Cube_FW_F4_V1.4.0/Middlewares/ST/STemWin/inc/GUI.h"